; ModuleID = 'TrackKLT.cpp'
source_filename = "TrackKLT.cpp"
target datalayout = "e-m:e-i64:64-f80:128-n8:16:32:64-S128"
target triple = "x86_64-unknown-linux-gnu"

%"class.std::ios_base::Init" = type { i8 }
%"class.boost::system::error_category" = type { i32 (...)** }
%"struct.boost::arg" = type { i8 }
%"struct.boost::arg.1" = type { i8 }
%"struct.boost::arg.3" = type { i8 }
%"struct.boost::arg.5" = type { i8 }
%"struct.boost::arg.7" = type { i8 }
%"struct.boost::arg.9" = type { i8 }
%"struct.boost::arg.11" = type { i8 }
%"struct.boost::arg.13" = type { i8 }
%"struct.boost::arg.15" = type { i8 }
%"struct.std::piecewise_construct_t" = type { i8 }
%"class.boost::system::system_error" = type { %"class.std::runtime_error", %"class.boost::system::error_code", %"class.std::__cxx11::basic_string" }
%"class.std::runtime_error" = type { %"class.std::exception", %"struct.std::__cow_string" }
%"class.std::exception" = type { i32 (...)** }
%"struct.std::__cow_string" = type { %union.anon }
%union.anon = type { i8* }
%"class.boost::system::error_code" = type { i32, %"class.boost::system::error_category"* }
%"class.std::__cxx11::basic_string" = type { %"struct.std::__cxx11::basic_string<char, std::char_traits<char>, std::allocator<char> >::_Alloc_hider", i64, %union.anon.0 }
%"struct.std::__cxx11::basic_string<char, std::char_traits<char>, std::allocator<char> >::_Alloc_hider" = type { i8* }
%union.anon.0 = type { i64, [8 x i8] }
%"class.std::allocator" = type { i8 }
%"class.ov_core::TrackKLT" = type { %"class.ov_core::TrackBase", %"class.boost::posix_time::ptime", %"class.boost::posix_time::ptime", %"class.boost::posix_time::ptime", %"class.boost::posix_time::ptime", %"class.boost::posix_time::ptime", %"class.boost::posix_time::ptime", %"class.boost::posix_time::ptime", i32, double, double, double, double, double, i32, i32, i32, i32, i32, %"class.cv::Size_", %"class.std::map.73" }
%"class.ov_core::TrackBase" = type { i32 (...)**, %"class.ov_core::FeatureDatabase"*, %"class.std::map", %"class.std::map.27", %"class.std::map.32", i32, %"class.std::vector", %"class.std::map.40", %"class.std::unordered_map.45", %"class.std::unordered_map.59", %"struct.std::atomic" }
%"class.ov_core::FeatureDatabase" = type { %"class.std::mutex", %"class.std::unordered_map" }
%"class.std::mutex" = type { %"class.std::__mutex_base" }
%"class.std::__mutex_base" = type { %union.pthread_mutex_t }
%union.pthread_mutex_t = type { %"struct.(anonymous union)::__pthread_mutex_s" }
%"struct.(anonymous union)::__pthread_mutex_s" = type { i32, i32, i32, i32, i32, i16, i16, %struct.__pthread_internal_list }
%struct.__pthread_internal_list = type { %struct.__pthread_internal_list*, %struct.__pthread_internal_list* }
%"class.std::unordered_map" = type { %"class.std::_Hashtable" }
%"class.std::_Hashtable" = type { %"struct.std::__detail::_Hash_node_base"**, i64, %"struct.std::__detail::_Hash_node_base", i64, %"struct.std::__detail::_Prime_rehash_policy", %"struct.std::__detail::_Hash_node_base"* }
%"struct.std::__detail::_Hash_node_base" = type { %"struct.std::__detail::_Hash_node_base"* }
%"struct.std::__detail::_Prime_rehash_policy" = type { float, i64 }
%"class.std::map" = type { %"class.std::_Rb_tree" }
%"class.std::_Rb_tree" = type { %"struct.std::_Rb_tree<unsigned long, std::pair<const unsigned long, bool>, std::_Select1st<std::pair<const unsigned long, bool> >, std::less<unsigned long>, std::allocator<std::pair<const unsigned long, bool> > >::_Rb_tree_impl" }
%"struct.std::_Rb_tree<unsigned long, std::pair<const unsigned long, bool>, std::_Select1st<std::pair<const unsigned long, bool> >, std::less<unsigned long>, std::allocator<std::pair<const unsigned long, bool> > >::_Rb_tree_impl" = type { %"struct.std::less", %"struct.std::_Rb_tree_node_base", i64 }
%"struct.std::less" = type { i8 }
%"struct.std::_Rb_tree_node_base" = type { i32, %"struct.std::_Rb_tree_node_base"*, %"struct.std::_Rb_tree_node_base"*, %"struct.std::_Rb_tree_node_base"* }
%"class.std::map.27" = type { %"class.std::_Rb_tree.28" }
%"class.std::_Rb_tree.28" = type { %"struct.std::_Rb_tree<unsigned long, std::pair<const unsigned long, cv::Matx<double, 3, 3> >, std::_Select1st<std::pair<const unsigned long, cv::Matx<double, 3, 3> > >, std::less<unsigned long>, std::allocator<std::pair<const unsigned long, cv::Matx<double, 3, 3> > > >::_Rb_tree_impl" }
%"struct.std::_Rb_tree<unsigned long, std::pair<const unsigned long, cv::Matx<double, 3, 3> >, std::_Select1st<std::pair<const unsigned long, cv::Matx<double, 3, 3> > >, std::less<unsigned long>, std::allocator<std::pair<const unsigned long, cv::Matx<double, 3, 3> > > >::_Rb_tree_impl" = type { %"struct.std::less", %"struct.std::_Rb_tree_node_base", i64 }
%"class.std::map.32" = type { %"class.std::_Rb_tree.33" }
%"class.std::_Rb_tree.33" = type { %"struct.std::_Rb_tree<unsigned long, std::pair<const unsigned long, cv::Vec<double, 4> >, std::_Select1st<std::pair<const unsigned long, cv::Vec<double, 4> > >, std::less<unsigned long>, std::allocator<std::pair<const unsigned long, cv::Vec<double, 4> > > >::_Rb_tree_impl" }
%"struct.std::_Rb_tree<unsigned long, std::pair<const unsigned long, cv::Vec<double, 4> >, std::_Select1st<std::pair<const unsigned long, cv::Vec<double, 4> > >, std::less<unsigned long>, std::allocator<std::pair<const unsigned long, cv::Vec<double, 4> > > >::_Rb_tree_impl" = type { %"struct.std::less", %"struct.std::_Rb_tree_node_base", i64 }
%"class.std::vector" = type { %"struct.std::_Vector_base" }
%"struct.std::_Vector_base" = type { %"struct.std::_Vector_base<std::mutex, std::allocator<std::mutex> >::_Vector_impl" }
%"struct.std::_Vector_base<std::mutex, std::allocator<std::mutex> >::_Vector_impl" = type { %"class.std::mutex"*, %"class.std::mutex"*, %"class.std::mutex"* }
%"class.std::map.40" = type { %"class.std::_Rb_tree.41" }
%"class.std::_Rb_tree.41" = type { %"struct.std::_Rb_tree<unsigned long, std::pair<const unsigned long, cv::Mat>, std::_Select1st<std::pair<const unsigned long, cv::Mat> >, std::less<unsigned long>, std::allocator<std::pair<const unsigned long, cv::Mat> > >::_Rb_tree_impl" }
%"struct.std::_Rb_tree<unsigned long, std::pair<const unsigned long, cv::Mat>, std::_Select1st<std::pair<const unsigned long, cv::Mat> >, std::less<unsigned long>, std::allocator<std::pair<const unsigned long, cv::Mat> > >::_Rb_tree_impl" = type { %"struct.std::less", %"struct.std::_Rb_tree_node_base", i64 }
%"class.std::unordered_map.45" = type { %"class.std::_Hashtable.46" }
%"class.std::_Hashtable.46" = type { %"struct.std::__detail::_Hash_node_base"**, i64, %"struct.std::__detail::_Hash_node_base", i64, %"struct.std::__detail::_Prime_rehash_policy", %"struct.std::__detail::_Hash_node_base"* }
%"class.std::unordered_map.59" = type { %"class.std::_Hashtable.60" }
%"class.std::_Hashtable.60" = type { %"struct.std::__detail::_Hash_node_base"**, i64, %"struct.std::__detail::_Hash_node_base", i64, %"struct.std::__detail::_Prime_rehash_policy", %"struct.std::__detail::_Hash_node_base"* }
%"struct.std::atomic" = type { %"struct.std::__atomic_base" }
%"struct.std::__atomic_base" = type { i64 }
%"class.boost::posix_time::ptime" = type { %"class.boost::date_time::base_time" }
%"class.boost::date_time::base_time" = type { %"struct.boost::date_time::counted_time_rep" }
%"struct.boost::date_time::counted_time_rep" = type { %"class.boost::date_time::int_adapter" }
%"class.boost::date_time::int_adapter" = type { i64 }
%"class.cv::Size_" = type { i32, i32 }
%"class.std::map.73" = type { %"class.std::_Rb_tree.74" }
%"class.std::_Rb_tree.74" = type { %"struct.std::_Rb_tree<unsigned long, std::pair<const unsigned long, std::vector<cv::Mat, std::allocator<cv::Mat> > >, std::_Select1st<std::pair<const unsigned long, std::vector<cv::Mat, std::allocator<cv::Mat> > > >, std::less<unsigned long>, std::allocator<std::pair<const unsigned long, std::vector<cv::Mat, std::allocator<cv::Mat> > > > >::_Rb_tree_impl" }
%"struct.std::_Rb_tree<unsigned long, std::pair<const unsigned long, std::vector<cv::Mat, std::allocator<cv::Mat> > >, std::_Select1st<std::pair<const unsigned long, std::vector<cv::Mat, std::allocator<cv::Mat> > > >, std::less<unsigned long>, std::allocator<std::pair<const unsigned long, std::vector<cv::Mat, std::allocator<cv::Mat> > > > >::_Rb_tree_impl" = type { %"struct.std::less", %"struct.std::_Rb_tree_node_base", i64 }
%"class.cv::Mat" = type { i32, i32, i32, i32, i8*, i8*, i8*, i8*, %"class.cv::MatAllocator"*, %"struct.cv::UMatData"*, %"struct.cv::MatSize", %"struct.cv::MatStep" }
%"class.cv::MatAllocator" = type { i32 (...)** }
%"struct.cv::UMatData" = type { %"class.cv::MatAllocator"*, %"class.cv::MatAllocator"*, i32, i32, i8*, i8*, i64, i32, i8*, i8*, i32, i32, %"struct.cv::UMatData"* }
%"struct.cv::MatSize" = type { i32* }
%"struct.cv::MatStep" = type { i64*, [2 x i64] }
%"class.std::unique_lock" = type <{ %"class.std::mutex"*, i8, [7 x i8] }>
%"class.cv::_InputArray" = type { i32, i8*, %"class.cv::Size_" }
%"class.cv::_OutputArray" = type { %"class.cv::_InputArray" }
%"class.std::vector.78" = type { %"struct.std::_Vector_base.79" }
%"struct.std::_Vector_base.79" = type { %"struct.std::_Vector_base<cv::Mat, std::allocator<cv::Mat> >::_Vector_impl" }
%"struct.std::_Vector_base<cv::Mat, std::allocator<cv::Mat> >::_Vector_impl" = type { %"class.cv::Mat"*, %"class.cv::Mat"*, %"class.cv::Mat"* }
%"class.std::vector.93" = type { %"struct.std::_Vector_base.94" }
%"struct.std::_Vector_base.94" = type { %"struct.std::_Vector_base<unsigned char, std::allocator<unsigned char> >::_Vector_impl" }
%"struct.std::_Vector_base<unsigned char, std::allocator<unsigned char> >::_Vector_impl" = type { i8*, i8*, i8* }
%"class.std::vector.83" = type { %"struct.std::_Vector_base.84" }
%"struct.std::_Vector_base.84" = type { %"struct.std::_Vector_base<cv::KeyPoint, std::allocator<cv::KeyPoint> >::_Vector_impl" }
%"struct.std::_Vector_base<cv::KeyPoint, std::allocator<cv::KeyPoint> >::_Vector_impl" = type { %"class.cv::KeyPoint"*, %"class.cv::KeyPoint"*, %"class.cv::KeyPoint"* }
%"class.cv::KeyPoint" = type { %"class.cv::Point_", float, float, float, i32, i32 }
%"class.cv::Point_" = type { float, float }
%"class.std::vector.88" = type { %"struct.std::_Vector_base.89" }
%"struct.std::_Vector_base.89" = type { %"struct.std::_Vector_base<unsigned long, std::allocator<unsigned long> >::_Vector_impl" }
%"struct.std::_Vector_base<unsigned long, std::allocator<unsigned long> >::_Vector_impl" = type { i64*, i64*, i64* }
%"struct.std::__detail::_Map_base.49" = type { i8 }
%"class.__gnu_cxx::__normal_iterator.136" = type { %"class.cv::KeyPoint"* }
%"class.Eigen::Matrix" = type { %"class.Eigen::PlainObjectBase" }
%"class.Eigen::PlainObjectBase" = type { %"class.Eigen::DenseStorage" }
%"class.Eigen::DenseStorage" = type { i32*, i64, i64 }
%"class.Eigen::CwiseNullaryOp" = type <{ %"class.Eigen::internal::variable_if_dynamic", %"class.Eigen::internal::variable_if_dynamic", %"struct.Eigen::internal::scalar_constant_op", [4 x i8] }>
%"class.Eigen::internal::variable_if_dynamic" = type { i64 }
%"struct.Eigen::internal::scalar_constant_op" = type { i32 }
%"class.__gnu_cxx::__normal_iterator.135" = type { %"class.cv::KeyPoint"* }
%"class.__gnu_cxx::__normal_iterator" = type { i64* }
%"class.__gnu_cxx::__normal_iterator.137" = type { i64* }
%"class.std::vector.138" = type { %"struct.std::_Vector_base.139" }
%"struct.std::_Vector_base.139" = type { %"struct.std::_Vector_base<cv::Point_<float>, std::allocator<cv::Point_<float> > >::_Vector_impl" }
%"struct.std::_Vector_base<cv::Point_<float>, std::allocator<cv::Point_<float> > >::_Vector_impl" = type { %"class.cv::Point_"*, %"class.cv::Point_"*, %"class.cv::Point_"* }
%"struct.Eigen::EigenBase.134" = type { i8 }
%"class.Eigen::DenseCoeffsBase.128" = type { i8 }
%"struct.std::__detail::_Map_base.63" = type { i8 }
%"struct.std::_Rb_tree_iterator.306" = type { %"struct.std::_Rb_tree_node_base"* }
%"struct.std::_Rb_tree_const_iterator" = type { %"struct.std::_Rb_tree_node_base"* }
%"class.std::tuple" = type { %"struct.std::_Tuple_impl" }
%"struct.std::_Tuple_impl" = type { %"struct.std::_Head_base" }
%"struct.std::_Head_base" = type { i64* }
%"class.std::tuple.229" = type { i8 }
%"struct.std::pair.307" = type { i64, %"class.cv::Mat" }
%"struct.std::_Rb_tree_iterator.313" = type { %"struct.std::_Rb_tree_node_base"* }
%"struct.std::_Rb_tree_const_iterator.315" = type { %"struct.std::_Rb_tree_node_base"* }
%"struct.std::pair.314" = type { i64, %"class.std::vector.78" }
%"class.std::allocator.80" = type { i8 }
%"class.std::allocator.85" = type { i8 }
%"class.__gnu_cxx::new_allocator.86" = type { i8 }
%"class.std::vector.143" = type { %"struct.std::_Vector_base.144" }
%"struct.std::_Vector_base.144" = type { %"struct.std::_Vector_base<float, std::allocator<float> >::_Vector_impl" }
%"struct.std::_Vector_base<float, std::allocator<float> >::_Vector_impl" = type { float*, float*, float* }
%"class.cv::TermCriteria" = type { i32, i32, double }
%"class.cv::_InputOutputArray" = type { %"class.cv::_OutputArray" }
%"class.cv::Matx" = type { [9 x double] }
%"class.__gnu_cxx::__normal_iterator.322" = type { i8* }
%"class.std::allocator.90" = type { i8 }
%"class.cv::Vec" = type { %"class.cv::Matx.148" }
%"class.cv::Matx.148" = type { [4 x double] }
%"struct.std::__detail::_Node_iterator" = type { %"struct.std::__detail::_Node_iterator_base" }
%"struct.std::__detail::_Node_iterator_base" = type { %"struct.std::__detail::_Hash_node"* }
%"struct.std::__detail::_Hash_node" = type { %"struct.std::__detail::_Hash_node_value_base" }
%"struct.std::__detail::_Hash_node_value_base" = type { %"struct.std::__detail::_Hash_node_base", %"struct.__gnu_cxx::__aligned_buffer" }
%"struct.__gnu_cxx::__aligned_buffer" = type { %"union.std::aligned_storage<16, 8>::type" }
%"union.std::aligned_storage<16, 8>::type" = type { [16 x i8] }
%"class.Eigen::Matrix.210" = type { %"class.Eigen::PlainObjectBase.211" }
%"class.Eigen::PlainObjectBase.211" = type { %"class.Eigen::DenseStorage.219" }
%"class.Eigen::DenseStorage.219" = type { %"struct.Eigen::internal::plain_array.220" }
%"struct.Eigen::internal::plain_array.220" = type { [2 x float] }
%"class.ov_core::Feature" = type { i64, i8, %"class.std::unordered_map.157", %"class.std::unordered_map.157", %"class.std::unordered_map.171", i32, double, %"class.Eigen::Matrix.185", %"class.Eigen::Matrix.185" }
%"class.std::unordered_map.157" = type { %"class.std::_Hashtable.158" }
%"class.std::_Hashtable.158" = type { %"struct.std::__detail::_Hash_node_base"**, i64, %"struct.std::__detail::_Hash_node_base", i64, %"struct.std::__detail::_Prime_rehash_policy", %"struct.std::__detail::_Hash_node_base"* }
%"class.std::unordered_map.171" = type { %"class.std::_Hashtable.172" }
%"class.std::_Hashtable.172" = type { %"struct.std::__detail::_Hash_node_base"**, i64, %"struct.std::__detail::_Hash_node_base", i64, %"struct.std::__detail::_Prime_rehash_policy", %"struct.std::__detail::_Hash_node_base"* }
%"class.Eigen::Matrix.185" = type { %"class.Eigen::PlainObjectBase.186" }
%"class.Eigen::PlainObjectBase.186" = type { %"class.Eigen::DenseStorage.194" }
%"class.Eigen::DenseStorage.194" = type { %"struct.Eigen::internal::plain_array" }
%"struct.Eigen::internal::plain_array" = type { [3 x double] }
%"struct.std::pair.228" = type { i64, %"class.ov_core::Feature"* }
%"class.std::vector.195" = type { %"struct.std::_Vector_base.196" }
%"struct.std::_Vector_base.196" = type { %"struct.std::_Vector_base<Eigen::Matrix<float, -1, 1, 0, -1, 1>, std::allocator<Eigen::Matrix<float, -1, 1, 0, -1, 1> > >::_Vector_impl" }
%"struct.std::_Vector_base<Eigen::Matrix<float, -1, 1, 0, -1, 1>, std::allocator<Eigen::Matrix<float, -1, 1, 0, -1, 1> > >::_Vector_impl" = type { %"class.Eigen::Matrix.200"*, %"class.Eigen::Matrix.200"*, %"class.Eigen::Matrix.200"* }
%"class.Eigen::Matrix.200" = type { %"class.Eigen::PlainObjectBase.201" }
%"class.Eigen::PlainObjectBase.201" = type { %"class.Eigen::DenseStorage.209" }
%"class.Eigen::DenseStorage.209" = type { float*, i64 }
%"class.std::vector.221" = type { %"struct.std::_Vector_base.222" }
%"struct.std::_Vector_base.222" = type { %"struct.std::_Vector_base<double, std::allocator<double> >::_Vector_impl" }
%"struct.std::_Vector_base<double, std::allocator<double> >::_Vector_impl" = type { double*, double*, double* }
%"class.std::allocator.95" = type { i8 }
%"class.boost::thread" = type { %"class.boost::shared_ptr" }
%"class.boost::shared_ptr" = type { %"struct.boost::detail::thread_data_base"*, %"class.boost::detail::shared_count" }
%"struct.boost::detail::thread_data_base" = type <{ i32 (...)**, %"class.boost::enable_shared_from_this", %"class.boost::shared_ptr", i64, %"class.boost::mutex", %"class.boost::condition_variable", %"class.boost::mutex", %"class.boost::condition_variable", i8, i8, i8, [5 x i8], %"struct.boost::detail::thread_exit_callback_node"*, %"class.std::map.98", %union.pthread_mutex_t*, %union.pthread_cond_t*, %"class.std::vector.105", %"class.std::vector.110", i8, i8, [6 x i8] }>
%"class.boost::enable_shared_from_this" = type { %"class.boost::weak_ptr" }
%"class.boost::weak_ptr" = type { %"struct.boost::detail::thread_data_base"*, %"class.boost::detail::weak_count" }
%"class.boost::detail::weak_count" = type { %"class.boost::detail::sp_counted_base"* }
%"class.boost::detail::sp_counted_base" = type { i32 (...)**, i32, i32 }
%"class.boost::mutex" = type { %union.pthread_mutex_t }
%"class.boost::condition_variable" = type { %union.pthread_mutex_t, %union.pthread_cond_t }
%union.pthread_cond_t = type { %struct.anon }
%struct.anon = type { i32, i32, i64, i64, i64, i8*, i32, i32 }
%"struct.boost::detail::thread_exit_callback_node" = type opaque
%"class.std::map.98" = type { %"class.std::_Rb_tree.99" }
%"class.std::_Rb_tree.99" = type { %"struct.std::_Rb_tree<const void *, std::pair<const void *const, boost::detail::tss_data_node>, std::_Select1st<std::pair<const void *const, boost::detail::tss_data_node> >, std::less<const void *>, std::allocator<std::pair<const void *const, boost::detail::tss_data_node> > >::_Rb_tree_impl" }
%"struct.std::_Rb_tree<const void *, std::pair<const void *const, boost::detail::tss_data_node>, std::_Select1st<std::pair<const void *const, boost::detail::tss_data_node> >, std::less<const void *>, std::allocator<std::pair<const void *const, boost::detail::tss_data_node> > >::_Rb_tree_impl" = type { %"struct.std::less.103", %"struct.std::_Rb_tree_node_base", i64 }
%"struct.std::less.103" = type { i8 }
%"class.std::vector.105" = type { %"struct.std::_Vector_base.106" }
%"struct.std::_Vector_base.106" = type { %"struct.std::_Vector_base<std::pair<boost::condition_variable *, boost::mutex *>, std::allocator<std::pair<boost::condition_variable *, boost::mutex *> > >::_Vector_impl" }
%"struct.std::_Vector_base<std::pair<boost::condition_variable *, boost::mutex *>, std::allocator<std::pair<boost::condition_variable *, boost::mutex *> > >::_Vector_impl" = type { %"struct.std::pair"*, %"struct.std::pair"*, %"struct.std::pair"* }
%"struct.std::pair" = type { %"class.boost::condition_variable"*, %"class.boost::mutex"* }
%"class.std::vector.110" = type { %"struct.std::_Vector_base.111" }
%"struct.std::_Vector_base.111" = type { %"struct.std::_Vector_base<boost::shared_ptr<boost::detail::shared_state_base>, std::allocator<boost::shared_ptr<boost::detail::shared_state_base> > >::_Vector_impl" }
%"struct.std::_Vector_base<boost::shared_ptr<boost::detail::shared_state_base>, std::allocator<boost::shared_ptr<boost::detail::shared_state_base> > >::_Vector_impl" = type { %"class.boost::shared_ptr.115"*, %"class.boost::shared_ptr.115"*, %"class.boost::shared_ptr.115"* }
%"class.boost::shared_ptr.115" = type { %"struct.boost::detail::shared_state_base"*, %"class.boost::detail::shared_count" }
%"struct.boost::detail::shared_state_base" = type opaque
%"class.boost::detail::shared_count" = type { %"class.boost::detail::sp_counted_base"* }
%"class.boost::posix_time::time_duration" = type { %"class.boost::date_time::time_duration" }
%"class.boost::date_time::time_duration" = type { %"class.boost::date_time::int_adapter" }
%"class.boost::_bi::bind_t" = type { void (%"class.cv::_InputArray"*, %"class.cv::_OutputArray"*)*, %"class.boost::_bi::list2" }
%"class.boost::_bi::list2" = type { %"struct.boost::_bi::storage2" }
%"struct.boost::_bi::storage2" = type { %"struct.boost::_bi::storage1", %"class.boost::reference_wrapper.116" }
%"struct.boost::_bi::storage1" = type { %"class.boost::reference_wrapper" }
%"class.boost::reference_wrapper" = type { %"class.cv::Mat"* }
%"class.boost::reference_wrapper.116" = type { %"class.cv::Mat"* }
%"class.boost::thread::id" = type { i64 }
%"class.boost::thread_resource_error" = type { %"class.boost::thread_exception" }
%"class.boost::thread_exception" = type { %"class.boost::system::system_error" }
%"class.boost::_bi::bind_t.329" = type { i32 (%"class.cv::_InputArray"*, %"class.cv::_OutputArray"*, %"class.cv::Size_"*, i32, i1, i32, i32, i1)*, %"class.boost::_bi::list8" }
%"class.boost::_bi::list8" = type { %"struct.boost::_bi::storage8.base", [3 x i8] }
%"struct.boost::_bi::storage8.base" = type <{ %"struct.boost::_bi::storage7.base", %"class.boost::_bi::value" }>
%"struct.boost::_bi::storage7.base" = type { %"struct.boost::_bi::storage6", %"class.boost::_bi::value.331" }
%"struct.boost::_bi::storage6" = type { %"struct.boost::_bi::storage5.base", %"class.boost::_bi::value.331" }
%"struct.boost::_bi::storage5.base" = type <{ %"struct.boost::_bi::storage4", %"class.boost::_bi::value" }>
%"struct.boost::_bi::storage4" = type { %"struct.boost::_bi::storage3", %"class.boost::reference_wrapper.119" }
%"struct.boost::_bi::storage3" = type { %"struct.boost::_bi::storage2.330", %"class.boost::reference_wrapper.118" }
%"struct.boost::_bi::storage2.330" = type { %"struct.boost::_bi::storage1", %"class.boost::reference_wrapper.117" }
%"class.boost::reference_wrapper.117" = type { %"class.std::vector.78"* }
%"class.boost::reference_wrapper.118" = type { %"class.cv::Size_"* }
%"class.boost::reference_wrapper.119" = type { i32* }
%"class.boost::_bi::value.331" = type { i32 }
%"class.boost::_bi::value" = type { i8 }
%"class.boost::_bi::bind_t.337" = type { %"class.boost::_mfi::mf7", %"class.boost::_bi::list8.338" }
%"class.boost::_mfi::mf7" = type { { i64, i64 } }
%"class.boost::_bi::list8.338" = type { %"struct.boost::_bi::storage8.339" }
%"struct.boost::_bi::storage8.339" = type { %"struct.boost::_bi::storage7.340", %"class.boost::reference_wrapper.122" }
%"struct.boost::_bi::storage7.340" = type { %"struct.boost::_bi::storage6.341", %"class.boost::_bi::value.348" }
%"struct.boost::_bi::storage6.341" = type { %"struct.boost::_bi::storage5.342", %"class.boost::_bi::value.348" }
%"struct.boost::_bi::storage5.342" = type { %"struct.boost::_bi::storage4.343", %"class.boost::reference_wrapper.121" }
%"struct.boost::_bi::storage4.343" = type { %"struct.boost::_bi::storage3.344", %"class.boost::reference_wrapper.121" }
%"struct.boost::_bi::storage3.344" = type { %"struct.boost::_bi::storage2.345", %"class.boost::reference_wrapper.120" }
%"struct.boost::_bi::storage2.345" = type { %"struct.boost::_bi::storage1.346", %"class.boost::reference_wrapper.120" }
%"struct.boost::_bi::storage1.346" = type { %"class.boost::_bi::value.347" }
%"class.boost::_bi::value.347" = type { %"class.ov_core::TrackKLT"* }
%"class.boost::reference_wrapper.120" = type { %"class.std::vector.78"* }
%"class.boost::reference_wrapper.121" = type { %"class.std::vector.83"* }
%"class.boost::_bi::value.348" = type { i64 }
%"class.boost::reference_wrapper.122" = type { %"class.std::vector.93"* }
%"class.Eigen::DenseBase.131" = type { i8 }
%"struct.Eigen::EigenBase" = type { i8 }
%"class.std::vector.266" = type { %"struct.std::_Vector_base.267" }
%"struct.std::_Vector_base.267" = type { %"struct.std::_Vector_base<std::vector<cv::KeyPoint, std::allocator<cv::KeyPoint> >, std::allocator<std::vector<cv::KeyPoint, std::allocator<cv::KeyPoint> > > >::_Vector_impl" }
%"struct.std::_Vector_base<std::vector<cv::KeyPoint, std::allocator<cv::KeyPoint> >, std::allocator<std::vector<cv::KeyPoint, std::allocator<cv::KeyPoint> > > >::_Vector_impl" = type { %"class.std::vector.83"*, %"class.std::vector.83"*, %"class.std::vector.83"* }
%"class.std::allocator.268" = type { i8 }
%"class.cv::Range" = type { i32, i32 }
%"class.std::function" = type { %"class.std::_Function_base", void (%"union.std::_Any_data"*, %"class.cv::Range"*)* }
%"class.std::_Function_base" = type { %"union.std::_Any_data", i1 (%"union.std::_Any_data"*, %"union.std::_Any_data"*, i32)* }
%"union.std::_Any_data" = type { %"union.std::_Nocopy_types" }
%"union.std::_Nocopy_types" = type { { i64, i64 } }
%class.anon = type { i32*, i32*, i32*, %"class.cv::Mat"*, i32*, i8*, i32*, %"class.std::vector.266"* }
%"class.__gnu_cxx::new_allocator.269" = type { i8 }
%"class.std::allocator.140" = type { i8 }
%"class.__gnu_cxx::__normal_iterator.359" = type { %"class.cv::Point_"* }
%"class.std::allocator.145" = type { i8 }
%"struct.std::_Rb_tree_iterator.274" = type { %"struct.std::_Rb_tree_node_base"* }
%"struct.std::pair.275" = type { i64, %"class.cv::Matx" }
%"struct.std::_Rb_tree_iterator" = type { %"struct.std::_Rb_tree_node_base"* }
%"struct.std::pair.149" = type { i64, %"class.cv::Vec" }
%"struct.std::_Rb_tree_iterator.150" = type { %"struct.std::_Rb_tree_node_base"* }
%"struct.std::pair.151" = type <{ i64, i8, [7 x i8] }>
%"struct.std::_Rb_tree_node" = type { %"struct.std::_Rb_tree_node_base", %"struct.__gnu_cxx::__aligned_membuf" }
%"struct.__gnu_cxx::__aligned_membuf" = type { [40 x i8] }
%"struct.std::_Select1st" = type { i8 }
%"struct.std::_Rb_tree_node.152" = type { %"struct.std::_Rb_tree_node_base", %"struct.__gnu_cxx::__aligned_membuf.153" }
%"struct.__gnu_cxx::__aligned_membuf.153" = type { [16 x i8] }
%"struct.std::_Select1st.154" = type { i8 }
%"struct.std::__detail::_Map_base" = type { i8 }
%"struct.std::__detail::_Map_base.161" = type { i8 }
%"class.std::allocator.197" = type { i8 }
%"struct.std::__detail::_Map_base.175" = type { i8 }
%"class.std::allocator.223" = type { i8 }
%"struct.std::__detail::_Insert_base" = type { i8 }
%"struct.std::__detail::_Hash_code_base" = type { i8 }
%"struct.std::hash" = type { i8 }
%"struct.std::__detail::_Hashtable_ebo_helper.17" = type { i8 }
%"struct.std::__detail::_Mod_range_hashing" = type { i8 }
%"struct.std::__detail::_Hashtable_ebo_helper.18" = type { i8 }
%"struct.std::__detail::_Hashtable_base" = type { i8 }
%"struct.std::equal_to" = type { i8 }
%"struct.std::__detail::_Select1st" = type { i8 }
%"struct.std::__detail::_Hashtable_ebo_helper.19" = type { i8 }
%"struct.std::__detail::_Hashtable_ebo_helper" = type { i8 }
%"struct.std::__detail::_Hashtable_alloc" = type { i8 }
%"class.std::allocator.230" = type { i8 }
%"class.std::allocator.21" = type { i8 }
%"class.__gnu_cxx::new_allocator.231" = type { i8 }
%"class.__gnu_cxx::new_allocator.22" = type { i8 }
%"struct.std::__detail::_Hashtable_ebo_helper.20" = type { i8 }
%"class.std::allocator.235" = type { i8 }
%"class.__gnu_cxx::new_allocator.236" = type { i8 }
%"struct.std::__detail::_Node_iterator.243" = type { %"struct.std::__detail::_Node_iterator_base.244" }
%"struct.std::__detail::_Node_iterator_base.244" = type { %"struct.std::__detail::_Hash_node.238"* }
%"struct.std::__detail::_Hash_node.238" = type { %"struct.std::__detail::_Hash_node_value_base.239" }
%"struct.std::__detail::_Hash_node_value_base.239" = type { %"struct.std::__detail::_Hash_node_base", %"struct.__gnu_cxx::__aligned_buffer.240" }
%"struct.__gnu_cxx::__aligned_buffer.240" = type { %"union.std::aligned_storage<32, 8>::type" }
%"union.std::aligned_storage<32, 8>::type" = type { [32 x i8] }
%"struct.std::__detail::_Hash_code_base.160" = type { i8 }
%"struct.std::__detail::_Hashtable_alloc.166" = type { i8 }
%"struct.std::pair.245" = type { i64, %"class.std::vector.195" }
%"class.std::allocator.246" = type { i8 }
%"class.std::allocator.168" = type { i8 }
%"class.__gnu_cxx::new_allocator.247" = type { i8 }
%"struct.std::__detail::_Hashtable_base.159" = type { i8 }
%"class.__gnu_cxx::new_allocator.169" = type { i8 }
%"struct.std::__detail::_Hashtable_ebo_helper.167" = type { i8 }
%"class.__gnu_cxx::new_allocator.198" = type { i8 }
%"class.Eigen::DenseBase.213" = type { i8 }
%"class.Eigen::MatrixBase.202" = type { i8 }
%"class.Eigen::DenseBase.203" = type { i8 }
%"struct.Eigen::internal::assign_op" = type { i8 }
%"struct.Eigen::EigenBase.208" = type { i8 }
%"struct.Eigen::EigenBase.218" = type { i8 }
%"struct.Eigen::internal::evaluator" = type { %"struct.Eigen::internal::evaluator.base", [7 x i8] }
%"struct.Eigen::internal::evaluator.base" = type <{ float*, %"class.Eigen::internal::variable_if_dynamic.250" }>
%"class.Eigen::internal::variable_if_dynamic.250" = type { i8 }
%"struct.Eigen::internal::evaluator.252" = type { %"struct.Eigen::internal::evaluator.base.255", [7 x i8] }
%"struct.Eigen::internal::evaluator.base.255" = type <{ float*, %"class.Eigen::internal::variable_if_dynamic.250" }>
%"class.Eigen::internal::generic_dense_assignment_kernel" = type { %"struct.Eigen::internal::evaluator"*, %"struct.Eigen::internal::evaluator.252"*, %"struct.Eigen::internal::assign_op"*, %"class.Eigen::Matrix.200"* }
%"class.Eigen::internal::noncopyable" = type { i8 }
%"struct.Eigen::internal::evaluator.249" = type <{ float*, %"class.Eigen::internal::variable_if_dynamic.250", [7 x i8] }>
%"struct.Eigen::internal::evaluator.253" = type <{ float*, %"class.Eigen::internal::variable_if_dynamic.250", [7 x i8] }>
%"struct.Eigen::internal::evaluator_base" = type { i8 }
%"struct.Eigen::internal::evaluator_base.254" = type { i8 }
%"class.Eigen::MatrixBase.212" = type { i8 }
%"struct.std::__detail::_Node_iterator.260" = type { %"struct.std::__detail::_Node_iterator_base.261" }
%"struct.std::__detail::_Node_iterator_base.261" = type { %"struct.std::__detail::_Hash_node.257"* }
%"struct.std::__detail::_Hash_node.257" = type { %"struct.std::__detail::_Hash_node_value_base.258" }
%"struct.std::__detail::_Hash_node_value_base.258" = type { %"struct.std::__detail::_Hash_node_base", %"struct.__gnu_cxx::__aligned_buffer.259" }
%"struct.__gnu_cxx::__aligned_buffer.259" = type { %"union.std::aligned_storage<32, 8>::type" }
%"struct.std::__detail::_Hash_code_base.174" = type { i8 }
%"struct.std::__detail::_Hashtable_alloc.180" = type { i8 }
%"struct.std::pair.262" = type { i64, %"class.std::vector.221" }
%"class.std::allocator.263" = type { i8 }
%"class.std::allocator.182" = type { i8 }
%"class.__gnu_cxx::new_allocator.264" = type { i8 }
%"struct.std::__detail::_Hashtable_base.173" = type { i8 }
%"class.__gnu_cxx::new_allocator.183" = type { i8 }
%"struct.std::__detail::_Hashtable_ebo_helper.181" = type { i8 }
%"class.__gnu_cxx::new_allocator.224" = type { i8 }
%"class.std::move_iterator" = type { double* }
%"class.Eigen::MatrixBase.187" = type { i8 }
%"class.Eigen::DenseBase.188" = type { i8 }
%"struct.std::__detail::_AllocNode" = type { %"struct.std::__detail::_Hashtable_alloc"* }
%"struct.std::pair.226" = type <{ %"struct.std::__detail::_Node_iterator", i8, [7 x i8] }>
%"class.__gnu_cxx::new_allocator" = type { i8 }
%"class.cv::ParallelLoopBodyLambdaWrapper" = type { %"class.cv::ParallelLoopBody", %"class.std::function" }
%"class.cv::ParallelLoopBody" = type { i32 (...)** }
%"class.std::type_info" = type { i32 (...)**, i8* }
%"class.cv::Rect_" = type { i32, i32, i32, i32 }
%"struct.__gnu_cxx::__ops::_Iter_comp_iter" = type { i1 (%"class.cv::KeyPoint"*, %"class.cv::KeyPoint"*)* }
%"struct.__gnu_cxx::__ops::_Iter_comp_val" = type { i1 (%"class.cv::KeyPoint"*, %"class.cv::KeyPoint"*)* }
%"struct.__gnu_cxx::__ops::_Val_comp_iter" = type { i1 (%"class.cv::KeyPoint"*, %"class.cv::KeyPoint"*)* }
%"class.std::move_iterator.273" = type { %"class.cv::KeyPoint"* }
%"class.__gnu_cxx::new_allocator.96" = type { i8 }
%"class.__gnu_cxx::new_allocator.91" = type { i8 }
%"class.__gnu_cxx::new_allocator.146" = type { i8 }
%"struct.std::_Rb_tree_node.276" = type { %"struct.std::_Rb_tree_node_base", %"struct.__gnu_cxx::__aligned_membuf.277" }
%"struct.__gnu_cxx::__aligned_membuf.277" = type { [80 x i8] }
%"struct.std::_Select1st.278" = type { i8 }
%struct.tm = type { i32, i32, i32, i32, i32, i32, i32, i32, i32, i64, i8* }
%struct.timeval = type { i64, i64 }
%"class.boost::gregorian::date" = type { %"class.boost::date_time::date" }
%"class.boost::date_time::date" = type { i32 }
%"class.boost::gregorian::greg_year" = type { %"class.boost::CV::constrained_value" }
%"class.boost::CV::constrained_value" = type { i16 }
%"class.boost::gregorian::greg_month" = type { %"class.boost::CV::constrained_value.285" }
%"class.boost::CV::constrained_value.285" = type { i16 }
%"class.boost::gregorian::greg_day" = type { %"class.boost::CV::constrained_value.286" }
%"class.boost::CV::constrained_value.286" = type { i16 }
%struct.timezone = type { i32, i32 }
%"struct.boost::gregorian::bad_day_of_month" = type { %"class.std::out_of_range" }
%"class.std::out_of_range" = type { %"class.std::logic_error" }
%"class.std::logic_error" = type { %"class.std::exception", %"struct.std::__cow_string" }
%"struct.boost::gregorian::bad_year" = type { %"class.std::out_of_range" }
%"struct.boost::gregorian::bad_month" = type { %"class.std::out_of_range" }
%"struct.boost::date_time::year_month_day_base" = type { %"class.boost::gregorian::greg_year", %"class.boost::gregorian::greg_month", %"class.boost::gregorian::greg_day" }
%"class.boost::date_time::int_adapter.287" = type { i32 }
%"class.__gnu_cxx::new_allocator.81" = type { i8 }
%"struct.std::__detail::_Node_iterator.291" = type { %"struct.std::__detail::_Node_iterator_base.292" }
%"struct.std::__detail::_Node_iterator_base.292" = type { %"struct.std::__detail::_Hash_node.288"* }
%"struct.std::__detail::_Hash_node.288" = type { %"struct.std::__detail::_Hash_node_value_base.289" }
%"struct.std::__detail::_Hash_node_value_base.289" = type { %"struct.std::__detail::_Hash_node_base", %"struct.__gnu_cxx::__aligned_buffer.290" }
%"struct.__gnu_cxx::__aligned_buffer.290" = type { %"union.std::aligned_storage<32, 8>::type" }
%"struct.std::__detail::_Hash_code_base.48" = type { i8 }
%"struct.std::__detail::_Hashtable_alloc.54" = type { i8 }
%"struct.std::pair.293" = type { i64, %"class.std::vector.83" }
%"class.std::allocator.294" = type { i8 }
%"class.std::allocator.56" = type { i8 }
%"class.__gnu_cxx::new_allocator.295" = type { i8 }
%"struct.std::__detail::_Hashtable_base.47" = type { i8 }
%"class.__gnu_cxx::new_allocator.57" = type { i8 }
%"struct.std::__detail::_Hashtable_ebo_helper.55" = type { i8 }
%"struct.std::__detail::_Node_iterator.300" = type { %"struct.std::__detail::_Node_iterator_base.301" }
%"struct.std::__detail::_Node_iterator_base.301" = type { %"struct.std::__detail::_Hash_node.297"* }
%"struct.std::__detail::_Hash_node.297" = type { %"struct.std::__detail::_Hash_node_value_base.298" }
%"struct.std::__detail::_Hash_node_value_base.298" = type { %"struct.std::__detail::_Hash_node_base", %"struct.__gnu_cxx::__aligned_buffer.299" }
%"struct.__gnu_cxx::__aligned_buffer.299" = type { %"union.std::aligned_storage<32, 8>::type" }
%"struct.std::__detail::_Hash_code_base.62" = type { i8 }
%"struct.std::__detail::_Hashtable_alloc.68" = type { i8 }
%"struct.std::pair.302" = type { i64, %"class.std::vector.88" }
%"class.std::allocator.303" = type { i8 }
%"class.std::allocator.70" = type { i8 }
%"class.__gnu_cxx::new_allocator.304" = type { i8 }
%"struct.std::__detail::_Hashtable_base.61" = type { i8 }
%"class.__gnu_cxx::new_allocator.71" = type { i8 }
%"struct.std::__detail::_Hashtable_ebo_helper.69" = type { i8 }
%"struct.std::_Rb_tree_node.308" = type { %"struct.std::_Rb_tree_node_base", %"struct.__gnu_cxx::__aligned_membuf.309" }
%"struct.__gnu_cxx::__aligned_membuf.309" = type { [104 x i8] }
%"struct.std::_Select1st.310" = type { i8 }
%"struct.std::pair.312" = type { %"struct.std::_Rb_tree_node_base"*, %"struct.std::_Rb_tree_node_base"* }
%"class.std::allocator.42" = type { i8 }
%"class.__gnu_cxx::new_allocator.43" = type { i8 }
%"struct.std::_Rb_tree_node.316" = type { %"struct.std::_Rb_tree_node_base", %"struct.__gnu_cxx::__aligned_membuf.317" }
%"struct.__gnu_cxx::__aligned_membuf.317" = type { [32 x i8] }
%"struct.std::_Select1st.318" = type { i8 }
%"class.std::allocator.75" = type { i8 }
%"class.__gnu_cxx::new_allocator.76" = type { i8 }
%"class.__gnu_cxx::__normal_iterator.320" = type { %"class.cv::Mat"* }
%"class.__gnu_cxx::__normal_iterator.321" = type { %"class.cv::Mat"* }
%"class.std::move_iterator.323" = type { i64* }
%"class.boost::detail::thread_data" = type { %"struct.boost::detail::thread_data_base.base", %"class.boost::_bi::bind_t" }
%"struct.boost::detail::thread_data_base.base" = type <{ i32 (...)**, %"class.boost::enable_shared_from_this", %"class.boost::shared_ptr", i64, %"class.boost::mutex", %"class.boost::condition_variable", %"class.boost::mutex", %"class.boost::condition_variable", i8, i8, i8, [5 x i8], %"struct.boost::detail::thread_exit_callback_node"*, %"class.std::map.98", %union.pthread_mutex_t*, %union.pthread_cond_t*, %"class.std::vector.105", %"class.std::vector.110", i8, i8 }>
%union.pthread_mutexattr_t = type { i32 }
%union.pthread_condattr_t = type { i32 }
%"class.std::allocator.100" = type { i8 }
%"class.__gnu_cxx::new_allocator.101" = type { i8 }
%"class.std::allocator.107" = type { i8 }
%"class.__gnu_cxx::new_allocator.108" = type { i8 }
%"class.std::allocator.112" = type { i8 }
%"class.__gnu_cxx::new_allocator.113" = type { i8 }
%"class.boost::_bi::list0" = type { i8 }
%"class.std::move_iterator.325" = type { %"struct.std::pair"* }
%"class.boost::detail::sp_counted_impl_p" = type { %"class.boost::detail::sp_counted_base", %"class.boost::detail::thread_data"* }
%"class.boost::detail::thread_data.332" = type { %"struct.boost::detail::thread_data_base.base", %"class.boost::_bi::bind_t.329" }
%"class.boost::detail::sp_counted_impl_p.333" = type { %"class.boost::detail::sp_counted_base", %"class.boost::detail::thread_data.332"* }
%"struct.boost::_bi::storage8" = type <{ %"struct.boost::_bi::storage7.base", %"class.boost::_bi::value", [3 x i8] }>
%"struct.boost::_bi::storage7" = type { %"struct.boost::_bi::storage6", %"class.boost::_bi::value.331", [4 x i8] }
%"struct.boost::_bi::storage5" = type <{ %"struct.boost::_bi::storage4", %"class.boost::_bi::value", [7 x i8] }>
%"class.boost::detail::thread_data.349" = type { %"struct.boost::detail::thread_data_base.base", %"class.boost::_bi::bind_t.337" }
%"class.boost::detail::sp_counted_impl_p.350" = type { %"class.boost::detail::sp_counted_base", %"class.boost::detail::thread_data.349"* }
%"struct.__gnu_cxx::__ops::_Iter_equals_val" = type { i64* }
%"class.Eigen::MatrixBase.130" = type { i8 }
%"class.Eigen::MatrixBase" = type { i8 }
%"class.Eigen::DenseBase" = type { i8 }
%"struct.Eigen::internal::assign_op.351" = type { i8 }
%"struct.Eigen::internal::evaluator.353" = type { %"struct.Eigen::internal::evaluator.354" }
%"struct.Eigen::internal::evaluator.354" = type { i32*, %"class.Eigen::internal::variable_if_dynamic" }
%"struct.Eigen::internal::evaluator.356" = type { %"struct.Eigen::internal::scalar_constant_op" }
%"class.Eigen::internal::generic_dense_assignment_kernel.358" = type { %"struct.Eigen::internal::evaluator.353"*, %"struct.Eigen::internal::evaluator.356"*, %"struct.Eigen::internal::assign_op.351"*, %"class.Eigen::Matrix"* }
%"struct.Eigen::internal::evaluator_base.357" = type { i8 }
%"struct.Eigen::internal::evaluator_base.355" = type { i8 }
%"class.Eigen::DenseCoeffsBase" = type { i8 }
%"class.__gnu_cxx::new_allocator.141" = type { i8 }
%"class.__gnu_cxx::__normal_iterator.360" = type { %"class.cv::Point_"* }
%"class.std::move_iterator.361" = type { i8* }

$_ZNK5boost6system12system_error4whatEv = comdat any

$_ZNK5boost6system10error_code7messageB5cxx11Ev = comdat any

$_ZN5boost3argILi1EEC2Ev = comdat any

$_ZN5boost3argILi2EEC2Ev = comdat any

$_ZN5boost3argILi3EEC2Ev = comdat any

$_ZN5boost3argILi4EEC2Ev = comdat any

$_ZN5boost3argILi5EEC2Ev = comdat any

$_ZN5boost3argILi6EEC2Ev = comdat any

$_ZN5boost3argILi7EEC2Ev = comdat any

$_ZN5boost3argILi8EEC2Ev = comdat any

$_ZN5boost3argILi9EEC2Ev = comdat any

$_ZN5boost9date_time14microsec_clockINS_10posix_time5ptimeEE10local_timeEv = comdat any

$_ZNSt6vectorISt5mutexSaIS0_EE2atEm = comdat any

$_ZNSt11unique_lockISt5mutexEC2ERS0_ = comdat any

$_ZN2cv11_InputArrayC2ERKNS_3MatE = comdat any

$_ZN2cv12_OutputArrayC2ERNS_3MatE = comdat any

$_ZN2cv11_InputArrayD2Ev = comdat any

$_ZNSt6vectorIN2cv3MatESaIS1_EEC2Ev = comdat any

$_ZN2cv12_OutputArrayC2ERSt6vectorINS_3MatESaIS2_EE = comdat any

$_ZN2cv5Size_IiEC2ERKS1_ = comdat any

$_ZNSt13unordered_mapImSt6vectorIN2cv8KeyPointESaIS2_EESt4hashImESt8equal_toImESaISt4pairIKmS4_EEEixERSA_ = comdat any

$_ZNKSt6vectorIN2cv8KeyPointESaIS1_EE5emptyEv = comdat any

$_ZNSt13unordered_mapImSt6vectorImSaImEESt4hashImESt8equal_toImESaISt4pairIKmS2_EEEixERS8_ = comdat any

$_ZNK2cv3Mat5cloneEv = comdat any

$_ZNSt3mapImN2cv3MatESt4lessImESaISt4pairIKmS1_EEEixERS5_ = comdat any

$_ZN2cv3MataSEOS0_ = comdat any

$_ZN2cv3MatD2Ev = comdat any

$_ZNSt3mapImSt6vectorIN2cv3MatESaIS2_EESt4lessImESaISt4pairIKmS4_EEEixERS8_ = comdat any

$_ZNSt6vectorIN2cv3MatESaIS1_EEaSERKS3_ = comdat any

$_ZNSt6vectorIhSaIhEEC2Ev = comdat any

$_ZNSt6vectorIN2cv8KeyPointESaIS1_EEC2ERKS3_ = comdat any

$_ZNKSt6vectorIhSaIhEE5emptyEv = comdat any

$_ZNSt6vectorIN2cv8KeyPointESaIS1_EE5clearEv = comdat any

$_ZNSt6vectorImSaImEE5clearEv = comdat any

$_ZNSt6vectorIN2cv8KeyPointESaIS1_EEC2Ev = comdat any

$_ZNSt6vectorImSaImEEC2Ev = comdat any

$_ZNKSt6vectorIN2cv8KeyPointESaIS1_EE4sizeEv = comdat any

$_ZNSt6vectorIN2cv8KeyPointESaIS1_EEixEm = comdat any

$_ZNSt6vectorIhSaIhEEixEm = comdat any

$_ZNSt6vectorIN2cv8KeyPointESaIS1_EE9push_backERKS1_ = comdat any

$_ZNSt6vectorImSaImEE9push_backERKm = comdat any

$_ZNSt6vectorImSaImEEixEm = comdat any

$_ZN7ov_core9TrackBase15undistort_pointEN2cv6Point_IfEEm = comdat any

$_ZNSt6vectorIN2cv8KeyPointESaIS1_EE2atEm = comdat any

$_ZN2cv6Point_IfEC2ERKS1_ = comdat any

$_ZN7ov_core15FeatureDatabase14update_featureEmdmffff = comdat any

$_ZNSt6vectorImSaImEE2atEm = comdat any

$_ZNSt6vectorIN2cv8KeyPointESaIS1_EEaSERKS3_ = comdat any

$_ZNSt6vectorImSaImEEaSERKS1_ = comdat any

$_ZNSt6vectorImSaImEED2Ev = comdat any

$_ZNSt6vectorIN2cv8KeyPointESaIS1_EED2Ev = comdat any

$_ZNSt6vectorIhSaIhEED2Ev = comdat any

$_ZNSt6vectorIN2cv3MatESaIS1_EED2Ev = comdat any

$_ZNSt11unique_lockISt5mutexED2Ev = comdat any

$_ZN2cv3MatC2Ev = comdat any

$_ZN5boost6threadC2IPFvRKN2cv11_InputArrayERKNS2_12_OutputArrayEENS_17reference_wrapperIKNS2_3MatEEENSB_ISC_EEEET_T0_T1_ = comdat any

$_ZN5boost6thread4joinEv = comdat any

$_ZN5boost6threadC2IPFiRKN2cv11_InputArrayERKNS2_12_OutputArrayENS2_5Size_IiEEibiibENS_17reference_wrapperIKNS2_3MatEEENSD_ISt6vectorISE_SaISE_EEEENSD_ISA_EENSD_IiEEbNS2_11BorderTypesESN_bEET_T0_T1_T2_T3_T4_T5_T6_T7_ = comdat any

$_ZN5boost6threadC2IMN7ov_core8TrackKLTEFvRKSt6vectorIN2cv3MatESaIS6_EESA_RS4_INS5_8KeyPointESaISB_EESE_mmRS4_IhSaIhEEEPS3_NS_17reference_wrapperIS9_EESM_NSL_ISD_EESN_mmNSL_ISG_EEEET_T0_T1_T2_T3_T4_T5_T6_T7_ = comdat any

$_ZNKSt6vectorImSaImEE4sizeEv = comdat any

$_ZN9__gnu_cxxneIPmSt6vectorImSaImEEEEbRKNS_17__normal_iteratorIT_T0_EESA_ = comdat any

$_ZSt4findIN9__gnu_cxx17__normal_iteratorIPmSt6vectorImSaImEEEEmET_S7_S7_RKT0_ = comdat any

$_ZNSt6vectorImSaImEE5beginEv = comdat any

$_ZNSt6vectorImSaImEE3endEv = comdat any

$_ZNK5boost9date_time9base_timeINS_10posix_time5ptimeENS0_19counted_time_systemINS0_16counted_time_repINS2_33millisec_posix_time_system_configEEEEEEmiERKS3_ = comdat any

$_ZNK5boost9date_time13time_durationINS_10posix_time13time_durationENS0_22time_resolution_traitsINS0_37time_resolution_traits_adapted64_implELNS0_16time_resolutionsE5ELl1000000ELt6EiEEE18total_microsecondsEv = comdat any

$_ZN5boost6threadD2Ev = comdat any

$_ZN5Eigen9DenseBaseINS_6MatrixIiLin1ELin1ELi0ELin1ELin1EEEE4ZeroEll = comdat any

$_ZNKSt6vectorIN2cv3MatESaIS1_EE2atEm = comdat any

$_ZN5Eigen6MatrixIiLin1ELin1ELi0ELin1ELin1EEC2INS_14CwiseNullaryOpINS_8internal18scalar_constant_opIiEES1_EEEERKNS_9EigenBaseIT_EE = comdat any

$_ZNSt6vectorIN2cv8KeyPointESaIS1_EE5beginEv = comdat any

$_ZN9__gnu_cxxneIPN2cv8KeyPointESt6vectorIS2_SaIS2_EEEEbRKNS_17__normal_iteratorIT_T0_EESC_ = comdat any

$_ZNSt6vectorIN2cv8KeyPointESaIS1_EE3endEv = comdat any

$_ZNK9__gnu_cxx17__normal_iteratorIPN2cv8KeyPointESt6vectorIS2_SaIS2_EEEdeEv = comdat any

$_ZN2cv8KeyPointC2ERKS0_ = comdat any

$_ZN5Eigen15DenseCoeffsBaseINS_6MatrixIiLin1ELin1ELi0ELin1ELin1EEELi1EEclEll = comdat any

$_ZNSt6vectorIN2cv8KeyPointESaIS1_EE5eraseEN9__gnu_cxx17__normal_iteratorIPKS1_S3_EE = comdat any

$_ZN9__gnu_cxx17__normal_iteratorIPKN2cv8KeyPointESt6vectorIS2_SaIS2_EEEC2IPS2_EERKNS0_IT_NS_11__enable_ifIXsr3std10__are_sameISB_SA_EE7__valueES7_E6__typeEEE = comdat any

$_ZNSt6vectorImSaImEE5eraseEN9__gnu_cxx17__normal_iteratorIPKmS1_EE = comdat any

$_ZN9__gnu_cxx17__normal_iteratorIPKmSt6vectorImSaImEEEC2IPmEERKNS0_IT_NS_11__enable_ifIXsr3std10__are_sameIS9_S8_EE7__valueES5_E6__typeEEE = comdat any

$_ZN9__gnu_cxx17__normal_iteratorIPN2cv8KeyPointESt6vectorIS2_SaIS2_EEEppEi = comdat any

$_ZN9__gnu_cxx17__normal_iteratorIPmSt6vectorImSaImEEEppEi = comdat any

$_ZN7ov_core11Grider_FAST15perform_gridingERKN2cv3MatERSt6vectorINS1_8KeyPointESaIS6_EEiiiib = comdat any

$_ZNSt6vectorIN2cv6Point_IfEESaIS2_EEC2Ev = comdat any

$_ZNSt6vectorIN2cv6Point_IfEESaIS2_EE9push_backERKS2_ = comdat any

$_ZN9__gnu_cxx17__normal_iteratorIPN2cv8KeyPointESt6vectorIS2_SaIS2_EEEppEv = comdat any

$_ZNKSt6vectorIN2cv6Point_IfEESaIS2_EE4sizeEv = comdat any

$_ZNSt6vectorIN2cv6Point_IfEESaIS2_EE2atEm = comdat any

$_ZN2cv6Point_IfEaSERKS1_ = comdat any

$_ZNSt13__atomic_baseImEppEv = comdat any

$_ZNSt6vectorIN2cv6Point_IfEESaIS2_EED2Ev = comdat any

$_ZN5Eigen15PlainObjectBaseINS_6MatrixIiLin1ELin1ELi0ELin1ELin1EEEED2Ev = comdat any

$_ZNSt6vectorIN2cv6Point_IfEESaIS2_EEaSERKS4_ = comdat any

$_ZNKSt6vectorIN2cv6Point_IfEESaIS2_EE5emptyEv = comdat any

$_ZNSt6vectorIfSaIfEEC2Ev = comdat any

$_ZN2cv12TermCriteriaC2Eiid = comdat any

$_ZN2cv11_InputArrayC2ERKSt6vectorINS_3MatESaIS2_EE = comdat any

$_ZN2cv11_InputArrayC2INS_6Point_IfEEEERKSt6vectorIT_SaIS5_EE = comdat any

$_ZN2cv17_InputOutputArrayC2INS_6Point_IfEEEERSt6vectorIT_SaIS5_EE = comdat any

$_ZN2cv12_OutputArrayC2IhEERSt6vectorIT_SaIS3_EE = comdat any

$_ZN2cv12_OutputArrayC2IfEERSt6vectorIT_SaIS3_EE = comdat any

$_ZNSt6vectorIfSaIfEED2Ev = comdat any

$_ZNSt6vectorIhSaIhEE9push_backEOh = comdat any

$_ZNSt6vectorIN2cv6Point_IfEESaIS2_EE9push_backEOS2_ = comdat any

$_ZSt3maxIdERKT_S2_S2_ = comdat any

$_ZNSt3mapImN2cv4MatxIdLi3ELi3EEESt4lessImESaISt4pairIKmS2_EEE2atERS6_ = comdat any

$_ZN2cv4MatxIdLi3ELi3EEclEii = comdat any

$_ZNKSt6vectorIhSaIhEE4sizeEv = comdat any

$_ZNSt6vectorIhSaIhEE9push_backERKh = comdat any

$_ZN5boost6system12system_errorD0Ev = comdat any

$_ZNK5boost6system10error_code5valueEv = comdat any

$_ZN2cv5Size_IiEC2Ev = comdat any

$_ZN2cv11_InputArray4initEiPKv = comdat any

$_ZN2cv11_InputArrayC2Ev = comdat any

$_ZN2cv3Mat7releaseEv = comdat any

$_ZN2cv7MatStepixEi = comdat any

$_ZNSt3mapImN2cv3VecIdLi4EEESt4lessImESaISt4pairIKmS2_EEE2atERS6_ = comdat any

$_ZN2cv3VecIdLi4EEC2ERKS1_ = comdat any

$_ZNSt3mapImbSt4lessImESaISt4pairIKmbEEE2atERS3_ = comdat any

$_ZN7ov_core9TrackBase23undistort_point_fisheyeEN2cv6Point_IfEERNS1_4MatxIdLi3ELi3EEERNS1_3VecIdLi4EEE = comdat any

$_ZN7ov_core9TrackBase21undistort_point_brownEN2cv6Point_IfEERNS1_4MatxIdLi3ELi3EEERNS1_3VecIdLi4EEE = comdat any

$_ZNSt3mapImN2cv3VecIdLi4EEESt4lessImESaISt4pairIKmS2_EEE11lower_boundERS6_ = comdat any

$_ZNKSt17_Rb_tree_iteratorISt4pairIKmN2cv3VecIdLi4EEEEEeqERKS6_ = comdat any

$_ZNSt3mapImN2cv3VecIdLi4EEESt4lessImESaISt4pairIKmS2_EEE3endEv = comdat any

$_ZNKSt3mapImN2cv3VecIdLi4EEESt4lessImESaISt4pairIKmS2_EEE8key_compEv = comdat any

$_ZNKSt4lessImEclERKmS2_ = comdat any

$_ZNKSt17_Rb_tree_iteratorISt4pairIKmN2cv3VecIdLi4EEEEEdeEv = comdat any

$_ZNSt8_Rb_treeImSt4pairIKmN2cv3VecIdLi4EEEESt10_Select1stIS5_ESt4lessImESaIS5_EE11lower_boundERS1_ = comdat any

$_ZNSt8_Rb_treeImSt4pairIKmN2cv3VecIdLi4EEEESt10_Select1stIS5_ESt4lessImESaIS5_EE14_M_lower_boundEPSt13_Rb_tree_nodeIS5_ESE_RS1_ = comdat any

$_ZNSt8_Rb_treeImSt4pairIKmN2cv3VecIdLi4EEEESt10_Select1stIS5_ESt4lessImESaIS5_EE8_M_beginEv = comdat any

$_ZNSt8_Rb_treeImSt4pairIKmN2cv3VecIdLi4EEEESt10_Select1stIS5_ESt4lessImESaIS5_EE6_M_endEv = comdat any

$_ZNSt8_Rb_treeImSt4pairIKmN2cv3VecIdLi4EEEESt10_Select1stIS5_ESt4lessImESaIS5_EE6_S_keyEPKSt13_Rb_tree_nodeIS5_E = comdat any

$_ZNSt8_Rb_treeImSt4pairIKmN2cv3VecIdLi4EEEESt10_Select1stIS5_ESt4lessImESaIS5_EE7_S_leftEPSt18_Rb_tree_node_base = comdat any

$_ZNSt8_Rb_treeImSt4pairIKmN2cv3VecIdLi4EEEESt10_Select1stIS5_ESt4lessImESaIS5_EE8_S_rightEPSt18_Rb_tree_node_base = comdat any

$_ZNSt17_Rb_tree_iteratorISt4pairIKmN2cv3VecIdLi4EEEEEC2EPSt18_Rb_tree_node_base = comdat any

$_ZNKSt10_Select1stISt4pairIKmN2cv3VecIdLi4EEEEEclERKS5_ = comdat any

$_ZNSt8_Rb_treeImSt4pairIKmN2cv3VecIdLi4EEEESt10_Select1stIS5_ESt4lessImESaIS5_EE8_S_valueEPKSt13_Rb_tree_nodeIS5_E = comdat any

$_ZNKSt13_Rb_tree_nodeISt4pairIKmN2cv3VecIdLi4EEEEE9_M_valptrEv = comdat any

$_ZNK9__gnu_cxx16__aligned_membufISt4pairIKmN2cv3VecIdLi4EEEEE6_M_ptrEv = comdat any

$_ZNK9__gnu_cxx16__aligned_membufISt4pairIKmN2cv3VecIdLi4EEEEE7_M_addrEv = comdat any

$_ZNSt8_Rb_treeImSt4pairIKmN2cv3VecIdLi4EEEESt10_Select1stIS5_ESt4lessImESaIS5_EE3endEv = comdat any

$_ZNKSt8_Rb_treeImSt4pairIKmN2cv3VecIdLi4EEEESt10_Select1stIS5_ESt4lessImESaIS5_EE8key_compEv = comdat any

$_ZNSt13_Rb_tree_nodeISt4pairIKmN2cv3VecIdLi4EEEEE9_M_valptrEv = comdat any

$_ZN9__gnu_cxx16__aligned_membufISt4pairIKmN2cv3VecIdLi4EEEEE6_M_ptrEv = comdat any

$_ZN9__gnu_cxx16__aligned_membufISt4pairIKmN2cv3VecIdLi4EEEEE7_M_addrEv = comdat any

$_ZN2cv4MatxIdLi4ELi1EEC2EPKd = comdat any

$_ZNSt3mapImbSt4lessImESaISt4pairIKmbEEE11lower_boundERS3_ = comdat any

$_ZNKSt17_Rb_tree_iteratorISt4pairIKmbEEeqERKS3_ = comdat any

$_ZNSt3mapImbSt4lessImESaISt4pairIKmbEEE3endEv = comdat any

$_ZNKSt3mapImbSt4lessImESaISt4pairIKmbEEE8key_compEv = comdat any

$_ZNKSt17_Rb_tree_iteratorISt4pairIKmbEEdeEv = comdat any

$_ZNSt8_Rb_treeImSt4pairIKmbESt10_Select1stIS2_ESt4lessImESaIS2_EE11lower_boundERS1_ = comdat any

$_ZNSt8_Rb_treeImSt4pairIKmbESt10_Select1stIS2_ESt4lessImESaIS2_EE14_M_lower_boundEPSt13_Rb_tree_nodeIS2_ESB_RS1_ = comdat any

$_ZNSt8_Rb_treeImSt4pairIKmbESt10_Select1stIS2_ESt4lessImESaIS2_EE8_M_beginEv = comdat any

$_ZNSt8_Rb_treeImSt4pairIKmbESt10_Select1stIS2_ESt4lessImESaIS2_EE6_M_endEv = comdat any

$_ZNSt8_Rb_treeImSt4pairIKmbESt10_Select1stIS2_ESt4lessImESaIS2_EE6_S_keyEPKSt13_Rb_tree_nodeIS2_E = comdat any

$_ZNSt8_Rb_treeImSt4pairIKmbESt10_Select1stIS2_ESt4lessImESaIS2_EE7_S_leftEPSt18_Rb_tree_node_base = comdat any

$_ZNSt8_Rb_treeImSt4pairIKmbESt10_Select1stIS2_ESt4lessImESaIS2_EE8_S_rightEPSt18_Rb_tree_node_base = comdat any

$_ZNSt17_Rb_tree_iteratorISt4pairIKmbEEC2EPSt18_Rb_tree_node_base = comdat any

$_ZNKSt10_Select1stISt4pairIKmbEEclERKS2_ = comdat any

$_ZNSt8_Rb_treeImSt4pairIKmbESt10_Select1stIS2_ESt4lessImESaIS2_EE8_S_valueEPKSt13_Rb_tree_nodeIS2_E = comdat any

$_ZNKSt13_Rb_tree_nodeISt4pairIKmbEE9_M_valptrEv = comdat any

$_ZNK9__gnu_cxx16__aligned_membufISt4pairIKmbEE6_M_ptrEv = comdat any

$_ZNK9__gnu_cxx16__aligned_membufISt4pairIKmbEE7_M_addrEv = comdat any

$_ZNSt8_Rb_treeImSt4pairIKmbESt10_Select1stIS2_ESt4lessImESaIS2_EE3endEv = comdat any

$_ZNKSt8_Rb_treeImSt4pairIKmbESt10_Select1stIS2_ESt4lessImESaIS2_EE8key_compEv = comdat any

$_ZNSt13_Rb_tree_nodeISt4pairIKmbEE9_M_valptrEv = comdat any

$_ZN9__gnu_cxx16__aligned_membufISt4pairIKmbEE6_M_ptrEv = comdat any

$_ZN9__gnu_cxx16__aligned_membufISt4pairIKmbEE7_M_addrEv = comdat any

$_ZN2cv3MatC2Eiii = comdat any

$_ZN2cv3Mat2atIfEERT_ii = comdat any

$_ZN2cv11_InputArrayC2IdLi3ELi3EEERKNS_4MatxIT_XT0_EXT1_EEE = comdat any

$_ZN2cv11_InputArrayC2IdLi4ELi1EEERKNS_4MatxIT_XT0_EXT1_EEE = comdat any

$_ZN2cv6Point_IfEC2Ev = comdat any

$_ZN2cv7MatSizeC2EPi = comdat any

$_ZN2cv7MatStepC2Em = comdat any

$_ZN2cv3Mat6createEiii = comdat any

$_ZNK2cv3Mat4typeEv = comdat any

$_ZN2cv11_InputArray4initEiPKvNS_5Size_IiEE = comdat any

$_ZN2cv5Size_IiEC2Eii = comdat any

$_ZN2cv5Size_IiEaSERKS1_ = comdat any

$_ZNSt8__detailneISt4pairIKmPN7ov_core7FeatureEELb0EEEbRKNS_19_Node_iterator_baseIT_XT0_EEESB_ = comdat any

$_ZNSt13unordered_mapImPN7ov_core7FeatureESt4hashImESt8equal_toImESaISt4pairIKmS2_EEE4findERS8_ = comdat any

$_ZNSt13unordered_mapImPN7ov_core7FeatureESt4hashImESt8equal_toImESaISt4pairIKmS2_EEE3endEv = comdat any

$_ZNSt13unordered_mapImPN7ov_core7FeatureESt4hashImESt8equal_toImESaISt4pairIKmS2_EEEixERS8_ = comdat any

$_ZNSt13unordered_mapImSt6vectorIN5Eigen6MatrixIfLin1ELi1ELi0ELin1ELi1EEESaIS3_EESt4hashImESt8equal_toImESaISt4pairIKmS5_EEEixERSB_ = comdat any

$_ZNSt6vectorIN5Eigen6MatrixIfLin1ELi1ELi0ELin1ELi1EEESaIS2_EE12emplace_backIJNS1_IfLi2ELi1ELi0ELi2ELi1EEEEEEvDpOT_ = comdat any

$_ZN5Eigen6MatrixIfLi2ELi1ELi0ELi2ELi1EEC2IffEERKT_RKT0_ = comdat any

$_ZNSt13unordered_mapImSt6vectorIdSaIdEESt4hashImESt8equal_toImESaISt4pairIKmS2_EEEixERS8_ = comdat any

$_ZNSt6vectorIdSaIdEE12emplace_backIJRdEEEvDpOT_ = comdat any

$_ZN7ov_core7FeatureC2Ev = comdat any

$_ZNSt13unordered_mapImPN7ov_core7FeatureESt4hashImESt8equal_toImESaISt4pairIKmS2_EEE6insertERKS9_ = comdat any

$_ZNSt4pairIKmPN7ov_core7FeatureEEC2IRmRS3_vEEOT_OT0_ = comdat any

$_ZNSt10_HashtableImSt4pairIKmPN7ov_core7FeatureEESaIS5_ENSt8__detail10_Select1stESt8equal_toImESt4hashImENS7_18_Mod_range_hashingENS7_20_Default_ranged_hashENS7_20_Prime_rehash_policyENS7_17_Hashtable_traitsILb0ELb0ELb1EEEE4findERS1_ = comdat any

$_ZNKSt8__detail15_Hash_code_baseImSt4pairIKmPN7ov_core7FeatureEENS_10_Select1stESt4hashImENS_18_Mod_range_hashingENS_20_Default_ranged_hashELb0EE12_M_hash_codeERS2_ = comdat any

$_ZNKSt10_HashtableImSt4pairIKmPN7ov_core7FeatureEESaIS5_ENSt8__detail10_Select1stESt8equal_toImESt4hashImENS7_18_Mod_range_hashingENS7_20_Default_ranged_hashENS7_20_Prime_rehash_policyENS7_17_Hashtable_traitsILb0ELb0ELb1EEEE15_M_bucket_indexERS1_m = comdat any

$_ZNKSt10_HashtableImSt4pairIKmPN7ov_core7FeatureEESaIS5_ENSt8__detail10_Select1stESt8equal_toImESt4hashImENS7_18_Mod_range_hashingENS7_20_Default_ranged_hashENS7_20_Prime_rehash_policyENS7_17_Hashtable_traitsILb0ELb0ELb1EEEE12_M_find_nodeEmRS1_m = comdat any

$_ZNSt8__detail14_Node_iteratorISt4pairIKmPN7ov_core7FeatureEELb0ELb0EEC2EPNS_10_Hash_nodeIS6_Lb0EEE = comdat any

$_ZNSt10_HashtableImSt4pairIKmPN7ov_core7FeatureEESaIS5_ENSt8__detail10_Select1stESt8equal_toImESt4hashImENS7_18_Mod_range_hashingENS7_20_Default_ranged_hashENS7_20_Prime_rehash_policyENS7_17_Hashtable_traitsILb0ELb0ELb1EEEE3endEv = comdat any

$_ZNKSt8__detail15_Hash_code_baseImSt4pairIKmPN7ov_core7FeatureEENS_10_Select1stESt4hashImENS_18_Mod_range_hashingENS_20_Default_ranged_hashELb0EE5_M_h1Ev = comdat any

$_ZNKSt4hashImEclEm = comdat any

$_ZNSt8__detail21_Hashtable_ebo_helperILi1ESt4hashImELb1EE7_S_cgetERKS3_ = comdat any

$_ZNKSt8__detail15_Hash_code_baseImSt4pairIKmPN7ov_core7FeatureEENS_10_Select1stESt4hashImENS_18_Mod_range_hashingENS_20_Default_ranged_hashELb0EE15_M_bucket_indexERS2_mm = comdat any

$_ZNKSt8__detail15_Hash_code_baseImSt4pairIKmPN7ov_core7FeatureEENS_10_Select1stESt4hashImENS_18_Mod_range_hashingENS_20_Default_ranged_hashELb0EE5_M_h2Ev = comdat any

$_ZNKSt8__detail18_Mod_range_hashingclEmm = comdat any

$_ZNSt8__detail21_Hashtable_ebo_helperILi2ENS_18_Mod_range_hashingELb1EE7_S_cgetERKS2_ = comdat any

$_ZNKSt10_HashtableImSt4pairIKmPN7ov_core7FeatureEESaIS5_ENSt8__detail10_Select1stESt8equal_toImESt4hashImENS7_18_Mod_range_hashingENS7_20_Default_ranged_hashENS7_20_Prime_rehash_policyENS7_17_Hashtable_traitsILb0ELb0ELb1EEEE19_M_find_before_nodeEmRS1_m = comdat any

$_ZNKSt8__detail15_Hashtable_baseImSt4pairIKmPN7ov_core7FeatureEENS_10_Select1stESt8equal_toImESt4hashImENS_18_Mod_range_hashingENS_20_Default_ranged_hashENS_17_Hashtable_traitsILb0ELb0ELb1EEEE9_M_equalsERS2_mPNS_10_Hash_nodeIS6_Lb0EEE = comdat any

$_ZNKSt10_HashtableImSt4pairIKmPN7ov_core7FeatureEESaIS5_ENSt8__detail10_Select1stESt8equal_toImESt4hashImENS7_18_Mod_range_hashingENS7_20_Default_ranged_hashENS7_20_Prime_rehash_policyENS7_17_Hashtable_traitsILb0ELb0ELb1EEEE15_M_bucket_indexEPNS7_10_Hash_nodeIS5_Lb0EEE = comdat any

$_ZNKSt8__detail10_Hash_nodeISt4pairIKmPN7ov_core7FeatureEELb0EE7_M_nextEv = comdat any

$_ZNSt8__detail13_Equal_helperImSt4pairIKmPN7ov_core7FeatureEENS_10_Select1stESt8equal_toImEmLb0EE9_S_equalsERKS9_RKS7_RS2_mPNS_10_Hash_nodeIS6_Lb0EEE = comdat any

$_ZNKSt8__detail15_Hashtable_baseImSt4pairIKmPN7ov_core7FeatureEENS_10_Select1stESt8equal_toImESt4hashImENS_18_Mod_range_hashingENS_20_Default_ranged_hashENS_17_Hashtable_traitsILb0ELb0ELb1EEEE5_M_eqEv = comdat any

$_ZNKSt8__detail15_Hash_code_baseImSt4pairIKmPN7ov_core7FeatureEENS_10_Select1stESt4hashImENS_18_Mod_range_hashingENS_20_Default_ranged_hashELb0EE10_M_extractEv = comdat any

$_ZNKSt8equal_toImEclERKmS2_ = comdat any

$_ZNKSt8__detail10_Select1stclIRSt4pairIKmPN7ov_core7FeatureEEEEDTclsr3stdE3getIXLi0EEEclsr3stdE7forwardIT_Efp_EEEOS9_ = comdat any

$_ZNSt8__detail21_Hash_node_value_baseISt4pairIKmPN7ov_core7FeatureEEE4_M_vEv = comdat any

$_ZSt3getILm0EKmPN7ov_core7FeatureEERNSt13tuple_elementIXT_ESt4pairIT0_T1_EE4typeERS8_ = comdat any

$_ZSt7forwardIRSt4pairIKmPN7ov_core7FeatureEEEOT_RNSt16remove_referenceIS7_E4typeE = comdat any

$_ZNSt10__pair_getILm0EE5__getIKmPN7ov_core7FeatureEEERT_RSt4pairIS6_T0_E = comdat any

$_ZNSt8__detail21_Hash_node_value_baseISt4pairIKmPN7ov_core7FeatureEEE9_M_valptrEv = comdat any

$_ZN9__gnu_cxx16__aligned_bufferISt4pairIKmPN7ov_core7FeatureEEE6_M_ptrEv = comdat any

$_ZN9__gnu_cxx16__aligned_bufferISt4pairIKmPN7ov_core7FeatureEEE7_M_addrEv = comdat any

$_ZNSt8__detail21_Hashtable_ebo_helperILi0ESt8equal_toImELb1EE7_S_cgetERKS3_ = comdat any

$_ZNSt8__detail21_Hashtable_ebo_helperILi0ENS_10_Select1stELb1EE7_S_cgetERKS2_ = comdat any

$_ZNKSt8__detail15_Hash_code_baseImSt4pairIKmPN7ov_core7FeatureEENS_10_Select1stESt4hashImENS_18_Mod_range_hashingENS_20_Default_ranged_hashELb0EE15_M_bucket_indexEPKNS_10_Hash_nodeIS6_Lb0EEEm = comdat any

$_ZNKSt8__detail10_Select1stclIRKSt4pairIKmPN7ov_core7FeatureEEEEDTclsr3stdE3getIXLi0EEEclsr3stdE7forwardIT_Efp_EEEOSA_ = comdat any

$_ZNKSt8__detail21_Hash_node_value_baseISt4pairIKmPN7ov_core7FeatureEEE4_M_vEv = comdat any

$_ZSt3getILm0EKmPN7ov_core7FeatureEERKNSt13tuple_elementIXT_ESt4pairIT0_T1_EE4typeERKS8_ = comdat any

$_ZSt7forwardIRKSt4pairIKmPN7ov_core7FeatureEEEOT_RNSt16remove_referenceIS8_E4typeE = comdat any

$_ZNSt10__pair_getILm0EE11__const_getIKmPN7ov_core7FeatureEEERKT_RKSt4pairIS6_T0_E = comdat any

$_ZNKSt8__detail21_Hash_node_value_baseISt4pairIKmPN7ov_core7FeatureEEE9_M_valptrEv = comdat any

$_ZNK9__gnu_cxx16__aligned_bufferISt4pairIKmPN7ov_core7FeatureEEE6_M_ptrEv = comdat any

$_ZNK9__gnu_cxx16__aligned_bufferISt4pairIKmPN7ov_core7FeatureEEE7_M_addrEv = comdat any

$_ZNSt8__detail19_Node_iterator_baseISt4pairIKmPN7ov_core7FeatureEELb0EEC2EPNS_10_Hash_nodeIS6_Lb0EEE = comdat any

$_ZNSt8__detail9_Map_baseImSt4pairIKmPN7ov_core7FeatureEESaIS6_ENS_10_Select1stESt8equal_toImESt4hashImENS_18_Mod_range_hashingENS_20_Default_ranged_hashENS_20_Prime_rehash_policyENS_17_Hashtable_traitsILb0ELb0ELb1EEELb1EEixERS2_ = comdat any

$_ZNSt8__detail16_Hashtable_allocISaINS_10_Hash_nodeISt4pairIKmPN7ov_core7FeatureEELb0EEEEE16_M_allocate_nodeIJRKSt21piecewise_construct_tSt5tupleIJRS3_EESF_IJEEEEEPS8_DpOT_ = comdat any

$_ZNSt5tupleIJRKmEEC2ES1_ = comdat any

$_ZNSt10_HashtableImSt4pairIKmPN7ov_core7FeatureEESaIS5_ENSt8__detail10_Select1stESt8equal_toImESt4hashImENS7_18_Mod_range_hashingENS7_20_Default_ranged_hashENS7_20_Prime_rehash_policyENS7_17_Hashtable_traitsILb0ELb0ELb1EEEE21_M_insert_unique_nodeEmmPNS7_10_Hash_nodeIS5_Lb0EEE = comdat any

$_ZNKSt8__detail14_Node_iteratorISt4pairIKmPN7ov_core7FeatureEELb0ELb0EEptEv = comdat any

$_ZNSt16allocator_traitsISaINSt8__detail10_Hash_nodeISt4pairIKmPN7ov_core7FeatureEELb0EEEEE8allocateERS9_m = comdat any

$_ZNSt8__detail16_Hashtable_allocISaINS_10_Hash_nodeISt4pairIKmPN7ov_core7FeatureEELb0EEEEE17_M_node_allocatorEv = comdat any

$_ZSt11__addressofINSt8__detail10_Hash_nodeISt4pairIKmPN7ov_core7FeatureEELb0EEEEPT_RS9_ = comdat any

$_ZNSaISt4pairIKmPN7ov_core7FeatureEEEC2INSt8__detail10_Hash_nodeIS4_Lb0EEEEERKSaIT_E = comdat any

$_ZNSt8__detail10_Hash_nodeISt4pairIKmPN7ov_core7FeatureEELb0EEC2Ev = comdat any

$_ZNSt16allocator_traitsISaISt4pairIKmPN7ov_core7FeatureEEEE9constructIS5_JRKSt21piecewise_construct_tSt5tupleIJRS1_EESC_IJEEEEEvRS6_PT_DpOT0_ = comdat any

$_ZSt7forwardIRKSt21piecewise_construct_tEOT_RNSt16remove_referenceIS3_E4typeE = comdat any

$_ZSt7forwardISt5tupleIJRKmEEEOT_RNSt16remove_referenceIS4_E4typeE = comdat any

$_ZSt7forwardISt5tupleIJEEEOT_RNSt16remove_referenceIS2_E4typeE = comdat any

$_ZN9__gnu_cxx13new_allocatorISt4pairIKmPN7ov_core7FeatureEEED2Ev = comdat any

$_ZN9__gnu_cxx13new_allocatorINSt8__detail10_Hash_nodeISt4pairIKmPN7ov_core7FeatureEELb0EEEE8allocateEmPKv = comdat any

$_ZNK9__gnu_cxx13new_allocatorINSt8__detail10_Hash_nodeISt4pairIKmPN7ov_core7FeatureEELb0EEEE8max_sizeEv = comdat any

$_ZNSt8__detail21_Hashtable_ebo_helperILi0ESaINS_10_Hash_nodeISt4pairIKmPN7ov_core7FeatureEELb0EEEELb1EE6_S_getERSA_ = comdat any

$_ZN9__gnu_cxx13new_allocatorISt4pairIKmPN7ov_core7FeatureEEEC2Ev = comdat any

$_ZNSt8__detail21_Hash_node_value_baseISt4pairIKmPN7ov_core7FeatureEEEC2Ev = comdat any

$_ZN9__gnu_cxx13new_allocatorISt4pairIKmPN7ov_core7FeatureEEE9constructIS6_JRKSt21piecewise_construct_tSt5tupleIJRS2_EESC_IJEEEEEvPT_DpOT0_ = comdat any

$_ZNSt5tupleIJRKmEEC2EOS2_ = comdat any

$_ZNSt4pairIKmPN7ov_core7FeatureEEC2IJRS0_EJEEESt21piecewise_construct_tSt5tupleIJDpT_EES8_IJDpT0_EE = comdat any

$_ZNSt11_Tuple_implILm0EJRKmEEC2EOS2_ = comdat any

$_ZSt7forwardIRKmEOT_RNSt16remove_referenceIS2_E4typeE = comdat any

$_ZNSt11_Tuple_implILm0EJRKmEE7_M_headERS2_ = comdat any

$_ZNSt10_Head_baseILm0ERKmLb0EEC2ES1_ = comdat any

$_ZNSt10_Head_baseILm0ERKmLb0EE7_M_headERS2_ = comdat any

$_ZNSt4pairIKmPN7ov_core7FeatureEEC2IJRS0_EJLm0EEJEJEEERSt5tupleIJDpT_EERS7_IJDpT1_EESt12_Index_tupleIJXspT0_EEESG_IJXspT2_EEE = comdat any

$_ZSt3getILm0EJRKmEERNSt13tuple_elementIXT_ESt5tupleIJDpT0_EEE4typeERS6_ = comdat any

$_ZSt12__get_helperILm0ERKmJEERT0_RSt11_Tuple_implIXT_EJS2_DpT1_EE = comdat any

$_ZNSt11_Tuple_implILm0EJRKmEEC2ES1_ = comdat any

$_ZNKSt8__detail20_Prime_rehash_policy8_M_stateEv = comdat any

$_ZNSt10_HashtableImSt4pairIKmPN7ov_core7FeatureEESaIS5_ENSt8__detail10_Select1stESt8equal_toImESt4hashImENS7_18_Mod_range_hashingENS7_20_Default_ranged_hashENS7_20_Prime_rehash_policyENS7_17_Hashtable_traitsILb0ELb0ELb1EEEE9_M_rehashEmRS1_ = comdat any

$_ZNSt8__detail15_Hash_code_baseImSt4pairIKmPN7ov_core7FeatureEENS_10_Select1stESt4hashImENS_18_Mod_range_hashingENS_20_Default_ranged_hashELb0EE10_M_extractEv = comdat any

$_ZNKSt8__detail15_Hash_code_baseImSt4pairIKmPN7ov_core7FeatureEENS_10_Select1stESt4hashImENS_18_Mod_range_hashingENS_20_Default_ranged_hashELb0EE13_M_store_codeEPNS_10_Hash_nodeIS6_Lb0EEEm = comdat any

$_ZNSt10_HashtableImSt4pairIKmPN7ov_core7FeatureEESaIS5_ENSt8__detail10_Select1stESt8equal_toImESt4hashImENS7_18_Mod_range_hashingENS7_20_Default_ranged_hashENS7_20_Prime_rehash_policyENS7_17_Hashtable_traitsILb0ELb0ELb1EEEE22_M_insert_bucket_beginEmPNS7_10_Hash_nodeIS5_Lb0EEE = comdat any

$_ZNSt10_HashtableImSt4pairIKmPN7ov_core7FeatureEESaIS5_ENSt8__detail10_Select1stESt8equal_toImESt4hashImENS7_18_Mod_range_hashingENS7_20_Default_ranged_hashENS7_20_Prime_rehash_policyENS7_17_Hashtable_traitsILb0ELb0ELb1EEEE13_M_rehash_auxEmSt17integral_constantIbLb1EE = comdat any

$_ZNSt10_HashtableImSt4pairIKmPN7ov_core7FeatureEESaIS5_ENSt8__detail10_Select1stESt8equal_toImESt4hashImENS7_18_Mod_range_hashingENS7_20_Default_ranged_hashENS7_20_Prime_rehash_policyENS7_17_Hashtable_traitsILb0ELb0ELb1EEEE19_M_allocate_bucketsEm = comdat any

$_ZNKSt10_HashtableImSt4pairIKmPN7ov_core7FeatureEESaIS5_ENSt8__detail10_Select1stESt8equal_toImESt4hashImENS7_18_Mod_range_hashingENS7_20_Default_ranged_hashENS7_20_Prime_rehash_policyENS7_17_Hashtable_traitsILb0ELb0ELb1EEEE8_M_beginEv = comdat any

$_ZNSt10_HashtableImSt4pairIKmPN7ov_core7FeatureEESaIS5_ENSt8__detail10_Select1stESt8equal_toImESt4hashImENS7_18_Mod_range_hashingENS7_20_Default_ranged_hashENS7_20_Prime_rehash_policyENS7_17_Hashtable_traitsILb0ELb0ELb1EEEE21_M_deallocate_bucketsEv = comdat any

$_ZNSt8__detail16_Hashtable_allocISaINS_10_Hash_nodeISt4pairIKmPN7ov_core7FeatureEELb0EEEEE19_M_allocate_bucketsEm = comdat any

$_ZNSaIPNSt8__detail15_Hash_node_baseEEC2INS_10_Hash_nodeISt4pairIKmPN7ov_core7FeatureEELb0EEEEERKSaIT_E = comdat any

$_ZNSt16allocator_traitsISaIPNSt8__detail15_Hash_node_baseEEE8allocateERS3_m = comdat any

$_ZSt11__addressofIPNSt8__detail15_Hash_node_baseEEPT_RS3_ = comdat any

$_ZN9__gnu_cxx13new_allocatorIPNSt8__detail15_Hash_node_baseEED2Ev = comdat any

$_ZN9__gnu_cxx13new_allocatorIPNSt8__detail15_Hash_node_baseEEC2Ev = comdat any

$_ZN9__gnu_cxx13new_allocatorIPNSt8__detail15_Hash_node_baseEE8allocateEmPKv = comdat any

$_ZNK9__gnu_cxx13new_allocatorIPNSt8__detail15_Hash_node_baseEE8max_sizeEv = comdat any

$_ZNSt10_HashtableImSt4pairIKmPN7ov_core7FeatureEESaIS5_ENSt8__detail10_Select1stESt8equal_toImESt4hashImENS7_18_Mod_range_hashingENS7_20_Default_ranged_hashENS7_20_Prime_rehash_policyENS7_17_Hashtable_traitsILb0ELb0ELb1EEEE21_M_deallocate_bucketsEPPNS7_15_Hash_node_baseEm = comdat any

$_ZNKSt10_HashtableImSt4pairIKmPN7ov_core7FeatureEESaIS5_ENSt8__detail10_Select1stESt8equal_toImESt4hashImENS7_18_Mod_range_hashingENS7_20_Default_ranged_hashENS7_20_Prime_rehash_policyENS7_17_Hashtable_traitsILb0ELb0ELb1EEEE21_M_uses_single_bucketEPPNS7_15_Hash_node_baseE = comdat any

$_ZNSt8__detail16_Hashtable_allocISaINS_10_Hash_nodeISt4pairIKmPN7ov_core7FeatureEELb0EEEEE21_M_deallocate_bucketsEPPNS_15_Hash_node_baseEm = comdat any

$_ZNSt14pointer_traitsIPPNSt8__detail15_Hash_node_baseEE10pointer_toERS2_ = comdat any

$_ZNSt16allocator_traitsISaIPNSt8__detail15_Hash_node_baseEEE10deallocateERS3_PS2_m = comdat any

$_ZSt9addressofIPNSt8__detail15_Hash_node_baseEEPT_RS3_ = comdat any

$_ZN9__gnu_cxx13new_allocatorIPNSt8__detail15_Hash_node_baseEE10deallocateEPS3_m = comdat any

$_ZNSt8__detail21_Hashtable_ebo_helperILi0ENS_10_Select1stELb1EE6_S_getERS2_ = comdat any

$_ZNSt8__detail9_Map_baseImSt4pairIKmSt6vectorIN5Eigen6MatrixIfLin1ELi1ELi0ELin1ELi1EEESaIS6_EEESaIS9_ENS_10_Select1stESt8equal_toImESt4hashImENS_18_Mod_range_hashingENS_20_Default_ranged_hashENS_20_Prime_rehash_policyENS_17_Hashtable_traitsILb0ELb0ELb1EEELb1EEixERS2_ = comdat any

$_ZNKSt8__detail15_Hash_code_baseImSt4pairIKmSt6vectorIN5Eigen6MatrixIfLin1ELi1ELi0ELin1ELi1EEESaIS6_EEENS_10_Select1stESt4hashImENS_18_Mod_range_hashingENS_20_Default_ranged_hashELb0EE12_M_hash_codeERS2_ = comdat any

$_ZNKSt10_HashtableImSt4pairIKmSt6vectorIN5Eigen6MatrixIfLin1ELi1ELi0ELin1ELi1EEESaIS5_EEESaIS8_ENSt8__detail10_Select1stESt8equal_toImESt4hashImENSA_18_Mod_range_hashingENSA_20_Default_ranged_hashENSA_20_Prime_rehash_policyENSA_17_Hashtable_traitsILb0ELb0ELb1EEEE15_M_bucket_indexERS1_m = comdat any

$_ZNKSt10_HashtableImSt4pairIKmSt6vectorIN5Eigen6MatrixIfLin1ELi1ELi0ELin1ELi1EEESaIS5_EEESaIS8_ENSt8__detail10_Select1stESt8equal_toImESt4hashImENSA_18_Mod_range_hashingENSA_20_Default_ranged_hashENSA_20_Prime_rehash_policyENSA_17_Hashtable_traitsILb0ELb0ELb1EEEE12_M_find_nodeEmRS1_m = comdat any

$_ZNSt8__detail16_Hashtable_allocISaINS_10_Hash_nodeISt4pairIKmSt6vectorIN5Eigen6MatrixIfLin1ELi1ELi0ELin1ELi1EEESaIS7_EEELb0EEEEE16_M_allocate_nodeIJRKSt21piecewise_construct_tSt5tupleIJRS3_EESI_IJEEEEEPSB_DpOT_ = comdat any

$_ZNSt10_HashtableImSt4pairIKmSt6vectorIN5Eigen6MatrixIfLin1ELi1ELi0ELin1ELi1EEESaIS5_EEESaIS8_ENSt8__detail10_Select1stESt8equal_toImESt4hashImENSA_18_Mod_range_hashingENSA_20_Default_ranged_hashENSA_20_Prime_rehash_policyENSA_17_Hashtable_traitsILb0ELb0ELb1EEEE21_M_insert_unique_nodeEmmPNSA_10_Hash_nodeIS8_Lb0EEE = comdat any

$_ZNKSt8__detail14_Node_iteratorISt4pairIKmSt6vectorIN5Eigen6MatrixIfLin1ELi1ELi0ELin1ELi1EEESaIS6_EEELb0ELb0EEptEv = comdat any

$_ZNSt8__detail21_Hash_node_value_baseISt4pairIKmSt6vectorIN5Eigen6MatrixIfLin1ELi1ELi0ELin1ELi1EEESaIS6_EEEE4_M_vEv = comdat any

$_ZNKSt8__detail15_Hash_code_baseImSt4pairIKmSt6vectorIN5Eigen6MatrixIfLin1ELi1ELi0ELin1ELi1EEESaIS6_EEENS_10_Select1stESt4hashImENS_18_Mod_range_hashingENS_20_Default_ranged_hashELb0EE5_M_h1Ev = comdat any

$_ZNKSt8__detail15_Hash_code_baseImSt4pairIKmSt6vectorIN5Eigen6MatrixIfLin1ELi1ELi0ELin1ELi1EEESaIS6_EEENS_10_Select1stESt4hashImENS_18_Mod_range_hashingENS_20_Default_ranged_hashELb0EE15_M_bucket_indexERS2_mm = comdat any

$_ZNKSt8__detail15_Hash_code_baseImSt4pairIKmSt6vectorIN5Eigen6MatrixIfLin1ELi1ELi0ELin1ELi1EEESaIS6_EEENS_10_Select1stESt4hashImENS_18_Mod_range_hashingENS_20_Default_ranged_hashELb0EE5_M_h2Ev = comdat any

$_ZNKSt10_HashtableImSt4pairIKmSt6vectorIN5Eigen6MatrixIfLin1ELi1ELi0ELin1ELi1EEESaIS5_EEESaIS8_ENSt8__detail10_Select1stESt8equal_toImESt4hashImENSA_18_Mod_range_hashingENSA_20_Default_ranged_hashENSA_20_Prime_rehash_policyENSA_17_Hashtable_traitsILb0ELb0ELb1EEEE19_M_find_before_nodeEmRS1_m = comdat any

$_ZNKSt8__detail15_Hashtable_baseImSt4pairIKmSt6vectorIN5Eigen6MatrixIfLin1ELi1ELi0ELin1ELi1EEESaIS6_EEENS_10_Select1stESt8equal_toImESt4hashImENS_18_Mod_range_hashingENS_20_Default_ranged_hashENS_17_Hashtable_traitsILb0ELb0ELb1EEEE9_M_equalsERS2_mPNS_10_Hash_nodeIS9_Lb0EEE = comdat any

$_ZNKSt10_HashtableImSt4pairIKmSt6vectorIN5Eigen6MatrixIfLin1ELi1ELi0ELin1ELi1EEESaIS5_EEESaIS8_ENSt8__detail10_Select1stESt8equal_toImESt4hashImENSA_18_Mod_range_hashingENSA_20_Default_ranged_hashENSA_20_Prime_rehash_policyENSA_17_Hashtable_traitsILb0ELb0ELb1EEEE15_M_bucket_indexEPNSA_10_Hash_nodeIS8_Lb0EEE = comdat any

$_ZNKSt8__detail10_Hash_nodeISt4pairIKmSt6vectorIN5Eigen6MatrixIfLin1ELi1ELi0ELin1ELi1EEESaIS6_EEELb0EE7_M_nextEv = comdat any

$_ZNSt8__detail13_Equal_helperImSt4pairIKmSt6vectorIN5Eigen6MatrixIfLin1ELi1ELi0ELin1ELi1EEESaIS6_EEENS_10_Select1stESt8equal_toImEmLb0EE9_S_equalsERKSC_RKSA_RS2_mPNS_10_Hash_nodeIS9_Lb0EEE = comdat any

$_ZNKSt8__detail15_Hashtable_baseImSt4pairIKmSt6vectorIN5Eigen6MatrixIfLin1ELi1ELi0ELin1ELi1EEESaIS6_EEENS_10_Select1stESt8equal_toImESt4hashImENS_18_Mod_range_hashingENS_20_Default_ranged_hashENS_17_Hashtable_traitsILb0ELb0ELb1EEEE5_M_eqEv = comdat any

$_ZNKSt8__detail15_Hash_code_baseImSt4pairIKmSt6vectorIN5Eigen6MatrixIfLin1ELi1ELi0ELin1ELi1EEESaIS6_EEENS_10_Select1stESt4hashImENS_18_Mod_range_hashingENS_20_Default_ranged_hashELb0EE10_M_extractEv = comdat any

$_ZNKSt8__detail10_Select1stclIRSt4pairIKmSt6vectorIN5Eigen6MatrixIfLin1ELi1ELi0ELin1ELi1EEESaIS7_EEEEEDTclsr3stdE3getIXLi0EEEclsr3stdE7forwardIT_Efp_EEEOSC_ = comdat any

$_ZSt3getILm0EKmSt6vectorIN5Eigen6MatrixIfLin1ELi1ELi0ELin1ELi1EEESaIS4_EEERNSt13tuple_elementIXT_ESt4pairIT0_T1_EE4typeERSB_ = comdat any

$_ZSt7forwardIRSt4pairIKmSt6vectorIN5Eigen6MatrixIfLin1ELi1ELi0ELin1ELi1EEESaIS5_EEEEOT_RNSt16remove_referenceISA_E4typeE = comdat any

$_ZNSt10__pair_getILm0EE5__getIKmSt6vectorIN5Eigen6MatrixIfLin1ELi1ELi0ELin1ELi1EEESaIS6_EEEERT_RSt4pairIS9_T0_E = comdat any

$_ZNKSt8__detail15_Hash_code_baseImSt4pairIKmSt6vectorIN5Eigen6MatrixIfLin1ELi1ELi0ELin1ELi1EEESaIS6_EEENS_10_Select1stESt4hashImENS_18_Mod_range_hashingENS_20_Default_ranged_hashELb0EE15_M_bucket_indexEPKNS_10_Hash_nodeIS9_Lb0EEEm = comdat any

$_ZNKSt8__detail10_Select1stclIRKSt4pairIKmSt6vectorIN5Eigen6MatrixIfLin1ELi1ELi0ELin1ELi1EEESaIS7_EEEEEDTclsr3stdE3getIXLi0EEEclsr3stdE7forwardIT_Efp_EEEOSD_ = comdat any

$_ZNKSt8__detail21_Hash_node_value_baseISt4pairIKmSt6vectorIN5Eigen6MatrixIfLin1ELi1ELi0ELin1ELi1EEESaIS6_EEEE4_M_vEv = comdat any

$_ZSt3getILm0EKmSt6vectorIN5Eigen6MatrixIfLin1ELi1ELi0ELin1ELi1EEESaIS4_EEERKNSt13tuple_elementIXT_ESt4pairIT0_T1_EE4typeERKSB_ = comdat any

$_ZSt7forwardIRKSt4pairIKmSt6vectorIN5Eigen6MatrixIfLin1ELi1ELi0ELin1ELi1EEESaIS5_EEEEOT_RNSt16remove_referenceISB_E4typeE = comdat any

$_ZNSt10__pair_getILm0EE11__const_getIKmSt6vectorIN5Eigen6MatrixIfLin1ELi1ELi0ELin1ELi1EEESaIS6_EEEERKT_RKSt4pairIS9_T0_E = comdat any

$_ZNKSt8__detail21_Hash_node_value_baseISt4pairIKmSt6vectorIN5Eigen6MatrixIfLin1ELi1ELi0ELin1ELi1EEESaIS6_EEEE9_M_valptrEv = comdat any

$_ZNK9__gnu_cxx16__aligned_bufferISt4pairIKmSt6vectorIN5Eigen6MatrixIfLin1ELi1ELi0ELin1ELi1EEESaIS6_EEEE6_M_ptrEv = comdat any

$_ZNK9__gnu_cxx16__aligned_bufferISt4pairIKmSt6vectorIN5Eigen6MatrixIfLin1ELi1ELi0ELin1ELi1EEESaIS6_EEEE7_M_addrEv = comdat any

$_ZNSt16allocator_traitsISaINSt8__detail10_Hash_nodeISt4pairIKmSt6vectorIN5Eigen6MatrixIfLin1ELi1ELi0ELin1ELi1EEESaIS7_EEELb0EEEEE8allocateERSC_m = comdat any

$_ZNSt8__detail16_Hashtable_allocISaINS_10_Hash_nodeISt4pairIKmSt6vectorIN5Eigen6MatrixIfLin1ELi1ELi0ELin1ELi1EEESaIS7_EEELb0EEEEE17_M_node_allocatorEv = comdat any

$_ZSt11__addressofINSt8__detail10_Hash_nodeISt4pairIKmSt6vectorIN5Eigen6MatrixIfLin1ELi1ELi0ELin1ELi1EEESaIS7_EEELb0EEEEPT_RSC_ = comdat any

$_ZNSaISt4pairIKmSt6vectorIN5Eigen6MatrixIfLin1ELi1ELi0ELin1ELi1EEESaIS4_EEEEC2INSt8__detail10_Hash_nodeIS7_Lb0EEEEERKSaIT_E = comdat any

$_ZNSt8__detail10_Hash_nodeISt4pairIKmSt6vectorIN5Eigen6MatrixIfLin1ELi1ELi0ELin1ELi1EEESaIS6_EEELb0EEC2Ev = comdat any

$_ZNSt16allocator_traitsISaISt4pairIKmSt6vectorIN5Eigen6MatrixIfLin1ELi1ELi0ELin1ELi1EEESaIS5_EEEEE9constructIS8_JRKSt21piecewise_construct_tSt5tupleIJRS1_EESF_IJEEEEEvRS9_PT_DpOT0_ = comdat any

$_ZNSt8__detail21_Hash_node_value_baseISt4pairIKmSt6vectorIN5Eigen6MatrixIfLin1ELi1ELi0ELin1ELi1EEESaIS6_EEEE9_M_valptrEv = comdat any

$_ZN9__gnu_cxx13new_allocatorISt4pairIKmSt6vectorIN5Eigen6MatrixIfLin1ELi1ELi0ELin1ELi1EEESaIS6_EEEED2Ev = comdat any

$_ZN9__gnu_cxx13new_allocatorINSt8__detail10_Hash_nodeISt4pairIKmSt6vectorIN5Eigen6MatrixIfLin1ELi1ELi0ELin1ELi1EEESaIS8_EEELb0EEEE8allocateEmPKv = comdat any

$_ZNK9__gnu_cxx13new_allocatorINSt8__detail10_Hash_nodeISt4pairIKmSt6vectorIN5Eigen6MatrixIfLin1ELi1ELi0ELin1ELi1EEESaIS8_EEELb0EEEE8max_sizeEv = comdat any

$_ZNSt8__detail21_Hashtable_ebo_helperILi0ESaINS_10_Hash_nodeISt4pairIKmSt6vectorIN5Eigen6MatrixIfLin1ELi1ELi0ELin1ELi1EEESaIS7_EEELb0EEEELb1EE6_S_getERSD_ = comdat any

$_ZN9__gnu_cxx13new_allocatorISt4pairIKmSt6vectorIN5Eigen6MatrixIfLin1ELi1ELi0ELin1ELi1EEESaIS6_EEEEC2Ev = comdat any

$_ZNSt8__detail21_Hash_node_value_baseISt4pairIKmSt6vectorIN5Eigen6MatrixIfLin1ELi1ELi0ELin1ELi1EEESaIS6_EEEEC2Ev = comdat any

$_ZN9__gnu_cxx13new_allocatorISt4pairIKmSt6vectorIN5Eigen6MatrixIfLin1ELi1ELi0ELin1ELi1EEESaIS6_EEEE9constructIS9_JRKSt21piecewise_construct_tSt5tupleIJRS2_EESF_IJEEEEEvPT_DpOT0_ = comdat any

$_ZNSt4pairIKmSt6vectorIN5Eigen6MatrixIfLin1ELi1ELi0ELin1ELi1EEESaIS4_EEEC2IJRS0_EJEEESt21piecewise_construct_tSt5tupleIJDpT_EESB_IJDpT0_EE = comdat any

$_ZNSt4pairIKmSt6vectorIN5Eigen6MatrixIfLin1ELi1ELi0ELin1ELi1EEESaIS4_EEEC2IJRS0_EJLm0EEJEJEEERSt5tupleIJDpT_EERSA_IJDpT1_EESt12_Index_tupleIJXspT0_EEESJ_IJXspT2_EEE = comdat any

$_ZNSt6vectorIN5Eigen6MatrixIfLin1ELi1ELi0ELin1ELi1EEESaIS2_EEC2Ev = comdat any

$_ZNSt12_Vector_baseIN5Eigen6MatrixIfLin1ELi1ELi0ELin1ELi1EEESaIS2_EEC2Ev = comdat any

$_ZNSt12_Vector_baseIN5Eigen6MatrixIfLin1ELi1ELi0ELin1ELi1EEESaIS2_EE12_Vector_implC2Ev = comdat any

$_ZNSaIN5Eigen6MatrixIfLin1ELi1ELi0ELin1ELi1EEEEC2Ev = comdat any

$_ZN9__gnu_cxx13new_allocatorIN5Eigen6MatrixIfLin1ELi1ELi0ELin1ELi1EEEEC2Ev = comdat any

$_ZN9__gnu_cxx16__aligned_bufferISt4pairIKmSt6vectorIN5Eigen6MatrixIfLin1ELi1ELi0ELin1ELi1EEESaIS6_EEEE6_M_ptrEv = comdat any

$_ZN9__gnu_cxx16__aligned_bufferISt4pairIKmSt6vectorIN5Eigen6MatrixIfLin1ELi1ELi0ELin1ELi1EEESaIS6_EEEE7_M_addrEv = comdat any

$_ZNSt10_HashtableImSt4pairIKmSt6vectorIN5Eigen6MatrixIfLin1ELi1ELi0ELin1ELi1EEESaIS5_EEESaIS8_ENSt8__detail10_Select1stESt8equal_toImESt4hashImENSA_18_Mod_range_hashingENSA_20_Default_ranged_hashENSA_20_Prime_rehash_policyENSA_17_Hashtable_traitsILb0ELb0ELb1EEEE9_M_rehashEmRS1_ = comdat any

$_ZNSt8__detail15_Hash_code_baseImSt4pairIKmSt6vectorIN5Eigen6MatrixIfLin1ELi1ELi0ELin1ELi1EEESaIS6_EEENS_10_Select1stESt4hashImENS_18_Mod_range_hashingENS_20_Default_ranged_hashELb0EE10_M_extractEv = comdat any

$_ZNKSt8__detail15_Hash_code_baseImSt4pairIKmSt6vectorIN5Eigen6MatrixIfLin1ELi1ELi0ELin1ELi1EEESaIS6_EEENS_10_Select1stESt4hashImENS_18_Mod_range_hashingENS_20_Default_ranged_hashELb0EE13_M_store_codeEPNS_10_Hash_nodeIS9_Lb0EEEm = comdat any

$_ZNSt10_HashtableImSt4pairIKmSt6vectorIN5Eigen6MatrixIfLin1ELi1ELi0ELin1ELi1EEESaIS5_EEESaIS8_ENSt8__detail10_Select1stESt8equal_toImESt4hashImENSA_18_Mod_range_hashingENSA_20_Default_ranged_hashENSA_20_Prime_rehash_policyENSA_17_Hashtable_traitsILb0ELb0ELb1EEEE22_M_insert_bucket_beginEmPNSA_10_Hash_nodeIS8_Lb0EEE = comdat any

$_ZNSt8__detail14_Node_iteratorISt4pairIKmSt6vectorIN5Eigen6MatrixIfLin1ELi1ELi0ELin1ELi1EEESaIS6_EEELb0ELb0EEC2EPNS_10_Hash_nodeIS9_Lb0EEE = comdat any

$_ZNSt10_HashtableImSt4pairIKmSt6vectorIN5Eigen6MatrixIfLin1ELi1ELi0ELin1ELi1EEESaIS5_EEESaIS8_ENSt8__detail10_Select1stESt8equal_toImESt4hashImENSA_18_Mod_range_hashingENSA_20_Default_ranged_hashENSA_20_Prime_rehash_policyENSA_17_Hashtable_traitsILb0ELb0ELb1EEEE13_M_rehash_auxEmSt17integral_constantIbLb1EE = comdat any

$_ZNSt10_HashtableImSt4pairIKmSt6vectorIN5Eigen6MatrixIfLin1ELi1ELi0ELin1ELi1EEESaIS5_EEESaIS8_ENSt8__detail10_Select1stESt8equal_toImESt4hashImENSA_18_Mod_range_hashingENSA_20_Default_ranged_hashENSA_20_Prime_rehash_policyENSA_17_Hashtable_traitsILb0ELb0ELb1EEEE19_M_allocate_bucketsEm = comdat any

$_ZNKSt10_HashtableImSt4pairIKmSt6vectorIN5Eigen6MatrixIfLin1ELi1ELi0ELin1ELi1EEESaIS5_EEESaIS8_ENSt8__detail10_Select1stESt8equal_toImESt4hashImENSA_18_Mod_range_hashingENSA_20_Default_ranged_hashENSA_20_Prime_rehash_policyENSA_17_Hashtable_traitsILb0ELb0ELb1EEEE8_M_beginEv = comdat any

$_ZNSt10_HashtableImSt4pairIKmSt6vectorIN5Eigen6MatrixIfLin1ELi1ELi0ELin1ELi1EEESaIS5_EEESaIS8_ENSt8__detail10_Select1stESt8equal_toImESt4hashImENSA_18_Mod_range_hashingENSA_20_Default_ranged_hashENSA_20_Prime_rehash_policyENSA_17_Hashtable_traitsILb0ELb0ELb1EEEE21_M_deallocate_bucketsEv = comdat any

$_ZNSt8__detail16_Hashtable_allocISaINS_10_Hash_nodeISt4pairIKmSt6vectorIN5Eigen6MatrixIfLin1ELi1ELi0ELin1ELi1EEESaIS7_EEELb0EEEEE19_M_allocate_bucketsEm = comdat any

$_ZNSaIPNSt8__detail15_Hash_node_baseEEC2INS_10_Hash_nodeISt4pairIKmSt6vectorIN5Eigen6MatrixIfLin1ELi1ELi0ELin1ELi1EEESaISA_EEELb0EEEEERKSaIT_E = comdat any

$_ZNSt10_HashtableImSt4pairIKmSt6vectorIN5Eigen6MatrixIfLin1ELi1ELi0ELin1ELi1EEESaIS5_EEESaIS8_ENSt8__detail10_Select1stESt8equal_toImESt4hashImENSA_18_Mod_range_hashingENSA_20_Default_ranged_hashENSA_20_Prime_rehash_policyENSA_17_Hashtable_traitsILb0ELb0ELb1EEEE21_M_deallocate_bucketsEPPNSA_15_Hash_node_baseEm = comdat any

$_ZNKSt10_HashtableImSt4pairIKmSt6vectorIN5Eigen6MatrixIfLin1ELi1ELi0ELin1ELi1EEESaIS5_EEESaIS8_ENSt8__detail10_Select1stESt8equal_toImESt4hashImENSA_18_Mod_range_hashingENSA_20_Default_ranged_hashENSA_20_Prime_rehash_policyENSA_17_Hashtable_traitsILb0ELb0ELb1EEEE21_M_uses_single_bucketEPPNSA_15_Hash_node_baseE = comdat any

$_ZNSt8__detail16_Hashtable_allocISaINS_10_Hash_nodeISt4pairIKmSt6vectorIN5Eigen6MatrixIfLin1ELi1ELi0ELin1ELi1EEESaIS7_EEELb0EEEEE21_M_deallocate_bucketsEPPNS_15_Hash_node_baseEm = comdat any

$_ZNSt8__detail19_Node_iterator_baseISt4pairIKmSt6vectorIN5Eigen6MatrixIfLin1ELi1ELi0ELin1ELi1EEESaIS6_EEELb0EEC2EPNS_10_Hash_nodeIS9_Lb0EEE = comdat any

$_ZNSt16allocator_traitsISaIN5Eigen6MatrixIfLin1ELi1ELi0ELin1ELi1EEEEE9constructIS2_JNS1_IfLi2ELi1ELi0ELi2ELi1EEEEEEvRS3_PT_DpOT0_ = comdat any

$_ZSt7forwardIN5Eigen6MatrixIfLi2ELi1ELi0ELi2ELi1EEEEOT_RNSt16remove_referenceIS3_E4typeE = comdat any

$_ZNSt6vectorIN5Eigen6MatrixIfLin1ELi1ELi0ELin1ELi1EEESaIS2_EE19_M_emplace_back_auxIJNS1_IfLi2ELi1ELi0ELi2ELi1EEEEEEvDpOT_ = comdat any

$_ZN9__gnu_cxx13new_allocatorIN5Eigen6MatrixIfLin1ELi1ELi0ELin1ELi1EEEE9constructIS3_JNS2_IfLi2ELi1ELi0ELi2ELi1EEEEEEvPT_DpOT0_ = comdat any

$_ZN5Eigen6MatrixIfLin1ELi1ELi0ELin1ELi1EEC2INS0_IfLi2ELi1ELi0ELi2ELi1EEEEERKT_ = comdat any

$_ZN5Eigen15PlainObjectBaseINS_6MatrixIfLin1ELi1ELi0ELin1ELi1EEEEC2Ev = comdat any

$_ZN5Eigen15PlainObjectBaseINS_6MatrixIfLin1ELi1ELi0ELin1ELi1EEEE22_check_template_paramsEv = comdat any

$_ZN5Eigen15PlainObjectBaseINS_6MatrixIfLin1ELi1ELi0ELin1ELi1EEEE6_init1INS1_IfLi2ELi1ELi0ELi2ELi1EEES5_EEvRKNS_9DenseBaseIT0_EE = comdat any

$_ZN5Eigen10MatrixBaseINS_6MatrixIfLin1ELi1ELi0ELin1ELi1EEEEC2Ev = comdat any

$_ZN5Eigen12DenseStorageIfLin1ELin1ELi1ELi0EEC2Ev = comdat any

$_ZN5Eigen9DenseBaseINS_6MatrixIfLin1ELi1ELi0ELin1ELi1EEEEC2Ev = comdat any

$_ZN5Eigen15PlainObjectBaseINS_6MatrixIfLin1ELi1ELi0ELin1ELi1EEEE12_set_noaliasINS1_IfLi2ELi1ELi0ELi2ELi1EEEEERS2_RKNS_9DenseBaseIT_EE = comdat any

$_ZN5Eigen8internal24call_assignment_no_aliasINS_6MatrixIfLin1ELi1ELi0ELin1ELi1EEENS2_IfLi2ELi1ELi0ELi2ELi1EEENS0_9assign_opIfEEEEvRT_RKT0_RKT1_ = comdat any

$_ZN5Eigen9EigenBaseINS_6MatrixIfLin1ELi1ELi0ELin1ELi1EEEE7derivedEv = comdat any

$_ZNK5Eigen9EigenBaseINS_6MatrixIfLi2ELi1ELi0ELi2ELi1EEEE7derivedEv = comdat any

$_ZN5Eigen8internal9assign_opIfEC2Ev = comdat any

$_ZNK5Eigen15PlainObjectBaseINS_6MatrixIfLi2ELi1ELi0ELi2ELi1EEEE4rowsEv = comdat any

$_ZNK5Eigen15PlainObjectBaseINS_6MatrixIfLi2ELi1ELi0ELi2ELi1EEEE4colsEv = comdat any

$_ZNK5Eigen15PlainObjectBaseINS_6MatrixIfLin1ELi1ELi0ELin1ELi1EEEE4rowsEv = comdat any

$_ZNK5Eigen15PlainObjectBaseINS_6MatrixIfLin1ELi1ELi0ELin1ELi1EEEE4colsEv = comdat any

$_ZN5Eigen15PlainObjectBaseINS_6MatrixIfLin1ELi1ELi0ELin1ELi1EEEE6resizeEll = comdat any

$_ZN5Eigen8internal10AssignmentINS_6MatrixIfLin1ELi1ELi0ELin1ELi1EEENS2_IfLi2ELi1ELi0ELi2ELi1EEENS0_9assign_opIfEENS0_11Dense2DenseEfE3runERS3_RKS4_RKS6_ = comdat any

$_ZN5Eigen12DenseStorageIfLi2ELi2ELi1ELi0EE4rowsEv = comdat any

$_ZN5Eigen12DenseStorageIfLi2ELi2ELi1ELi0EE4colsEv = comdat any

$_ZNK5Eigen12DenseStorageIfLin1ELin1ELi1ELi0EE4rowsEv = comdat any

$_ZN5Eigen12DenseStorageIfLin1ELin1ELi1ELi0EE4colsEv = comdat any

$_ZN5Eigen12DenseStorageIfLin1ELin1ELi1ELi0EE6resizeElll = comdat any

$_ZN5Eigen8internal19throw_std_bad_allocEv = comdat any

$_ZN5Eigen8internal31conditional_aligned_delete_autoIfLb1EEEvPT_m = comdat any

$_ZN5Eigen8internal28conditional_aligned_new_autoIfLb1EEEPT_m = comdat any

$_ZN5Eigen8internal24conditional_aligned_freeILb1EEEvPv = comdat any

$_ZN5Eigen8internal12aligned_freeEPv = comdat any

$_ZN5Eigen8internal26conditional_aligned_mallocILb1EEEPvm = comdat any

$_ZN5Eigen8internal14aligned_mallocEm = comdat any

$_ZN5Eigen8internal28check_that_malloc_is_allowedEv = comdat any

$_ZN5Eigen8internal18check_for_aliasingINS_6MatrixIfLin1ELi1ELi0ELin1ELi1EEENS2_IfLi2ELi1ELi0ELi2ELi1EEEEEvRKT_RKT0_ = comdat any

$_ZN5Eigen8internal26call_dense_assignment_loopINS_6MatrixIfLin1ELi1ELi0ELin1ELi1EEENS2_IfLi2ELi1ELi0ELi2ELi1EEENS0_9assign_opIfEEEEvRKT_RKT0_RKT1_ = comdat any

$_ZN5Eigen8internal27checkTransposeAliasing_implINS_6MatrixIfLin1ELi1ELi0ELin1ELi1EEENS2_IfLi2ELi1ELi0ELi2ELi1EEELb0EE3runERKS3_RKS4_ = comdat any

$_ZN5Eigen8internal9evaluatorINS_6MatrixIfLin1ELi1ELi0ELin1ELi1EEEEC2ERKS3_ = comdat any

$_ZN5Eigen8internal9evaluatorINS_6MatrixIfLi2ELi1ELi0ELi2ELi1EEEEC2ERKS3_ = comdat any

$_ZNK5Eigen9EigenBaseINS_6MatrixIfLin1ELi1ELi0ELin1ELi1EEEE18const_cast_derivedEv = comdat any

$_ZN5Eigen8internal31generic_dense_assignment_kernelINS0_9evaluatorINS_6MatrixIfLin1ELi1ELi0ELin1ELi1EEEEENS2_INS3_IfLi2ELi1ELi0ELi2ELi1EEEEENS0_9assign_opIfEELi0EEC2ERS5_RKS7_RKS9_RS4_ = comdat any

$_ZN5Eigen8internal21dense_assignment_loopINS0_31generic_dense_assignment_kernelINS0_9evaluatorINS_6MatrixIfLin1ELi1ELi0ELin1ELi1EEEEENS3_INS4_IfLi2ELi1ELi0ELi2ELi1EEEEENS0_9assign_opIfEELi0EEELi1ELi0EE3runERSB_ = comdat any

$_ZN5Eigen8internal9evaluatorINS_15PlainObjectBaseINS_6MatrixIfLin1ELi1ELi0ELin1ELi1EEEEEEC2ERKS5_ = comdat any

$_ZN5Eigen8internal14evaluator_baseINS_6MatrixIfLin1ELi1ELi0ELin1ELi1EEEEC2Ev = comdat any

$_ZNK5Eigen15PlainObjectBaseINS_6MatrixIfLin1ELi1ELi0ELin1ELi1EEEE4dataEv = comdat any

$_ZN5Eigen8internal19variable_if_dynamicIlLi0EEC2El = comdat any

$_ZN5Eigen8internal11noncopyableC2Ev = comdat any

$_ZNK5Eigen12DenseStorageIfLin1ELin1ELi1ELi0EE4dataEv = comdat any

$_ZN5Eigen8internal9evaluatorINS_15PlainObjectBaseINS_6MatrixIfLi2ELi1ELi0ELi2ELi1EEEEEEC2ERKS5_ = comdat any

$_ZN5Eigen8internal14evaluator_baseINS_6MatrixIfLi2ELi1ELi0ELi2ELi1EEEEC2Ev = comdat any

$_ZNK5Eigen15PlainObjectBaseINS_6MatrixIfLi2ELi1ELi0ELi2ELi1EEEE4dataEv = comdat any

$_ZNK5Eigen12DenseStorageIfLi2ELi2ELi1ELi0EE4dataEv = comdat any

$_ZNK5Eigen8internal31generic_dense_assignment_kernelINS0_9evaluatorINS_6MatrixIfLin1ELi1ELi0ELin1ELi1EEEEENS2_INS3_IfLi2ELi1ELi0ELi2ELi1EEEEENS0_9assign_opIfEELi0EE4sizeEv = comdat any

$_ZN5Eigen8internal31generic_dense_assignment_kernelINS0_9evaluatorINS_6MatrixIfLin1ELi1ELi0ELin1ELi1EEEEENS2_INS3_IfLi2ELi1ELi0ELi2ELi1EEEEENS0_9assign_opIfEELi0EE11assignCoeffEl = comdat any

$_ZNK5Eigen9EigenBaseINS_6MatrixIfLin1ELi1ELi0ELin1ELi1EEEE4sizeEv = comdat any

$_ZNK5Eigen9EigenBaseINS_6MatrixIfLin1ELi1ELi0ELin1ELi1EEEE4rowsEv = comdat any

$_ZNK5Eigen9EigenBaseINS_6MatrixIfLin1ELi1ELi0ELin1ELi1EEEE4colsEv = comdat any

$_ZNK5Eigen9EigenBaseINS_6MatrixIfLin1ELi1ELi0ELin1ELi1EEEE7derivedEv = comdat any

$_ZNK5Eigen8internal9assign_opIfE11assignCoeffERfRKf = comdat any

$_ZN5Eigen8internal9evaluatorINS_15PlainObjectBaseINS_6MatrixIfLin1ELi1ELi0ELin1ELi1EEEEEE8coeffRefEl = comdat any

$_ZNK5Eigen8internal9evaluatorINS_15PlainObjectBaseINS_6MatrixIfLi2ELi1ELi0ELi2ELi1EEEEEE5coeffEl = comdat any

$_ZNKSt6vectorIN5Eigen6MatrixIfLin1ELi1ELi0ELin1ELi1EEESaIS2_EE12_M_check_lenEmPKc = comdat any

$_ZNSt12_Vector_baseIN5Eigen6MatrixIfLin1ELi1ELi0ELin1ELi1EEESaIS2_EE11_M_allocateEm = comdat any

$_ZNKSt6vectorIN5Eigen6MatrixIfLin1ELi1ELi0ELin1ELi1EEESaIS2_EE4sizeEv = comdat any

$_ZSt34__uninitialized_move_if_noexcept_aIPN5Eigen6MatrixIfLin1ELi1ELi0ELin1ELi1EEES3_SaIS2_EET0_T_S6_S5_RT1_ = comdat any

$_ZNSt12_Vector_baseIN5Eigen6MatrixIfLin1ELi1ELi0ELin1ELi1EEESaIS2_EE19_M_get_Tp_allocatorEv = comdat any

$_ZSt8_DestroyIPN5Eigen6MatrixIfLin1ELi1ELi0ELin1ELi1EEES2_EvT_S4_RSaIT0_E = comdat any

$_ZNSt12_Vector_baseIN5Eigen6MatrixIfLin1ELi1ELi0ELin1ELi1EEESaIS2_EE13_M_deallocateEPS2_m = comdat any

$_ZNKSt6vectorIN5Eigen6MatrixIfLin1ELi1ELi0ELin1ELi1EEESaIS2_EE8max_sizeEv = comdat any

$_ZSt3maxImERKT_S2_S2_ = comdat any

$_ZNSt16allocator_traitsISaIN5Eigen6MatrixIfLin1ELi1ELi0ELin1ELi1EEEEE8max_sizeERKS3_ = comdat any

$_ZNKSt12_Vector_baseIN5Eigen6MatrixIfLin1ELi1ELi0ELin1ELi1EEESaIS2_EE19_M_get_Tp_allocatorEv = comdat any

$_ZNK9__gnu_cxx13new_allocatorIN5Eigen6MatrixIfLin1ELi1ELi0ELin1ELi1EEEE8max_sizeEv = comdat any

$_ZNSt16allocator_traitsISaIN5Eigen6MatrixIfLin1ELi1ELi0ELin1ELi1EEEEE8allocateERS3_m = comdat any

$_ZN9__gnu_cxx13new_allocatorIN5Eigen6MatrixIfLin1ELi1ELi0ELin1ELi1EEEE8allocateEmPKv = comdat any

$_ZSt22__uninitialized_copy_aIPN5Eigen6MatrixIfLin1ELi1ELi0ELin1ELi1EEES3_S2_ET0_T_S5_S4_RSaIT1_E = comdat any

$_ZSt32__make_move_if_noexcept_iteratorIPN5Eigen6MatrixIfLin1ELi1ELi0ELin1ELi1EEES3_ET0_T_ = comdat any

$_ZSt18uninitialized_copyIPN5Eigen6MatrixIfLin1ELi1ELi0ELin1ELi1EEES3_ET0_T_S5_S4_ = comdat any

$_ZNSt20__uninitialized_copyILb0EE13__uninit_copyIPN5Eigen6MatrixIfLin1ELi1ELi0ELin1ELi1EEES5_EET0_T_S7_S6_ = comdat any

$_ZSt10_ConstructIN5Eigen6MatrixIfLin1ELi1ELi0ELin1ELi1EEEJRS2_EEvPT_DpOT0_ = comdat any

$_ZSt11__addressofIN5Eigen6MatrixIfLin1ELi1ELi0ELin1ELi1EEEEPT_RS3_ = comdat any

$_ZSt7forwardIRN5Eigen6MatrixIfLin1ELi1ELi0ELin1ELi1EEEEOT_RNSt16remove_referenceIS4_E4typeE = comdat any

$_ZN5Eigen6MatrixIfLin1ELi1ELi0ELin1ELi1EEC2ERKS1_ = comdat any

$_ZN5Eigen15PlainObjectBaseINS_6MatrixIfLin1ELi1ELi0ELin1ELi1EEEEC2ERKS3_ = comdat any

$_ZN5Eigen12DenseStorageIfLin1ELin1ELi1ELi0EEC2ERKS1_ = comdat any

$_ZN5Eigen8internal10smart_copyIfEEvPKT_S4_PS2_ = comdat any

$_ZN5Eigen8internal17smart_copy_helperIfLb1EE3runEPKfS4_Pf = comdat any

$_ZSt8_DestroyIPN5Eigen6MatrixIfLin1ELi1ELi0ELin1ELi1EEEEvT_S4_ = comdat any

$_ZNSt12_Destroy_auxILb0EE9__destroyIPN5Eigen6MatrixIfLin1ELi1ELi0ELin1ELi1EEEEEvT_S6_ = comdat any

$_ZSt8_DestroyIN5Eigen6MatrixIfLin1ELi1ELi0ELin1ELi1EEEEvPT_ = comdat any

$_ZN5Eigen15PlainObjectBaseINS_6MatrixIfLin1ELi1ELi0ELin1ELi1EEEED2Ev = comdat any

$_ZN5Eigen12DenseStorageIfLin1ELin1ELi1ELi0EED2Ev = comdat any

$_ZNSt16allocator_traitsISaIN5Eigen6MatrixIfLin1ELi1ELi0ELin1ELi1EEEEE10deallocateERS3_PS2_m = comdat any

$_ZN9__gnu_cxx13new_allocatorIN5Eigen6MatrixIfLin1ELi1ELi0ELin1ELi1EEEE10deallocateEPS3_m = comdat any

$_ZN5Eigen15PlainObjectBaseINS_6MatrixIfLi2ELi1ELi0ELi2ELi1EEEEC2Ev = comdat any

$_ZN5Eigen15PlainObjectBaseINS_6MatrixIfLi2ELi1ELi0ELi2ELi1EEEE22_check_template_paramsEv = comdat any

$_ZN5Eigen15PlainObjectBaseINS_6MatrixIfLi2ELi1ELi0ELi2ELi1EEEE6_init2IffEEvRKfS6_PNS_8internal9enable_ifILb1ET_E4typeE = comdat any

$_ZN5Eigen10MatrixBaseINS_6MatrixIfLi2ELi1ELi0ELi2ELi1EEEEC2Ev = comdat any

$_ZN5Eigen12DenseStorageIfLi2ELi2ELi1ELi0EEC2Ev = comdat any

$_ZN5Eigen9DenseBaseINS_6MatrixIfLi2ELi1ELi0ELi2ELi1EEEEC2Ev = comdat any

$_ZN5Eigen8internal11plain_arrayIfLi2ELi0ELi0EEC2Ev = comdat any

$_ZN5Eigen8internal28check_static_allocation_sizeIfLi2EEEvv = comdat any

$_ZN5Eigen12DenseStorageIfLi2ELi2ELi1ELi0EE4dataEv = comdat any

$_ZNSt8__detail9_Map_baseImSt4pairIKmSt6vectorIdSaIdEEESaIS6_ENS_10_Select1stESt8equal_toImESt4hashImENS_18_Mod_range_hashingENS_20_Default_ranged_hashENS_20_Prime_rehash_policyENS_17_Hashtable_traitsILb0ELb0ELb1EEELb1EEixERS2_ = comdat any

$_ZNKSt8__detail15_Hash_code_baseImSt4pairIKmSt6vectorIdSaIdEEENS_10_Select1stESt4hashImENS_18_Mod_range_hashingENS_20_Default_ranged_hashELb0EE12_M_hash_codeERS2_ = comdat any

$_ZNKSt10_HashtableImSt4pairIKmSt6vectorIdSaIdEEESaIS5_ENSt8__detail10_Select1stESt8equal_toImESt4hashImENS7_18_Mod_range_hashingENS7_20_Default_ranged_hashENS7_20_Prime_rehash_policyENS7_17_Hashtable_traitsILb0ELb0ELb1EEEE15_M_bucket_indexERS1_m = comdat any

$_ZNKSt10_HashtableImSt4pairIKmSt6vectorIdSaIdEEESaIS5_ENSt8__detail10_Select1stESt8equal_toImESt4hashImENS7_18_Mod_range_hashingENS7_20_Default_ranged_hashENS7_20_Prime_rehash_policyENS7_17_Hashtable_traitsILb0ELb0ELb1EEEE12_M_find_nodeEmRS1_m = comdat any

$_ZNSt8__detail16_Hashtable_allocISaINS_10_Hash_nodeISt4pairIKmSt6vectorIdSaIdEEELb0EEEEE16_M_allocate_nodeIJRKSt21piecewise_construct_tSt5tupleIJRS3_EESF_IJEEEEEPS8_DpOT_ = comdat any

$_ZNSt10_HashtableImSt4pairIKmSt6vectorIdSaIdEEESaIS5_ENSt8__detail10_Select1stESt8equal_toImESt4hashImENS7_18_Mod_range_hashingENS7_20_Default_ranged_hashENS7_20_Prime_rehash_policyENS7_17_Hashtable_traitsILb0ELb0ELb1EEEE21_M_insert_unique_nodeEmmPNS7_10_Hash_nodeIS5_Lb0EEE = comdat any

$_ZNKSt8__detail14_Node_iteratorISt4pairIKmSt6vectorIdSaIdEEELb0ELb0EEptEv = comdat any

$_ZNSt8__detail21_Hash_node_value_baseISt4pairIKmSt6vectorIdSaIdEEEE4_M_vEv = comdat any

$_ZNKSt8__detail15_Hash_code_baseImSt4pairIKmSt6vectorIdSaIdEEENS_10_Select1stESt4hashImENS_18_Mod_range_hashingENS_20_Default_ranged_hashELb0EE5_M_h1Ev = comdat any

$_ZNKSt8__detail15_Hash_code_baseImSt4pairIKmSt6vectorIdSaIdEEENS_10_Select1stESt4hashImENS_18_Mod_range_hashingENS_20_Default_ranged_hashELb0EE15_M_bucket_indexERS2_mm = comdat any

$_ZNKSt8__detail15_Hash_code_baseImSt4pairIKmSt6vectorIdSaIdEEENS_10_Select1stESt4hashImENS_18_Mod_range_hashingENS_20_Default_ranged_hashELb0EE5_M_h2Ev = comdat any

$_ZNKSt10_HashtableImSt4pairIKmSt6vectorIdSaIdEEESaIS5_ENSt8__detail10_Select1stESt8equal_toImESt4hashImENS7_18_Mod_range_hashingENS7_20_Default_ranged_hashENS7_20_Prime_rehash_policyENS7_17_Hashtable_traitsILb0ELb0ELb1EEEE19_M_find_before_nodeEmRS1_m = comdat any

$_ZNKSt8__detail15_Hashtable_baseImSt4pairIKmSt6vectorIdSaIdEEENS_10_Select1stESt8equal_toImESt4hashImENS_18_Mod_range_hashingENS_20_Default_ranged_hashENS_17_Hashtable_traitsILb0ELb0ELb1EEEE9_M_equalsERS2_mPNS_10_Hash_nodeIS6_Lb0EEE = comdat any

$_ZNKSt10_HashtableImSt4pairIKmSt6vectorIdSaIdEEESaIS5_ENSt8__detail10_Select1stESt8equal_toImESt4hashImENS7_18_Mod_range_hashingENS7_20_Default_ranged_hashENS7_20_Prime_rehash_policyENS7_17_Hashtable_traitsILb0ELb0ELb1EEEE15_M_bucket_indexEPNS7_10_Hash_nodeIS5_Lb0EEE = comdat any

$_ZNKSt8__detail10_Hash_nodeISt4pairIKmSt6vectorIdSaIdEEELb0EE7_M_nextEv = comdat any

$_ZNSt8__detail13_Equal_helperImSt4pairIKmSt6vectorIdSaIdEEENS_10_Select1stESt8equal_toImEmLb0EE9_S_equalsERKS9_RKS7_RS2_mPNS_10_Hash_nodeIS6_Lb0EEE = comdat any

$_ZNKSt8__detail15_Hashtable_baseImSt4pairIKmSt6vectorIdSaIdEEENS_10_Select1stESt8equal_toImESt4hashImENS_18_Mod_range_hashingENS_20_Default_ranged_hashENS_17_Hashtable_traitsILb0ELb0ELb1EEEE5_M_eqEv = comdat any

$_ZNKSt8__detail15_Hash_code_baseImSt4pairIKmSt6vectorIdSaIdEEENS_10_Select1stESt4hashImENS_18_Mod_range_hashingENS_20_Default_ranged_hashELb0EE10_M_extractEv = comdat any

$_ZNKSt8__detail10_Select1stclIRSt4pairIKmSt6vectorIdSaIdEEEEEDTclsr3stdE3getIXLi0EEEclsr3stdE7forwardIT_Efp_EEEOS9_ = comdat any

$_ZSt3getILm0EKmSt6vectorIdSaIdEEERNSt13tuple_elementIXT_ESt4pairIT0_T1_EE4typeERS8_ = comdat any

$_ZSt7forwardIRSt4pairIKmSt6vectorIdSaIdEEEEOT_RNSt16remove_referenceIS7_E4typeE = comdat any

$_ZNSt10__pair_getILm0EE5__getIKmSt6vectorIdSaIdEEEERT_RSt4pairIS6_T0_E = comdat any

$_ZNKSt8__detail15_Hash_code_baseImSt4pairIKmSt6vectorIdSaIdEEENS_10_Select1stESt4hashImENS_18_Mod_range_hashingENS_20_Default_ranged_hashELb0EE15_M_bucket_indexEPKNS_10_Hash_nodeIS6_Lb0EEEm = comdat any

$_ZNKSt8__detail10_Select1stclIRKSt4pairIKmSt6vectorIdSaIdEEEEEDTclsr3stdE3getIXLi0EEEclsr3stdE7forwardIT_Efp_EEEOSA_ = comdat any

$_ZNKSt8__detail21_Hash_node_value_baseISt4pairIKmSt6vectorIdSaIdEEEE4_M_vEv = comdat any

$_ZSt3getILm0EKmSt6vectorIdSaIdEEERKNSt13tuple_elementIXT_ESt4pairIT0_T1_EE4typeERKS8_ = comdat any

$_ZSt7forwardIRKSt4pairIKmSt6vectorIdSaIdEEEEOT_RNSt16remove_referenceIS8_E4typeE = comdat any

$_ZNSt10__pair_getILm0EE11__const_getIKmSt6vectorIdSaIdEEEERKT_RKSt4pairIS6_T0_E = comdat any

$_ZNKSt8__detail21_Hash_node_value_baseISt4pairIKmSt6vectorIdSaIdEEEE9_M_valptrEv = comdat any

$_ZNK9__gnu_cxx16__aligned_bufferISt4pairIKmSt6vectorIdSaIdEEEE6_M_ptrEv = comdat any

$_ZNK9__gnu_cxx16__aligned_bufferISt4pairIKmSt6vectorIdSaIdEEEE7_M_addrEv = comdat any

$_ZNSt16allocator_traitsISaINSt8__detail10_Hash_nodeISt4pairIKmSt6vectorIdSaIdEEELb0EEEEE8allocateERS9_m = comdat any

$_ZNSt8__detail16_Hashtable_allocISaINS_10_Hash_nodeISt4pairIKmSt6vectorIdSaIdEEELb0EEEEE17_M_node_allocatorEv = comdat any

$_ZSt11__addressofINSt8__detail10_Hash_nodeISt4pairIKmSt6vectorIdSaIdEEELb0EEEEPT_RS9_ = comdat any

$_ZNSaISt4pairIKmSt6vectorIdSaIdEEEEC2INSt8__detail10_Hash_nodeIS4_Lb0EEEEERKSaIT_E = comdat any

$_ZNSt8__detail10_Hash_nodeISt4pairIKmSt6vectorIdSaIdEEELb0EEC2Ev = comdat any

$_ZNSt16allocator_traitsISaISt4pairIKmSt6vectorIdSaIdEEEEE9constructIS5_JRKSt21piecewise_construct_tSt5tupleIJRS1_EESC_IJEEEEEvRS6_PT_DpOT0_ = comdat any

$_ZNSt8__detail21_Hash_node_value_baseISt4pairIKmSt6vectorIdSaIdEEEE9_M_valptrEv = comdat any

$_ZN9__gnu_cxx13new_allocatorISt4pairIKmSt6vectorIdSaIdEEEED2Ev = comdat any

$_ZN9__gnu_cxx13new_allocatorINSt8__detail10_Hash_nodeISt4pairIKmSt6vectorIdSaIdEEELb0EEEE8allocateEmPKv = comdat any

$_ZNK9__gnu_cxx13new_allocatorINSt8__detail10_Hash_nodeISt4pairIKmSt6vectorIdSaIdEEELb0EEEE8max_sizeEv = comdat any

$_ZNSt8__detail21_Hashtable_ebo_helperILi0ESaINS_10_Hash_nodeISt4pairIKmSt6vectorIdSaIdEEELb0EEEELb1EE6_S_getERSA_ = comdat any

$_ZN9__gnu_cxx13new_allocatorISt4pairIKmSt6vectorIdSaIdEEEEC2Ev = comdat any

$_ZNSt8__detail21_Hash_node_value_baseISt4pairIKmSt6vectorIdSaIdEEEEC2Ev = comdat any

$_ZN9__gnu_cxx13new_allocatorISt4pairIKmSt6vectorIdSaIdEEEE9constructIS6_JRKSt21piecewise_construct_tSt5tupleIJRS2_EESC_IJEEEEEvPT_DpOT0_ = comdat any

$_ZNSt4pairIKmSt6vectorIdSaIdEEEC2IJRS0_EJEEESt21piecewise_construct_tSt5tupleIJDpT_EES8_IJDpT0_EE = comdat any

$_ZNSt4pairIKmSt6vectorIdSaIdEEEC2IJRS0_EJLm0EEJEJEEERSt5tupleIJDpT_EERS7_IJDpT1_EESt12_Index_tupleIJXspT0_EEESG_IJXspT2_EEE = comdat any

$_ZNSt6vectorIdSaIdEEC2Ev = comdat any

$_ZNSt12_Vector_baseIdSaIdEEC2Ev = comdat any

$_ZNSt12_Vector_baseIdSaIdEE12_Vector_implC2Ev = comdat any

$_ZNSaIdEC2Ev = comdat any

$_ZN9__gnu_cxx13new_allocatorIdEC2Ev = comdat any

$_ZN9__gnu_cxx16__aligned_bufferISt4pairIKmSt6vectorIdSaIdEEEE6_M_ptrEv = comdat any

$_ZN9__gnu_cxx16__aligned_bufferISt4pairIKmSt6vectorIdSaIdEEEE7_M_addrEv = comdat any

$_ZNSt10_HashtableImSt4pairIKmSt6vectorIdSaIdEEESaIS5_ENSt8__detail10_Select1stESt8equal_toImESt4hashImENS7_18_Mod_range_hashingENS7_20_Default_ranged_hashENS7_20_Prime_rehash_policyENS7_17_Hashtable_traitsILb0ELb0ELb1EEEE9_M_rehashEmRS1_ = comdat any

$_ZNSt8__detail15_Hash_code_baseImSt4pairIKmSt6vectorIdSaIdEEENS_10_Select1stESt4hashImENS_18_Mod_range_hashingENS_20_Default_ranged_hashELb0EE10_M_extractEv = comdat any

$_ZNKSt8__detail15_Hash_code_baseImSt4pairIKmSt6vectorIdSaIdEEENS_10_Select1stESt4hashImENS_18_Mod_range_hashingENS_20_Default_ranged_hashELb0EE13_M_store_codeEPNS_10_Hash_nodeIS6_Lb0EEEm = comdat any

$_ZNSt10_HashtableImSt4pairIKmSt6vectorIdSaIdEEESaIS5_ENSt8__detail10_Select1stESt8equal_toImESt4hashImENS7_18_Mod_range_hashingENS7_20_Default_ranged_hashENS7_20_Prime_rehash_policyENS7_17_Hashtable_traitsILb0ELb0ELb1EEEE22_M_insert_bucket_beginEmPNS7_10_Hash_nodeIS5_Lb0EEE = comdat any

$_ZNSt8__detail14_Node_iteratorISt4pairIKmSt6vectorIdSaIdEEELb0ELb0EEC2EPNS_10_Hash_nodeIS6_Lb0EEE = comdat any

$_ZNSt10_HashtableImSt4pairIKmSt6vectorIdSaIdEEESaIS5_ENSt8__detail10_Select1stESt8equal_toImESt4hashImENS7_18_Mod_range_hashingENS7_20_Default_ranged_hashENS7_20_Prime_rehash_policyENS7_17_Hashtable_traitsILb0ELb0ELb1EEEE13_M_rehash_auxEmSt17integral_constantIbLb1EE = comdat any

$_ZNSt10_HashtableImSt4pairIKmSt6vectorIdSaIdEEESaIS5_ENSt8__detail10_Select1stESt8equal_toImESt4hashImENS7_18_Mod_range_hashingENS7_20_Default_ranged_hashENS7_20_Prime_rehash_policyENS7_17_Hashtable_traitsILb0ELb0ELb1EEEE19_M_allocate_bucketsEm = comdat any

$_ZNKSt10_HashtableImSt4pairIKmSt6vectorIdSaIdEEESaIS5_ENSt8__detail10_Select1stESt8equal_toImESt4hashImENS7_18_Mod_range_hashingENS7_20_Default_ranged_hashENS7_20_Prime_rehash_policyENS7_17_Hashtable_traitsILb0ELb0ELb1EEEE8_M_beginEv = comdat any

$_ZNSt10_HashtableImSt4pairIKmSt6vectorIdSaIdEEESaIS5_ENSt8__detail10_Select1stESt8equal_toImESt4hashImENS7_18_Mod_range_hashingENS7_20_Default_ranged_hashENS7_20_Prime_rehash_policyENS7_17_Hashtable_traitsILb0ELb0ELb1EEEE21_M_deallocate_bucketsEv = comdat any

$_ZNSt8__detail16_Hashtable_allocISaINS_10_Hash_nodeISt4pairIKmSt6vectorIdSaIdEEELb0EEEEE19_M_allocate_bucketsEm = comdat any

$_ZNSaIPNSt8__detail15_Hash_node_baseEEC2INS_10_Hash_nodeISt4pairIKmSt6vectorIdSaIdEEELb0EEEEERKSaIT_E = comdat any

$_ZNSt10_HashtableImSt4pairIKmSt6vectorIdSaIdEEESaIS5_ENSt8__detail10_Select1stESt8equal_toImESt4hashImENS7_18_Mod_range_hashingENS7_20_Default_ranged_hashENS7_20_Prime_rehash_policyENS7_17_Hashtable_traitsILb0ELb0ELb1EEEE21_M_deallocate_bucketsEPPNS7_15_Hash_node_baseEm = comdat any

$_ZNKSt10_HashtableImSt4pairIKmSt6vectorIdSaIdEEESaIS5_ENSt8__detail10_Select1stESt8equal_toImESt4hashImENS7_18_Mod_range_hashingENS7_20_Default_ranged_hashENS7_20_Prime_rehash_policyENS7_17_Hashtable_traitsILb0ELb0ELb1EEEE21_M_uses_single_bucketEPPNS7_15_Hash_node_baseE = comdat any

$_ZNSt8__detail16_Hashtable_allocISaINS_10_Hash_nodeISt4pairIKmSt6vectorIdSaIdEEELb0EEEEE21_M_deallocate_bucketsEPPNS_15_Hash_node_baseEm = comdat any

$_ZNSt8__detail19_Node_iterator_baseISt4pairIKmSt6vectorIdSaIdEEELb0EEC2EPNS_10_Hash_nodeIS6_Lb0EEE = comdat any

$_ZNSt16allocator_traitsISaIdEE9constructIdJRdEEEvRS0_PT_DpOT0_ = comdat any

$_ZSt7forwardIRdEOT_RNSt16remove_referenceIS1_E4typeE = comdat any

$_ZNSt6vectorIdSaIdEE19_M_emplace_back_auxIJRdEEEvDpOT_ = comdat any

$_ZN9__gnu_cxx13new_allocatorIdE9constructIdJRdEEEvPT_DpOT0_ = comdat any

$_ZNKSt6vectorIdSaIdEE12_M_check_lenEmPKc = comdat any

$_ZNSt12_Vector_baseIdSaIdEE11_M_allocateEm = comdat any

$_ZNKSt6vectorIdSaIdEE4sizeEv = comdat any

$_ZSt34__uninitialized_move_if_noexcept_aIPdS0_SaIdEET0_T_S3_S2_RT1_ = comdat any

$_ZNSt12_Vector_baseIdSaIdEE19_M_get_Tp_allocatorEv = comdat any

$_ZSt8_DestroyIPddEvT_S1_RSaIT0_E = comdat any

$_ZNSt12_Vector_baseIdSaIdEE13_M_deallocateEPdm = comdat any

$_ZNKSt6vectorIdSaIdEE8max_sizeEv = comdat any

$_ZNSt16allocator_traitsISaIdEE8max_sizeERKS0_ = comdat any

$_ZNKSt12_Vector_baseIdSaIdEE19_M_get_Tp_allocatorEv = comdat any

$_ZNK9__gnu_cxx13new_allocatorIdE8max_sizeEv = comdat any

$_ZNSt16allocator_traitsISaIdEE8allocateERS0_m = comdat any

$_ZN9__gnu_cxx13new_allocatorIdE8allocateEmPKv = comdat any

$_ZSt22__uninitialized_copy_aISt13move_iteratorIPdES1_dET0_T_S4_S3_RSaIT1_E = comdat any

$_ZSt32__make_move_if_noexcept_iteratorIPdSt13move_iteratorIS0_EET0_T_ = comdat any

$_ZSt18uninitialized_copyISt13move_iteratorIPdES1_ET0_T_S4_S3_ = comdat any

$_ZNSt20__uninitialized_copyILb1EE13__uninit_copyISt13move_iteratorIPdES3_EET0_T_S6_S5_ = comdat any

$_ZSt4copyISt13move_iteratorIPdES1_ET0_T_S4_S3_ = comdat any

$_ZSt14__copy_move_a2ILb1EPdS0_ET1_T0_S2_S1_ = comdat any

$_ZSt12__miter_baseISt13move_iteratorIPdEENSt11_Miter_baseIT_E13iterator_typeES4_ = comdat any

$_ZSt13__copy_move_aILb1EPdS0_ET1_T0_S2_S1_ = comdat any

$_ZSt12__niter_baseIPdENSt11_Niter_baseIT_E13iterator_typeES2_ = comdat any

$_ZNSt11__copy_moveILb1ELb1ESt26random_access_iterator_tagE8__copy_mIdEEPT_PKS3_S6_S4_ = comdat any

$_ZNSt10_Iter_baseIPdLb0EE7_S_baseES0_ = comdat any

$_ZNSt10_Iter_baseISt13move_iteratorIPdELb1EE7_S_baseES2_ = comdat any

$_ZNKSt13move_iteratorIPdE4baseEv = comdat any

$_ZNSt13move_iteratorIPdEC2ES0_ = comdat any

$_ZSt8_DestroyIPdEvT_S1_ = comdat any

$_ZNSt12_Destroy_auxILb1EE9__destroyIPdEEvT_S3_ = comdat any

$_ZNSt16allocator_traitsISaIdEE10deallocateERS0_Pdm = comdat any

$_ZN9__gnu_cxx13new_allocatorIdE10deallocateEPdm = comdat any

$_ZNSt13unordered_mapImSt6vectorIN5Eigen6MatrixIfLin1ELi1ELi0ELin1ELi1EEESaIS3_EESt4hashImESt8equal_toImESaISt4pairIKmS5_EEEC2Ev = comdat any

$_ZNSt13unordered_mapImSt6vectorIdSaIdEESt4hashImESt8equal_toImESaISt4pairIKmS2_EEEC2Ev = comdat any

$_ZN5Eigen6MatrixIdLi3ELi1ELi0ELi3ELi1EEC2Ev = comdat any

$_ZNSt10_HashtableImSt4pairIKmSt6vectorIN5Eigen6MatrixIfLin1ELi1ELi0ELin1ELi1EEESaIS5_EEESaIS8_ENSt8__detail10_Select1stESt8equal_toImESt4hashImENSA_18_Mod_range_hashingENSA_20_Default_ranged_hashENSA_20_Prime_rehash_policyENSA_17_Hashtable_traitsILb0ELb0ELb1EEEEC2Ev = comdat any

$_ZNSt8__detail16_Hashtable_allocISaINS_10_Hash_nodeISt4pairIKmSt6vectorIN5Eigen6MatrixIfLin1ELi1ELi0ELin1ELi1EEESaIS7_EEELb0EEEEEC2Ev = comdat any

$_ZNSt8__detail15_Hash_node_baseC2Ev = comdat any

$_ZNSt8__detail20_Prime_rehash_policyC2Ef = comdat any

$_ZNSt8__detail21_Hashtable_ebo_helperILi0ESaINS_10_Hash_nodeISt4pairIKmSt6vectorIN5Eigen6MatrixIfLin1ELi1ELi0ELin1ELi1EEESaIS7_EEELb0EEEELb1EEC2Ev = comdat any

$_ZNSaINSt8__detail10_Hash_nodeISt4pairIKmSt6vectorIN5Eigen6MatrixIfLin1ELi1ELi0ELin1ELi1EEESaIS6_EEELb0EEEEC2Ev = comdat any

$_ZN9__gnu_cxx13new_allocatorINSt8__detail10_Hash_nodeISt4pairIKmSt6vectorIN5Eigen6MatrixIfLin1ELi1ELi0ELin1ELi1EEESaIS8_EEELb0EEEEC2Ev = comdat any

$_ZNSt10_HashtableImSt4pairIKmSt6vectorIdSaIdEEESaIS5_ENSt8__detail10_Select1stESt8equal_toImESt4hashImENS7_18_Mod_range_hashingENS7_20_Default_ranged_hashENS7_20_Prime_rehash_policyENS7_17_Hashtable_traitsILb0ELb0ELb1EEEEC2Ev = comdat any

$_ZNSt8__detail16_Hashtable_allocISaINS_10_Hash_nodeISt4pairIKmSt6vectorIdSaIdEEELb0EEEEEC2Ev = comdat any

$_ZNSt8__detail21_Hashtable_ebo_helperILi0ESaINS_10_Hash_nodeISt4pairIKmSt6vectorIdSaIdEEELb0EEEELb1EEC2Ev = comdat any

$_ZNSaINSt8__detail10_Hash_nodeISt4pairIKmSt6vectorIdSaIdEEELb0EEEEC2Ev = comdat any

$_ZN9__gnu_cxx13new_allocatorINSt8__detail10_Hash_nodeISt4pairIKmSt6vectorIdSaIdEEELb0EEEEC2Ev = comdat any

$_ZN5Eigen15PlainObjectBaseINS_6MatrixIdLi3ELi1ELi0ELi3ELi1EEEEC2Ev = comdat any

$_ZN5Eigen15PlainObjectBaseINS_6MatrixIdLi3ELi1ELi0ELi3ELi1EEEE22_check_template_paramsEv = comdat any

$_ZN5Eigen10MatrixBaseINS_6MatrixIdLi3ELi1ELi0ELi3ELi1EEEEC2Ev = comdat any

$_ZN5Eigen12DenseStorageIdLi3ELi3ELi1ELi0EEC2Ev = comdat any

$_ZN5Eigen9DenseBaseINS_6MatrixIdLi3ELi1ELi0ELi3ELi1EEEEC2Ev = comdat any

$_ZN5Eigen8internal11plain_arrayIdLi3ELi0ELi0EEC2Ev = comdat any

$_ZN5Eigen8internal28check_static_allocation_sizeIdLi3EEEvv = comdat any

$_ZNSt8__detail12_Insert_baseImSt4pairIKmPN7ov_core7FeatureEESaIS6_ENS_10_Select1stESt8equal_toImESt4hashImENS_18_Mod_range_hashingENS_20_Default_ranged_hashENS_20_Prime_rehash_policyENS_17_Hashtable_traitsILb0ELb0ELb1EEEE6insertERKS6_ = comdat any

$_ZNSt8__detail12_Insert_baseImSt4pairIKmPN7ov_core7FeatureEESaIS6_ENS_10_Select1stESt8equal_toImESt4hashImENS_18_Mod_range_hashingENS_20_Default_ranged_hashENS_20_Prime_rehash_policyENS_17_Hashtable_traitsILb0ELb0ELb1EEEE20_M_conjure_hashtableEv = comdat any

$_ZNSt8__detail10_AllocNodeISaINS_10_Hash_nodeISt4pairIKmPN7ov_core7FeatureEELb0EEEEEC2ERNS_16_Hashtable_allocIS9_EE = comdat any

$_ZNSt10_HashtableImSt4pairIKmPN7ov_core7FeatureEESaIS5_ENSt8__detail10_Select1stESt8equal_toImESt4hashImENS7_18_Mod_range_hashingENS7_20_Default_ranged_hashENS7_20_Prime_rehash_policyENS7_17_Hashtable_traitsILb0ELb0ELb1EEEE9_M_insertIRKS5_NS7_10_AllocNodeISaINS7_10_Hash_nodeIS5_Lb0EEEEEEEES0_INS7_14_Node_iteratorIS5_Lb0ELb0EEEbEOT_RKT0_St17integral_constantIbLb1EE = comdat any

$_ZSt9make_pairINSt8__detail14_Node_iteratorISt4pairIKmPN7ov_core7FeatureEELb0ELb0EEEbES2_INSt17__decay_and_stripIT_E6__typeENS9_IT0_E6__typeEEOSA_OSD_ = comdat any

$_ZNKSt8__detail10_AllocNodeISaINS_10_Hash_nodeISt4pairIKmPN7ov_core7FeatureEELb0EEEEEclIRKS7_EEPS8_OT_ = comdat any

$_ZSt7forwardINSt8__detail14_Node_iteratorISt4pairIKmPN7ov_core7FeatureEELb0ELb0EEEEOT_RNSt16remove_referenceIS9_E4typeE = comdat any

$_ZSt7forwardIbEOT_RNSt16remove_referenceIS0_E4typeE = comdat any

$_ZNSt4pairINSt8__detail14_Node_iteratorIS_IKmPN7ov_core7FeatureEELb0ELb0EEEbEC2IS7_bvEEOT_OT0_ = comdat any

$_ZNSt8__detail16_Hashtable_allocISaINS_10_Hash_nodeISt4pairIKmPN7ov_core7FeatureEELb0EEEEE16_M_allocate_nodeIJRKS7_EEEPS8_DpOT_ = comdat any

$_ZNSt16allocator_traitsISaISt4pairIKmPN7ov_core7FeatureEEEE9constructIS5_JRKS5_EEEvRS6_PT_DpOT0_ = comdat any

$_ZN9__gnu_cxx13new_allocatorISt4pairIKmPN7ov_core7FeatureEEE9constructIS6_JRKS6_EEEvPT_DpOT0_ = comdat any

$_ZSt7forwardIRmEOT_RNSt16remove_referenceIS1_E4typeE = comdat any

$_ZSt7forwardIRPN7ov_core7FeatureEEOT_RNSt16remove_referenceIS4_E4typeE = comdat any

$_ZN5boost11this_thread6get_idEv = comdat any

$_ZNK5boost6thread2ideqERKS1_ = comdat any

$_ZNK5boost6thread6get_idEv = comdat any

$_ZN5boost21thread_resource_errorC2EiPKc = comdat any

$_ZN5boost6thread2idC2Em = comdat any

$_ZN5boost16thread_exceptionC2EiPKc = comdat any

$_ZN5boost21thread_resource_errorD0Ev = comdat any

$_ZN5boost6system10error_codeC2EiRKNS0_14error_categoryE = comdat any

$_ZN5boost6system12system_errorC2ENS0_10error_codeEPKc = comdat any

$_ZN5boost6system12system_errorD2Ev = comdat any

$_ZN5boost16thread_exceptionD0Ev = comdat any

$_ZNSt14pointer_traitsIPcE10pointer_toERc = comdat any

$_ZSt9addressofIcEPT_RS0_ = comdat any

$_ZSt11__addressofIcEPT_RS0_ = comdat any

$_ZN9__gnu_cxx13new_allocatorIcEC2Ev = comdat any

$_ZN9__gnu_cxx13new_allocatorIcEC2ERKS1_ = comdat any

$_ZN9__gnu_cxx13new_allocatorIcED2Ev = comdat any

$_ZNSt11char_traitsIcE6assignERcRKc = comdat any

$_ZN5boost10shared_ptrINS_6detail16thread_data_baseEED2Ev = comdat any

$_ZN5boost6detail12shared_countD2Ev = comdat any

$_ZN5boost6detail15sp_counted_base7releaseEv = comdat any

$_ZN5boost6detail16atomic_decrementEPU7_Atomici = comdat any

$_ZN5boost6detail15sp_counted_base12weak_releaseEv = comdat any

$_ZSt5floorIiEN9__gnu_cxx11__enable_ifIXsr12__is_integerIT_EE7__valueEdE6__typeES2_ = comdat any

$_ZNSaISt6vectorIN2cv8KeyPointESaIS1_EEEC2Ev = comdat any

$_ZNSt6vectorIS_IN2cv8KeyPointESaIS1_EESaIS3_EEC2EmRKS4_ = comdat any

$_ZN9__gnu_cxx13new_allocatorISt6vectorIN2cv8KeyPointESaIS3_EEED2Ev = comdat any

$_ZN2cv13parallel_for_ERKNS_5RangeESt8functionIFvS2_EEd = comdat any

$_ZN2cv5RangeC2Eii = comdat any

$_ZNSt8functionIFvRKN2cv5RangeEEEC2IZN7ov_core11Grider_FAST15perform_gridingERKNS0_3MatERSt6vectorINS0_8KeyPointESaISD_EEiiiibEUlS3_E_vvEET_ = comdat any

$_ZNSt14_Function_baseD2Ev = comdat any

$_ZNKSt6vectorIS_IN2cv8KeyPointESaIS1_EESaIS3_EE4sizeEv = comdat any

$_ZNSt6vectorIN2cv8KeyPointESaIS1_EE6insertIN9__gnu_cxx17__normal_iteratorIPS1_S3_EEvEES8_NS6_IPKS1_S3_EET_SC_ = comdat any

$_ZNSt6vectorIS_IN2cv8KeyPointESaIS1_EESaIS3_EE2atEm = comdat any

$_ZNSt6vectorIS_IN2cv8KeyPointESaIS1_EESaIS3_EED2Ev = comdat any

$_ZN9__gnu_cxx13new_allocatorISt6vectorIN2cv8KeyPointESaIS3_EEEC2Ev = comdat any

$_ZNSt12_Vector_baseISt6vectorIN2cv8KeyPointESaIS2_EESaIS4_EEC2EmRKS5_ = comdat any

$_ZNSt6vectorIS_IN2cv8KeyPointESaIS1_EESaIS3_EE21_M_default_initializeEm = comdat any

$_ZNSt12_Vector_baseISt6vectorIN2cv8KeyPointESaIS2_EESaIS4_EE12_Vector_implC2ERKS5_ = comdat any

$_ZNSt12_Vector_baseISt6vectorIN2cv8KeyPointESaIS2_EESaIS4_EE17_M_create_storageEm = comdat any

$_ZNSaISt6vectorIN2cv8KeyPointESaIS1_EEEC2ERKS4_ = comdat any

$_ZN9__gnu_cxx13new_allocatorISt6vectorIN2cv8KeyPointESaIS3_EEEC2ERKS6_ = comdat any

$_ZNSt12_Vector_baseISt6vectorIN2cv8KeyPointESaIS2_EESaIS4_EE11_M_allocateEm = comdat any

$_ZNSt16allocator_traitsISaISt6vectorIN2cv8KeyPointESaIS2_EEEE8allocateERS5_m = comdat any

$_ZN9__gnu_cxx13new_allocatorISt6vectorIN2cv8KeyPointESaIS3_EEE8allocateEmPKv = comdat any

$_ZNK9__gnu_cxx13new_allocatorISt6vectorIN2cv8KeyPointESaIS3_EEE8max_sizeEv = comdat any

$_ZSt27__uninitialized_default_n_aIPSt6vectorIN2cv8KeyPointESaIS2_EEmS4_ET_S6_T0_RSaIT1_E = comdat any

$_ZNSt12_Vector_baseISt6vectorIN2cv8KeyPointESaIS2_EESaIS4_EE19_M_get_Tp_allocatorEv = comdat any

$_ZSt25__uninitialized_default_nIPSt6vectorIN2cv8KeyPointESaIS2_EEmET_S6_T0_ = comdat any

$_ZNSt27__uninitialized_default_n_1ILb0EE18__uninit_default_nIPSt6vectorIN2cv8KeyPointESaIS4_EEmEET_S8_T0_ = comdat any

$_ZSt10_ConstructISt6vectorIN2cv8KeyPointESaIS2_EEJEEvPT_DpOT0_ = comdat any

$_ZSt11__addressofISt6vectorIN2cv8KeyPointESaIS2_EEEPT_RS5_ = comdat any

$_ZNSt8functionIFvRKN2cv5RangeEEEC2ERKS5_ = comdat any

$_ZN2cv29ParallelLoopBodyLambdaWrapperC2ESt8functionIFvRKNS_5RangeEEE = comdat any

$_ZN2cv29ParallelLoopBodyLambdaWrapperD2Ev = comdat any

$_ZNSt14_Function_baseC2Ev = comdat any

$_ZNKSt8functionIFvRKN2cv5RangeEEEcvbEv = comdat any

$_ZNKSt14_Function_base8_M_emptyEv = comdat any

$_ZN2cv16ParallelLoopBodyC2Ev = comdat any

$_ZN2cv29ParallelLoopBodyLambdaWrapperD0Ev = comdat any

$_ZNK2cv29ParallelLoopBodyLambdaWrapperclERKNS_5RangeE = comdat any

$_ZNKSt8functionIFvRKN2cv5RangeEEEclES3_ = comdat any

$_ZSt7forwardIRKN2cv5RangeEEOT_RNSt16remove_referenceIS4_E4typeE = comdat any

$_ZNSt14_Function_base13_Base_managerIZN7ov_core11Grider_FAST15perform_gridingERKN2cv3MatERSt6vectorINS3_8KeyPointESaIS8_EEiiiibEUlRKNS3_5RangeEE_E21_M_not_empty_functionISF_EEbRKT_ = comdat any

$_ZNSt14_Function_base13_Base_managerIZN7ov_core11Grider_FAST15perform_gridingERKN2cv3MatERSt6vectorINS3_8KeyPointESaIS8_EEiiiibEUlRKNS3_5RangeEE_E15_M_init_functorERSt9_Any_dataOSF_ = comdat any

$_ZSt4moveIRZN7ov_core11Grider_FAST15perform_gridingERKN2cv3MatERSt6vectorINS2_8KeyPointESaIS7_EEiiiibEUlRKNS2_5RangeEE_EONSt16remove_referenceIT_E4typeEOSH_ = comdat any

$_ZNSt17_Function_handlerIFvRKN2cv5RangeEEZN7ov_core11Grider_FAST15perform_gridingERKNS0_3MatERSt6vectorINS0_8KeyPointESaISB_EEiiiibEUlS3_E_E9_M_invokeERKSt9_Any_dataS3_ = comdat any

$_ZNSt14_Function_base13_Base_managerIZN7ov_core11Grider_FAST15perform_gridingERKN2cv3MatERSt6vectorINS3_8KeyPointESaIS8_EEiiiibEUlRKNS3_5RangeEE_E10_M_managerERSt9_Any_dataRKSH_St18_Manager_operation = comdat any

$_ZNSt14_Function_base13_Base_managerIZN7ov_core11Grider_FAST15perform_gridingERKN2cv3MatERSt6vectorINS3_8KeyPointESaIS8_EEiiiibEUlRKNS3_5RangeEE_E15_M_init_functorERSt9_Any_dataOSF_St17integral_constantIbLb0EE = comdat any

$_ZNSt9_Any_data9_M_accessIPZN7ov_core11Grider_FAST15perform_gridingERKN2cv3MatERSt6vectorINS3_8KeyPointESaIS8_EEiiiibEUlRKNS3_5RangeEE_EERT_v = comdat any

$_ZNSt9_Any_data9_M_accessEv = comdat any

$_ZNSt14_Function_base13_Base_managerIZN7ov_core11Grider_FAST15perform_gridingERKN2cv3MatERSt6vectorINS3_8KeyPointESaIS8_EEiiiibEUlRKNS3_5RangeEE_E14_M_get_pointerERKSt9_Any_data = comdat any

$_ZZN7ov_core11Grider_FAST15perform_gridingERKN2cv3MatERSt6vectorINS1_8KeyPointESaIS6_EEiiiibENKUlRKNS1_5RangeEE_clESC_ = comdat any

$_ZNKSt9_Any_data9_M_accessIPZN7ov_core11Grider_FAST15perform_gridingERKN2cv3MatERSt6vectorINS3_8KeyPointESaIS8_EEiiiibEUlRKNS3_5RangeEE_EERKT_v = comdat any

$_ZNKSt9_Any_data9_M_accessEv = comdat any

$_ZN2cv5Rect_IiEC2Eiiii = comdat any

$_ZNK2cv3MatclERKNS_5Rect_IiEE = comdat any

$_ZSt4sortIN9__gnu_cxx17__normal_iteratorIPN2cv8KeyPointESt6vectorIS3_SaIS3_EEEEPFbS3_S3_EEvT_SB_T0_ = comdat any

$_ZN7ov_core11Grider_FAST16compare_responseEN2cv8KeyPointES2_ = comdat any

$_ZSt6__sortIN9__gnu_cxx17__normal_iteratorIPN2cv8KeyPointESt6vectorIS3_SaIS3_EEEENS0_5__ops15_Iter_comp_iterIPFbS3_S3_EEEEvT_SE_T0_ = comdat any

$_ZN9__gnu_cxx5__ops16__iter_comp_iterIPFbN2cv8KeyPointES3_EEENS0_15_Iter_comp_iterIT_EES7_ = comdat any

$_ZSt16__introsort_loopIN9__gnu_cxx17__normal_iteratorIPN2cv8KeyPointESt6vectorIS3_SaIS3_EEEElNS0_5__ops15_Iter_comp_iterIPFbS3_S3_EEEEvT_SE_T0_T1_ = comdat any

$_ZSt4__lgl = comdat any

$_ZN9__gnu_cxxmiIPN2cv8KeyPointESt6vectorIS2_SaIS2_EEEENS_17__normal_iteratorIT_T0_E15difference_typeERKSA_SD_ = comdat any

$_ZSt22__final_insertion_sortIN9__gnu_cxx17__normal_iteratorIPN2cv8KeyPointESt6vectorIS3_SaIS3_EEEENS0_5__ops15_Iter_comp_iterIPFbS3_S3_EEEEvT_SE_T0_ = comdat any

$_ZSt14__partial_sortIN9__gnu_cxx17__normal_iteratorIPN2cv8KeyPointESt6vectorIS3_SaIS3_EEEENS0_5__ops15_Iter_comp_iterIPFbS3_S3_EEEEvT_SE_SE_T0_ = comdat any

$_ZSt27__unguarded_partition_pivotIN9__gnu_cxx17__normal_iteratorIPN2cv8KeyPointESt6vectorIS3_SaIS3_EEEENS0_5__ops15_Iter_comp_iterIPFbS3_S3_EEEET_SE_SE_T0_ = comdat any

$_ZSt13__heap_selectIN9__gnu_cxx17__normal_iteratorIPN2cv8KeyPointESt6vectorIS3_SaIS3_EEEENS0_5__ops15_Iter_comp_iterIPFbS3_S3_EEEEvT_SE_SE_T0_ = comdat any

$_ZSt11__sort_heapIN9__gnu_cxx17__normal_iteratorIPN2cv8KeyPointESt6vectorIS3_SaIS3_EEEENS0_5__ops15_Iter_comp_iterIPFbS3_S3_EEEEvT_SE_T0_ = comdat any

$_ZSt11__make_heapIN9__gnu_cxx17__normal_iteratorIPN2cv8KeyPointESt6vectorIS3_SaIS3_EEEENS0_5__ops15_Iter_comp_iterIPFbS3_S3_EEEEvT_SE_T0_ = comdat any

$_ZN9__gnu_cxxltIPN2cv8KeyPointESt6vectorIS2_SaIS2_EEEEbRKNS_17__normal_iteratorIT_T0_EESC_ = comdat any

$_ZN9__gnu_cxx5__ops15_Iter_comp_iterIPFbN2cv8KeyPointES3_EEclINS_17__normal_iteratorIPS3_St6vectorIS3_SaIS3_EEEESD_EEbT_T0_ = comdat any

$_ZSt10__pop_heapIN9__gnu_cxx17__normal_iteratorIPN2cv8KeyPointESt6vectorIS3_SaIS3_EEEENS0_5__ops15_Iter_comp_iterIPFbS3_S3_EEEEvT_SE_SE_T0_ = comdat any

$_ZSt4moveIRN2cv8KeyPointEEONSt16remove_referenceIT_E4typeEOS4_ = comdat any

$_ZNK9__gnu_cxx17__normal_iteratorIPN2cv8KeyPointESt6vectorIS2_SaIS2_EEEplEl = comdat any

$_ZN2cv8KeyPointC2EOS0_ = comdat any

$_ZSt13__adjust_heapIN9__gnu_cxx17__normal_iteratorIPN2cv8KeyPointESt6vectorIS3_SaIS3_EEEElS3_NS0_5__ops15_Iter_comp_iterIPFbS3_S3_EEEEvT_T0_SF_T1_T2_ = comdat any

$_ZN9__gnu_cxx17__normal_iteratorIPN2cv8KeyPointESt6vectorIS2_SaIS2_EEEC2ERKS3_ = comdat any

$_ZN2cv8KeyPointaSEOS0_ = comdat any

$_ZSt11__push_heapIN9__gnu_cxx17__normal_iteratorIPN2cv8KeyPointESt6vectorIS3_SaIS3_EEEElS3_NS0_5__ops14_Iter_comp_valIPFbS3_S3_EEEEvT_T0_SF_T1_T2_ = comdat any

$_ZN9__gnu_cxx5__ops15__iter_comp_valIPFbN2cv8KeyPointES3_EEENS0_14_Iter_comp_valIT_EENS0_15_Iter_comp_iterIS7_EE = comdat any

$_ZN9__gnu_cxx5__ops14_Iter_comp_valIPFbN2cv8KeyPointES3_EEclINS_17__normal_iteratorIPS3_St6vectorIS3_SaIS3_EEEES3_EEbT_RT0_ = comdat any

$_ZN9__gnu_cxx5__ops14_Iter_comp_valIPFbN2cv8KeyPointES3_EEC2ES5_ = comdat any

$_ZNK9__gnu_cxx17__normal_iteratorIPN2cv8KeyPointESt6vectorIS2_SaIS2_EEE4baseEv = comdat any

$_ZN9__gnu_cxx17__normal_iteratorIPN2cv8KeyPointESt6vectorIS2_SaIS2_EEEmmEv = comdat any

$_ZSt22__move_median_to_firstIN9__gnu_cxx17__normal_iteratorIPN2cv8KeyPointESt6vectorIS3_SaIS3_EEEENS0_5__ops15_Iter_comp_iterIPFbS3_S3_EEEEvT_SE_SE_SE_T0_ = comdat any

$_ZNK9__gnu_cxx17__normal_iteratorIPN2cv8KeyPointESt6vectorIS2_SaIS2_EEEmiEl = comdat any

$_ZSt21__unguarded_partitionIN9__gnu_cxx17__normal_iteratorIPN2cv8KeyPointESt6vectorIS3_SaIS3_EEEENS0_5__ops15_Iter_comp_iterIPFbS3_S3_EEEET_SE_SE_SE_T0_ = comdat any

$_ZSt9iter_swapIN9__gnu_cxx17__normal_iteratorIPN2cv8KeyPointESt6vectorIS3_SaIS3_EEEES8_EvT_T0_ = comdat any

$_ZSt4swapIN2cv8KeyPointEEvRT_S3_ = comdat any

$_ZSt16__insertion_sortIN9__gnu_cxx17__normal_iteratorIPN2cv8KeyPointESt6vectorIS3_SaIS3_EEEENS0_5__ops15_Iter_comp_iterIPFbS3_S3_EEEEvT_SE_T0_ = comdat any

$_ZSt26__unguarded_insertion_sortIN9__gnu_cxx17__normal_iteratorIPN2cv8KeyPointESt6vectorIS3_SaIS3_EEEENS0_5__ops15_Iter_comp_iterIPFbS3_S3_EEEEvT_SE_T0_ = comdat any

$_ZN9__gnu_cxxeqIPN2cv8KeyPointESt6vectorIS2_SaIS2_EEEEbRKNS_17__normal_iteratorIT_T0_EESC_ = comdat any

$_ZSt13move_backwardIN9__gnu_cxx17__normal_iteratorIPN2cv8KeyPointESt6vectorIS3_SaIS3_EEEES8_ET0_T_SA_S9_ = comdat any

$_ZSt25__unguarded_linear_insertIN9__gnu_cxx17__normal_iteratorIPN2cv8KeyPointESt6vectorIS3_SaIS3_EEEENS0_5__ops14_Val_comp_iterIPFbS3_S3_EEEEvT_T0_ = comdat any

$_ZN9__gnu_cxx5__ops15__val_comp_iterIPFbN2cv8KeyPointES3_EEENS0_14_Val_comp_iterIT_EENS0_15_Iter_comp_iterIS7_EE = comdat any

$_ZSt23__copy_move_backward_a2ILb1EN9__gnu_cxx17__normal_iteratorIPN2cv8KeyPointESt6vectorIS3_SaIS3_EEEES8_ET1_T0_SA_S9_ = comdat any

$_ZSt12__miter_baseIN9__gnu_cxx17__normal_iteratorIPN2cv8KeyPointESt6vectorIS3_SaIS3_EEEEENSt11_Miter_baseIT_E13iterator_typeESA_ = comdat any

$_ZSt22__copy_move_backward_aILb1EPN2cv8KeyPointES2_ET1_T0_S4_S3_ = comdat any

$_ZSt12__niter_baseIN9__gnu_cxx17__normal_iteratorIPN2cv8KeyPointESt6vectorIS3_SaIS3_EEEEENSt11_Niter_baseIT_E13iterator_typeESA_ = comdat any

$_ZNSt20__copy_move_backwardILb1ELb0ESt26random_access_iterator_tagE13__copy_move_bIPN2cv8KeyPointES5_EET0_T_S7_S6_ = comdat any

$_ZNSt10_Iter_baseIN9__gnu_cxx17__normal_iteratorIPN2cv8KeyPointESt6vectorIS3_SaIS3_EEEELb1EE7_S_baseES8_ = comdat any

$_ZNSt10_Iter_baseIN9__gnu_cxx17__normal_iteratorIPN2cv8KeyPointESt6vectorIS3_SaIS3_EEEELb0EE7_S_baseES8_ = comdat any

$_ZN9__gnu_cxx5__ops14_Val_comp_iterIPFbN2cv8KeyPointES3_EEclIS3_NS_17__normal_iteratorIPS3_St6vectorIS3_SaIS3_EEEEEEbRT_T0_ = comdat any

$_ZN9__gnu_cxx5__ops14_Val_comp_iterIPFbN2cv8KeyPointES3_EEC2ES5_ = comdat any

$_ZN9__gnu_cxx5__ops15_Iter_comp_iterIPFbN2cv8KeyPointES3_EEC2ES5_ = comdat any

$_ZNSt9_Any_data9_M_accessIPKSt9type_infoEERT_v = comdat any

$_ZNSt14_Function_base13_Base_managerIZN7ov_core11Grider_FAST15perform_gridingERKN2cv3MatERSt6vectorINS3_8KeyPointESaIS8_EEiiiibEUlRKNS3_5RangeEE_E8_M_cloneERSt9_Any_dataRKSH_St17integral_constantIbLb0EE = comdat any

$_ZNSt14_Function_base13_Base_managerIZN7ov_core11Grider_FAST15perform_gridingERKN2cv3MatERSt6vectorINS3_8KeyPointESaIS8_EEiiiibEUlRKNS3_5RangeEE_E10_M_destroyERSt9_Any_dataSt17integral_constantIbLb0EE = comdat any

$_ZN9__gnu_cxxmiIPKN2cv8KeyPointESt6vectorIS2_SaIS2_EEEENS_17__normal_iteratorIT_T0_E15difference_typeERKSB_SE_ = comdat any

$_ZNKSt6vectorIN2cv8KeyPointESaIS1_EE6cbeginEv = comdat any

$_ZNSt6vectorIN2cv8KeyPointESaIS1_EE18_M_insert_dispatchIN9__gnu_cxx17__normal_iteratorIPS1_S3_EEEEvS8_T_S9_St12__false_type = comdat any

$_ZNK9__gnu_cxx17__normal_iteratorIPKN2cv8KeyPointESt6vectorIS2_SaIS2_EEE4baseEv = comdat any

$_ZN9__gnu_cxx17__normal_iteratorIPKN2cv8KeyPointESt6vectorIS2_SaIS2_EEEC2ERKS4_ = comdat any

$_ZNSt6vectorIN2cv8KeyPointESaIS1_EE15_M_range_insertIN9__gnu_cxx17__normal_iteratorIPS1_S3_EEEEvS8_T_S9_St20forward_iterator_tag = comdat any

$_ZSt8distanceIN9__gnu_cxx17__normal_iteratorIPN2cv8KeyPointESt6vectorIS3_SaIS3_EEEEENSt15iterator_traitsIT_E15difference_typeESA_SA_ = comdat any

$_ZSt22__uninitialized_move_aIPN2cv8KeyPointES2_SaIS1_EET0_T_S5_S4_RT1_ = comdat any

$_ZNSt12_Vector_baseIN2cv8KeyPointESaIS1_EE19_M_get_Tp_allocatorEv = comdat any

$_ZSt13move_backwardIPN2cv8KeyPointES2_ET0_T_S4_S3_ = comdat any

$_ZSt4copyIN9__gnu_cxx17__normal_iteratorIPN2cv8KeyPointESt6vectorIS3_SaIS3_EEEES8_ET0_T_SA_S9_ = comdat any

$_ZSt7advanceIN9__gnu_cxx17__normal_iteratorIPN2cv8KeyPointESt6vectorIS3_SaIS3_EEEEmEvRT_T0_ = comdat any

$_ZSt22__uninitialized_copy_aIN9__gnu_cxx17__normal_iteratorIPN2cv8KeyPointESt6vectorIS3_SaIS3_EEEES4_S3_ET0_T_SA_S9_RSaIT1_E = comdat any

$_ZNKSt6vectorIN2cv8KeyPointESaIS1_EE12_M_check_lenEmPKc = comdat any

$_ZNSt12_Vector_baseIN2cv8KeyPointESaIS1_EE11_M_allocateEm = comdat any

$_ZSt34__uninitialized_move_if_noexcept_aIPN2cv8KeyPointES2_SaIS1_EET0_T_S5_S4_RT1_ = comdat any

$_ZSt8_DestroyIPN2cv8KeyPointES1_EvT_S3_RSaIT0_E = comdat any

$_ZNSt12_Vector_baseIN2cv8KeyPointESaIS1_EE13_M_deallocateEPS1_m = comdat any

$_ZSt10__distanceIN9__gnu_cxx17__normal_iteratorIPN2cv8KeyPointESt6vectorIS3_SaIS3_EEEEENSt15iterator_traitsIT_E15difference_typeESA_SA_St26random_access_iterator_tag = comdat any

$_ZSt19__iterator_categoryIN9__gnu_cxx17__normal_iteratorIPN2cv8KeyPointESt6vectorIS3_SaIS3_EEEEENSt15iterator_traitsIT_E17iterator_categoryERKSA_ = comdat any

$_ZSt22__uninitialized_copy_aISt13move_iteratorIPN2cv8KeyPointEES3_S2_ET0_T_S6_S5_RSaIT1_E = comdat any

$_ZSt18make_move_iteratorIPN2cv8KeyPointEESt13move_iteratorIT_ES4_ = comdat any

$_ZSt18uninitialized_copyISt13move_iteratorIPN2cv8KeyPointEES3_ET0_T_S6_S5_ = comdat any

$_ZNSt20__uninitialized_copyILb0EE13__uninit_copyISt13move_iteratorIPN2cv8KeyPointEES5_EET0_T_S8_S7_ = comdat any

$_ZStneIPN2cv8KeyPointEEbRKSt13move_iteratorIT_ES7_ = comdat any

$_ZSt10_ConstructIN2cv8KeyPointEJS1_EEvPT_DpOT0_ = comdat any

$_ZSt11__addressofIN2cv8KeyPointEEPT_RS2_ = comdat any

$_ZNKSt13move_iteratorIPN2cv8KeyPointEEdeEv = comdat any

$_ZNSt13move_iteratorIPN2cv8KeyPointEEppEv = comdat any

$_ZSteqIPN2cv8KeyPointEEbRKSt13move_iteratorIT_ES7_ = comdat any

$_ZNKSt13move_iteratorIPN2cv8KeyPointEE4baseEv = comdat any

$_ZSt7forwardIN2cv8KeyPointEEOT_RNSt16remove_referenceIS2_E4typeE = comdat any

$_ZNSt13move_iteratorIPN2cv8KeyPointEEC2ES2_ = comdat any

$_ZSt23__copy_move_backward_a2ILb1EPN2cv8KeyPointES2_ET1_T0_S4_S3_ = comdat any

$_ZSt12__miter_baseIPN2cv8KeyPointEENSt11_Miter_baseIT_E13iterator_typeES4_ = comdat any

$_ZSt12__niter_baseIPN2cv8KeyPointEENSt11_Niter_baseIT_E13iterator_typeES4_ = comdat any

$_ZNSt10_Iter_baseIPN2cv8KeyPointELb0EE7_S_baseES2_ = comdat any

$_ZSt14__copy_move_a2ILb0EN9__gnu_cxx17__normal_iteratorIPN2cv8KeyPointESt6vectorIS3_SaIS3_EEEES8_ET1_T0_SA_S9_ = comdat any

$_ZSt13__copy_move_aILb0EPN2cv8KeyPointES2_ET1_T0_S4_S3_ = comdat any

$_ZNSt11__copy_moveILb0ELb0ESt26random_access_iterator_tagE8__copy_mIPN2cv8KeyPointES5_EET0_T_S7_S6_ = comdat any

$_ZN2cv8KeyPointaSERKS0_ = comdat any

$_ZSt9__advanceIN9__gnu_cxx17__normal_iteratorIPN2cv8KeyPointESt6vectorIS3_SaIS3_EEEElEvRT_T0_St26random_access_iterator_tag = comdat any

$_ZN9__gnu_cxx17__normal_iteratorIPN2cv8KeyPointESt6vectorIS2_SaIS2_EEEpLEl = comdat any

$_ZSt18uninitialized_copyIN9__gnu_cxx17__normal_iteratorIPN2cv8KeyPointESt6vectorIS3_SaIS3_EEEES4_ET0_T_SA_S9_ = comdat any

$_ZNSt20__uninitialized_copyILb0EE13__uninit_copyIN9__gnu_cxx17__normal_iteratorIPN2cv8KeyPointESt6vectorIS5_SaIS5_EEEES6_EET0_T_SC_SB_ = comdat any

$_ZSt10_ConstructIN2cv8KeyPointEJRS1_EEvPT_DpOT0_ = comdat any

$_ZSt7forwardIRN2cv8KeyPointEEOT_RNSt16remove_referenceIS3_E4typeE = comdat any

$_ZNKSt6vectorIN2cv8KeyPointESaIS1_EE8max_sizeEv = comdat any

$_ZNSt16allocator_traitsISaIN2cv8KeyPointEEE8max_sizeERKS2_ = comdat any

$_ZNKSt12_Vector_baseIN2cv8KeyPointESaIS1_EE19_M_get_Tp_allocatorEv = comdat any

$_ZNK9__gnu_cxx13new_allocatorIN2cv8KeyPointEE8max_sizeEv = comdat any

$_ZNSt16allocator_traitsISaIN2cv8KeyPointEEE8allocateERS2_m = comdat any

$_ZN9__gnu_cxx13new_allocatorIN2cv8KeyPointEE8allocateEmPKv = comdat any

$_ZSt22__uninitialized_copy_aIPN2cv8KeyPointES2_S1_ET0_T_S4_S3_RSaIT1_E = comdat any

$_ZSt32__make_move_if_noexcept_iteratorIPN2cv8KeyPointES2_ET0_T_ = comdat any

$_ZSt18uninitialized_copyIPN2cv8KeyPointES2_ET0_T_S4_S3_ = comdat any

$_ZNSt20__uninitialized_copyILb0EE13__uninit_copyIPN2cv8KeyPointES4_EET0_T_S6_S5_ = comdat any

$_ZSt8_DestroyIPN2cv8KeyPointEEvT_S3_ = comdat any

$_ZNSt12_Destroy_auxILb1EE9__destroyIPN2cv8KeyPointEEEvT_S5_ = comdat any

$_ZNSt16allocator_traitsISaIN2cv8KeyPointEEE10deallocateERS2_PS1_m = comdat any

$_ZN9__gnu_cxx13new_allocatorIN2cv8KeyPointEE10deallocateEPS2_m = comdat any

$_ZNKSt6vectorIS_IN2cv8KeyPointESaIS1_EESaIS3_EE14_M_range_checkEm = comdat any

$_ZNSt6vectorIS_IN2cv8KeyPointESaIS1_EESaIS3_EEixEm = comdat any

$_ZSt8_DestroyIPSt6vectorIN2cv8KeyPointESaIS2_EES4_EvT_S6_RSaIT0_E = comdat any

$_ZNSt12_Vector_baseISt6vectorIN2cv8KeyPointESaIS2_EESaIS4_EED2Ev = comdat any

$_ZSt8_DestroyIPSt6vectorIN2cv8KeyPointESaIS2_EEEvT_S6_ = comdat any

$_ZNSt12_Destroy_auxILb0EE9__destroyIPSt6vectorIN2cv8KeyPointESaIS4_EEEEvT_S8_ = comdat any

$_ZSt8_DestroyISt6vectorIN2cv8KeyPointESaIS2_EEEvPT_ = comdat any

$_ZNSt12_Vector_baseISt6vectorIN2cv8KeyPointESaIS2_EESaIS4_EE13_M_deallocateEPS4_m = comdat any

$_ZNSt16allocator_traitsISaISt6vectorIN2cv8KeyPointESaIS2_EEEE10deallocateERS5_PS4_m = comdat any

$_ZN9__gnu_cxx13new_allocatorISt6vectorIN2cv8KeyPointESaIS3_EEE10deallocateEPS5_m = comdat any

$_ZN5Eigen12DenseStorageIiLin1ELin1ELin1ELi0EED2Ev = comdat any

$_ZN5Eigen8internal31conditional_aligned_delete_autoIiLb1EEEvPT_m = comdat any

$_ZNSt14pointer_traitsIPKcE10pointer_toERS0_ = comdat any

$_ZSt9addressofIKcEPT_RS1_ = comdat any

$_ZSt11__addressofIKcEPT_RS1_ = comdat any

$_ZNSt16allocator_traitsISaIcEE10deallocateERS0_Pcm = comdat any

$_ZN9__gnu_cxx13new_allocatorIcE10deallocateEPcm = comdat any

$_ZNSt11char_traitsIcE6lengthEPKc = comdat any

$_ZNSt16allocator_traitsISaIcEE8max_sizeERKS0_ = comdat any

$_ZNK9__gnu_cxx13new_allocatorIcE8max_sizeEv = comdat any

$_ZN5boost9date_time19counted_time_systemINS0_16counted_time_repINS_10posix_time33millisec_posix_time_system_configEEEE14subtract_timesERKS5_S8_ = comdat any

$_ZNK5boost9date_time16counted_time_repINS_10posix_time33millisec_posix_time_system_configEE10is_specialEv = comdat any

$_ZN5boost9date_time11int_adapterIlE10to_specialEl = comdat any

$_ZNK5boost9date_time16counted_time_repINS_10posix_time33millisec_posix_time_system_configEE7get_repEv = comdat any

$_ZNK5boost9date_time11int_adapterIlEmiIlEES2_RKNS1_IT_EE = comdat any

$_ZNK5boost9date_time11int_adapterIlE9as_numberEv = comdat any

$_ZN5boost10posix_time13time_durationC2ENS_9date_time14special_valuesE = comdat any

$_ZNK5boost9date_time16counted_time_repINS_10posix_time33millisec_posix_time_system_configEE10time_countEv = comdat any

$_ZN5boost10posix_time13time_durationC2Eiiil = comdat any

$_ZNK5boost9date_time11int_adapterIlE10is_specialEv = comdat any

$_ZNK5boost9date_time11int_adapterIlE11is_infinityEv = comdat any

$_ZNK5boost9date_time11int_adapterIlE6is_nanEv = comdat any

$_ZN5boost9date_time11int_adapterIlE12neg_infinityEv = comdat any

$_ZN5boost9date_time11int_adapterIlE12pos_infinityEv = comdat any

$_ZNSt14numeric_limitsIlE3minEv = comdat any

$_ZN5boost9date_time11int_adapterIlEC2El = comdat any

$_ZNSt14numeric_limitsIlE3maxEv = comdat any

$_ZN5boost9date_time11int_adapterIlE12not_a_numberEv = comdat any

$_ZN5boost9date_time11int_adapterIlE15is_not_a_numberEl = comdat any

$_ZN5boost9date_time11int_adapterIlE10is_neg_infEl = comdat any

$_ZN5boost9date_time11int_adapterIlE10is_pos_infEl = comdat any

$_ZN5boost9date_time13time_durationINS_10posix_time13time_durationENS0_22time_resolution_traitsINS0_37time_resolution_traits_adapted64_implELNS0_16time_resolutionsE5ELl1000000ELt6EiEEEC2ENS0_14special_valuesE = comdat any

$_ZN5boost9date_time11int_adapterIlE12from_specialENS0_14special_valuesE = comdat any

$_ZN5boost9date_time11int_adapterIlE3maxEv = comdat any

$_ZN5boost9date_time11int_adapterIlE3minEv = comdat any

$_ZN5boost9date_time22time_resolution_traitsINS0_37time_resolution_traits_adapted64_implELNS0_16time_resolutionsE5ELl1000000ELt6EiE9as_numberENS0_11int_adapterIlEE = comdat any

$_ZN5boost9date_time37time_resolution_traits_adapted64_impl9as_numberENS0_11int_adapterIlEE = comdat any

$_ZN5boost9date_time13time_durationINS_10posix_time13time_durationENS0_22time_resolution_traitsINS0_37time_resolution_traits_adapted64_implELNS0_16time_resolutionsE5ELl1000000ELt6EiEEEC2Eiiil = comdat any

$_ZN5boost9date_time22time_resolution_traitsINS0_37time_resolution_traits_adapted64_implELNS0_16time_resolutionsE5ELl1000000ELt6EiE13to_tick_countEiiil = comdat any

$_ZN5boost9date_time14absolute_valueIiEET_S2_ = comdat any

$_ZN5boost9date_time14absolute_valueIlEET_S2_ = comdat any

$_ZN5boost9date_time22time_resolution_traitsINS0_37time_resolution_traits_adapted64_implELNS0_16time_resolutionsE5ELl1000000ELt6EiE10res_adjustEv = comdat any

$_ZSt8_DestroyIPhhEvT_S1_RSaIT0_E = comdat any

$_ZNSt12_Vector_baseIhSaIhEE19_M_get_Tp_allocatorEv = comdat any

$_ZNSt12_Vector_baseIhSaIhEED2Ev = comdat any

$_ZSt8_DestroyIPhEvT_S1_ = comdat any

$_ZNSt12_Destroy_auxILb1EE9__destroyIPhEEvT_S3_ = comdat any

$_ZNSt12_Vector_baseIhSaIhEE13_M_deallocateEPhm = comdat any

$_ZN9__gnu_cxx13new_allocatorIhED2Ev = comdat any

$_ZNSt16allocator_traitsISaIhEE10deallocateERS0_Phm = comdat any

$_ZN9__gnu_cxx13new_allocatorIhE10deallocateEPhm = comdat any

$_ZSt8_DestroyIPmmEvT_S1_RSaIT0_E = comdat any

$_ZNSt12_Vector_baseImSaImEE19_M_get_Tp_allocatorEv = comdat any

$_ZNSt12_Vector_baseImSaImEED2Ev = comdat any

$_ZSt8_DestroyIPmEvT_S1_ = comdat any

$_ZNSt12_Destroy_auxILb1EE9__destroyIPmEEvT_S3_ = comdat any

$_ZNSt12_Vector_baseImSaImEE13_M_deallocateEPmm = comdat any

$_ZN9__gnu_cxx13new_allocatorImED2Ev = comdat any

$_ZNSt16allocator_traitsISaImEE10deallocateERS0_Pmm = comdat any

$_ZN9__gnu_cxx13new_allocatorImE10deallocateEPmm = comdat any

$_ZNKSt6vectorIN2cv8KeyPointESaIS1_EE8capacityEv = comdat any

$_ZNSt6vectorIN2cv8KeyPointESaIS1_EE20_M_allocate_and_copyIN9__gnu_cxx17__normal_iteratorIPKS1_S3_EEEEPS1_mT_SB_ = comdat any

$_ZNKSt6vectorIN2cv8KeyPointESaIS1_EE5beginEv = comdat any

$_ZNKSt6vectorIN2cv8KeyPointESaIS1_EE3endEv = comdat any

$_ZSt8_DestroyIN9__gnu_cxx17__normal_iteratorIPN2cv8KeyPointESt6vectorIS3_SaIS3_EEEES3_EvT_S9_RSaIT0_E = comdat any

$_ZSt4copyIN9__gnu_cxx17__normal_iteratorIPKN2cv8KeyPointESt6vectorIS3_SaIS3_EEEENS1_IPS3_S8_EEET0_T_SD_SC_ = comdat any

$_ZSt4copyIPN2cv8KeyPointES2_ET0_T_S4_S3_ = comdat any

$_ZSt22__uninitialized_copy_aIN9__gnu_cxx17__normal_iteratorIPKN2cv8KeyPointESt6vectorIS3_SaIS3_EEEEPS3_S3_ET0_T_SC_SB_RSaIT1_E = comdat any

$_ZSt18uninitialized_copyIN9__gnu_cxx17__normal_iteratorIPKN2cv8KeyPointESt6vectorIS3_SaIS3_EEEEPS3_ET0_T_SC_SB_ = comdat any

$_ZNSt20__uninitialized_copyILb0EE13__uninit_copyIN9__gnu_cxx17__normal_iteratorIPKN2cv8KeyPointESt6vectorIS5_SaIS5_EEEEPS5_EET0_T_SE_SD_ = comdat any

$_ZN9__gnu_cxxneIPKN2cv8KeyPointESt6vectorIS2_SaIS2_EEEEbRKNS_17__normal_iteratorIT_T0_EESD_ = comdat any

$_ZSt10_ConstructIN2cv8KeyPointEJRKS1_EEvPT_DpOT0_ = comdat any

$_ZNK9__gnu_cxx17__normal_iteratorIPKN2cv8KeyPointESt6vectorIS2_SaIS2_EEEdeEv = comdat any

$_ZN9__gnu_cxx17__normal_iteratorIPKN2cv8KeyPointESt6vectorIS2_SaIS2_EEEppEv = comdat any

$_ZSt7forwardIRKN2cv8KeyPointEEOT_RNSt16remove_referenceIS4_E4typeE = comdat any

$_ZSt8_DestroyIN9__gnu_cxx17__normal_iteratorIPN2cv8KeyPointESt6vectorIS3_SaIS3_EEEEEvT_S9_ = comdat any

$_ZNSt12_Destroy_auxILb1EE9__destroyIN9__gnu_cxx17__normal_iteratorIPN2cv8KeyPointESt6vectorIS5_SaIS5_EEEEEEvT_SB_ = comdat any

$_ZSt14__copy_move_a2ILb0EN9__gnu_cxx17__normal_iteratorIPKN2cv8KeyPointESt6vectorIS3_SaIS3_EEEENS1_IPS3_S8_EEET1_T0_SD_SC_ = comdat any

$_ZSt12__miter_baseIN9__gnu_cxx17__normal_iteratorIPKN2cv8KeyPointESt6vectorIS3_SaIS3_EEEEENSt11_Miter_baseIT_E13iterator_typeESB_ = comdat any

$_ZSt13__copy_move_aILb0EPKN2cv8KeyPointEPS1_ET1_T0_S6_S5_ = comdat any

$_ZSt12__niter_baseIN9__gnu_cxx17__normal_iteratorIPKN2cv8KeyPointESt6vectorIS3_SaIS3_EEEEENSt11_Niter_baseIT_E13iterator_typeESB_ = comdat any

$_ZNSt11__copy_moveILb0ELb0ESt26random_access_iterator_tagE8__copy_mIPKN2cv8KeyPointEPS4_EET0_T_S9_S8_ = comdat any

$_ZNSt10_Iter_baseIN9__gnu_cxx17__normal_iteratorIPKN2cv8KeyPointESt6vectorIS3_SaIS3_EEEELb1EE7_S_baseES9_ = comdat any

$_ZNSt10_Iter_baseIN9__gnu_cxx17__normal_iteratorIPKN2cv8KeyPointESt6vectorIS3_SaIS3_EEEELb0EE7_S_baseES9_ = comdat any

$_ZSt14__copy_move_a2ILb0EPN2cv8KeyPointES2_ET1_T0_S4_S3_ = comdat any

$_ZNSt12_Vector_baseIfSaIfEEC2Ev = comdat any

$_ZNSt12_Vector_baseIfSaIfEE12_Vector_implC2Ev = comdat any

$_ZNSaIfEC2Ev = comdat any

$_ZN9__gnu_cxx13new_allocatorIfEC2Ev = comdat any

$_ZSt8_DestroyIPffEvT_S1_RSaIT0_E = comdat any

$_ZNSt12_Vector_baseIfSaIfEE19_M_get_Tp_allocatorEv = comdat any

$_ZNSt12_Vector_baseIfSaIfEED2Ev = comdat any

$_ZSt8_DestroyIPfEvT_S1_ = comdat any

$_ZNSt12_Destroy_auxILb1EE9__destroyIPfEEvT_S3_ = comdat any

$_ZNSt12_Vector_baseIfSaIfEE13_M_deallocateEPfm = comdat any

$_ZN9__gnu_cxx13new_allocatorIfED2Ev = comdat any

$_ZNSt16allocator_traitsISaIfEE10deallocateERS0_Pfm = comdat any

$_ZN9__gnu_cxx13new_allocatorIfE10deallocateEPfm = comdat any

$_ZNSt12_Vector_baseIN2cv8KeyPointESaIS1_EEC2Ev = comdat any

$_ZNSt12_Vector_baseIN2cv8KeyPointESaIS1_EE12_Vector_implC2Ev = comdat any

$_ZNSaIN2cv8KeyPointEEC2Ev = comdat any

$_ZN9__gnu_cxx13new_allocatorIN2cv8KeyPointEEC2Ev = comdat any

$_ZNSt12_Vector_baseIN2cv8KeyPointESaIS1_EED2Ev = comdat any

$_ZN9__gnu_cxx13new_allocatorIN2cv8KeyPointEED2Ev = comdat any

$_ZNKSt6vectorIN2cv8KeyPointESaIS1_EE14_M_range_checkEm = comdat any

$_ZNSt16allocator_traitsISaIN2cv8KeyPointEEE9constructIS1_JRKS1_EEEvRS2_PT_DpOT0_ = comdat any

$_ZNSt6vectorIN2cv8KeyPointESaIS1_EE19_M_emplace_back_auxIJRKS1_EEEvDpOT_ = comdat any

$_ZN9__gnu_cxx13new_allocatorIN2cv8KeyPointEE9constructIS2_JRKS2_EEEvPT_DpOT0_ = comdat any

$_ZSt11__addressofISt5mutexEPT_RS1_ = comdat any

$_ZNSt11unique_lockISt5mutexE4lockEv = comdat any

$_ZNSt5mutex4lockEv = comdat any

$_ZNSt11unique_lockISt5mutexE6unlockEv = comdat any

$_ZNSt5mutex6unlockEv = comdat any

$_ZNKSt6vectorISt5mutexSaIS0_EE14_M_range_checkEm = comdat any

$_ZNSt6vectorISt5mutexSaIS0_EEixEm = comdat any

$_ZNKSt6vectorISt5mutexSaIS0_EE4sizeEv = comdat any

$_ZNSt3mapImN2cv4MatxIdLi3ELi3EEESt4lessImESaISt4pairIKmS2_EEE11lower_boundERS6_ = comdat any

$_ZNKSt17_Rb_tree_iteratorISt4pairIKmN2cv4MatxIdLi3ELi3EEEEEeqERKS6_ = comdat any

$_ZNSt3mapImN2cv4MatxIdLi3ELi3EEESt4lessImESaISt4pairIKmS2_EEE3endEv = comdat any

$_ZNKSt3mapImN2cv4MatxIdLi3ELi3EEESt4lessImESaISt4pairIKmS2_EEE8key_compEv = comdat any

$_ZNKSt17_Rb_tree_iteratorISt4pairIKmN2cv4MatxIdLi3ELi3EEEEEdeEv = comdat any

$_ZNSt8_Rb_treeImSt4pairIKmN2cv4MatxIdLi3ELi3EEEESt10_Select1stIS5_ESt4lessImESaIS5_EE11lower_boundERS1_ = comdat any

$_ZNSt8_Rb_treeImSt4pairIKmN2cv4MatxIdLi3ELi3EEEESt10_Select1stIS5_ESt4lessImESaIS5_EE14_M_lower_boundEPSt13_Rb_tree_nodeIS5_ESE_RS1_ = comdat any

$_ZNSt8_Rb_treeImSt4pairIKmN2cv4MatxIdLi3ELi3EEEESt10_Select1stIS5_ESt4lessImESaIS5_EE8_M_beginEv = comdat any

$_ZNSt8_Rb_treeImSt4pairIKmN2cv4MatxIdLi3ELi3EEEESt10_Select1stIS5_ESt4lessImESaIS5_EE6_M_endEv = comdat any

$_ZNSt8_Rb_treeImSt4pairIKmN2cv4MatxIdLi3ELi3EEEESt10_Select1stIS5_ESt4lessImESaIS5_EE6_S_keyEPKSt13_Rb_tree_nodeIS5_E = comdat any

$_ZNSt8_Rb_treeImSt4pairIKmN2cv4MatxIdLi3ELi3EEEESt10_Select1stIS5_ESt4lessImESaIS5_EE7_S_leftEPSt18_Rb_tree_node_base = comdat any

$_ZNSt8_Rb_treeImSt4pairIKmN2cv4MatxIdLi3ELi3EEEESt10_Select1stIS5_ESt4lessImESaIS5_EE8_S_rightEPSt18_Rb_tree_node_base = comdat any

$_ZNSt17_Rb_tree_iteratorISt4pairIKmN2cv4MatxIdLi3ELi3EEEEEC2EPSt18_Rb_tree_node_base = comdat any

$_ZNKSt10_Select1stISt4pairIKmN2cv4MatxIdLi3ELi3EEEEEclERKS5_ = comdat any

$_ZNSt8_Rb_treeImSt4pairIKmN2cv4MatxIdLi3ELi3EEEESt10_Select1stIS5_ESt4lessImESaIS5_EE8_S_valueEPKSt13_Rb_tree_nodeIS5_E = comdat any

$_ZNKSt13_Rb_tree_nodeISt4pairIKmN2cv4MatxIdLi3ELi3EEEEE9_M_valptrEv = comdat any

$_ZNK9__gnu_cxx16__aligned_membufISt4pairIKmN2cv4MatxIdLi3ELi3EEEEE6_M_ptrEv = comdat any

$_ZNK9__gnu_cxx16__aligned_membufISt4pairIKmN2cv4MatxIdLi3ELi3EEEEE7_M_addrEv = comdat any

$_ZNSt8_Rb_treeImSt4pairIKmN2cv4MatxIdLi3ELi3EEEESt10_Select1stIS5_ESt4lessImESaIS5_EE3endEv = comdat any

$_ZNKSt8_Rb_treeImSt4pairIKmN2cv4MatxIdLi3ELi3EEEESt10_Select1stIS5_ESt4lessImESaIS5_EE8key_compEv = comdat any

$_ZNSt13_Rb_tree_nodeISt4pairIKmN2cv4MatxIdLi3ELi3EEEEE9_M_valptrEv = comdat any

$_ZN9__gnu_cxx16__aligned_membufISt4pairIKmN2cv4MatxIdLi3ELi3EEEEE6_M_ptrEv = comdat any

$_ZN9__gnu_cxx16__aligned_membufISt4pairIKmN2cv4MatxIdLi3ELi3EEEEE7_M_addrEv = comdat any

$_ZNKSt6vectorImSaImEE14_M_range_checkEm = comdat any

$_ZN5boost9date_time14microsec_clockINS_10posix_time5ptimeEE11create_timeEPFP2tmPKlS6_E = comdat any

$_ZN5boost9date_time6c_time9localtimeEPKlP2tm = comdat any

$_ZN5boost9gregorian9greg_yearC2Et = comdat any

$_ZN5boost9gregorian10greg_monthC2Et = comdat any

$_ZN5boost9gregorian8greg_dayC2Et = comdat any

$_ZN5boost9gregorian4dateC2ENS0_9greg_yearENS0_10greg_monthENS0_8greg_dayE = comdat any

$_ZN5boost10posix_time13time_durationC2ERKS1_ = comdat any

$_ZN5boost10posix_time5ptimeC2ENS_9gregorian4dateENS0_13time_durationE = comdat any

$_ZN5boost2CV17constrained_valueINS0_23simple_exception_policyItLt1400ELt10000ENS_9gregorian8bad_yearEEEEC2Et = comdat any

$_ZN5boost2CV17constrained_valueINS0_23simple_exception_policyItLt1400ELt10000ENS_9gregorian8bad_yearEEEE3minEv = comdat any

$_ZN5boost2CV17constrained_valueINS0_23simple_exception_policyItLt1400ELt10000ENS_9gregorian8bad_yearEEEE6assignEt = comdat any

$_ZN5boost2CV23simple_exception_policyItLt1400ELt10000ENS_9gregorian8bad_yearEE3minEv = comdat any

$_ZN5boost2CV23simple_exception_policyItLt1400ELt10000ENS_9gregorian8bad_yearEE8on_errorEttNS0_14violation_enumE = comdat any

$_ZN5boost2CV17constrained_valueINS0_23simple_exception_policyItLt1400ELt10000ENS_9gregorian8bad_yearEEEE3maxEv = comdat any

$_ZN5boost9gregorian8bad_yearC2Ev = comdat any

$_ZN5boost9gregorian8bad_yearD0Ev = comdat any

$_ZNSt7__cxx1112basic_stringIcSt11char_traitsIcESaIcEE12_M_constructIPKcEEvT_S8_ = comdat any

$_ZNSt7__cxx1112basic_stringIcSt11char_traitsIcESaIcEE16_M_construct_auxIPKcEEvT_S8_St12__false_type = comdat any

$_ZNSt7__cxx1112basic_stringIcSt11char_traitsIcESaIcEE12_M_constructIPKcEEvT_S8_St20forward_iterator_tag = comdat any

$_ZN9__gnu_cxx17__is_null_pointerIKcEEbPT_ = comdat any

$_ZSt8distanceIPKcENSt15iterator_traitsIT_E15difference_typeES3_S3_ = comdat any

$_ZSt10__distanceIPKcENSt15iterator_traitsIT_E15difference_typeES3_S3_St26random_access_iterator_tag = comdat any

$_ZSt19__iterator_categoryIPKcENSt15iterator_traitsIT_E17iterator_categoryERKS3_ = comdat any

$_ZNSt11char_traitsIcE4copyEPcPKcm = comdat any

$_ZN5boost2CV23simple_exception_policyItLt1400ELt10000ENS_9gregorian8bad_yearEE3maxEv = comdat any

$_ZN5boost2CV17constrained_valueINS0_23simple_exception_policyItLt1ELt12ENS_9gregorian9bad_monthEEEEC2Et = comdat any

$_ZN5boost2CV17constrained_valueINS0_23simple_exception_policyItLt1ELt12ENS_9gregorian9bad_monthEEEE3minEv = comdat any

$_ZN5boost2CV17constrained_valueINS0_23simple_exception_policyItLt1ELt12ENS_9gregorian9bad_monthEEEE6assignEt = comdat any

$_ZN5boost2CV23simple_exception_policyItLt1ELt12ENS_9gregorian9bad_monthEE3minEv = comdat any

$_ZN5boost2CV23simple_exception_policyItLt1ELt12ENS_9gregorian9bad_monthEE8on_errorEttNS0_14violation_enumE = comdat any

$_ZN5boost2CV17constrained_valueINS0_23simple_exception_policyItLt1ELt12ENS_9gregorian9bad_monthEEEE3maxEv = comdat any

$_ZN5boost9gregorian9bad_monthC2Ev = comdat any

$_ZN5boost9gregorian9bad_monthD0Ev = comdat any

$_ZN5boost2CV23simple_exception_policyItLt1ELt12ENS_9gregorian9bad_monthEE3maxEv = comdat any

$_ZN5boost2CV17constrained_valueINS0_23simple_exception_policyItLt1ELt31ENS_9gregorian16bad_day_of_monthEEEEC2Et = comdat any

$_ZN5boost2CV17constrained_valueINS0_23simple_exception_policyItLt1ELt31ENS_9gregorian16bad_day_of_monthEEEE3minEv = comdat any

$_ZN5boost2CV17constrained_valueINS0_23simple_exception_policyItLt1ELt31ENS_9gregorian16bad_day_of_monthEEEE6assignEt = comdat any

$_ZN5boost2CV23simple_exception_policyItLt1ELt31ENS_9gregorian16bad_day_of_monthEE3minEv = comdat any

$_ZN5boost2CV23simple_exception_policyItLt1ELt31ENS_9gregorian16bad_day_of_monthEE8on_errorEttNS0_14violation_enumE = comdat any

$_ZN5boost2CV17constrained_valueINS0_23simple_exception_policyItLt1ELt31ENS_9gregorian16bad_day_of_monthEEEE3maxEv = comdat any

$_ZN5boost9gregorian16bad_day_of_monthC2Ev = comdat any

$_ZN5boost9gregorian16bad_day_of_monthD0Ev = comdat any

$_ZN5boost2CV23simple_exception_policyItLt1ELt31ENS_9gregorian16bad_day_of_monthEE3maxEv = comdat any

$_ZN5boost9date_time4dateINS_9gregorian4dateENS2_18gregorian_calendarENS2_13date_durationEEC2ENS2_9greg_yearENS2_10greg_monthENS2_8greg_dayE = comdat any

$_ZN5boost9date_time23gregorian_calendar_baseINS0_19year_month_day_baseINS_9gregorian9greg_yearENS3_10greg_monthENS3_8greg_dayEEEjE16end_of_month_dayES4_S5_ = comdat any

$_ZNK5boost9gregorian8greg_daycvtEv = comdat any

$_ZN5boost9gregorian16bad_day_of_monthC2ERKNSt7__cxx1112basic_stringIcSt11char_traitsIcESaIcEEE = comdat any

$_ZN5boost9date_time23gregorian_calendar_baseINS0_19year_month_day_baseINS_9gregorian9greg_yearENS3_10greg_monthENS3_8greg_dayEEEjE10day_numberERKS7_ = comdat any

$_ZN5boost9date_time19year_month_day_baseINS_9gregorian9greg_yearENS2_10greg_monthENS2_8greg_dayEEC2ES3_S4_S5_ = comdat any

$_ZNK5boost9gregorian10greg_monthcvtEv = comdat any

$_ZNK5boost9gregorian9greg_yearcvtEv = comdat any

$_ZN5boost9date_time23gregorian_calendar_baseINS0_19year_month_day_baseINS_9gregorian9greg_yearENS3_10greg_monthENS3_8greg_dayEEEjE12is_leap_yearES4_ = comdat any

$_ZN5boost9date_time13time_durationINS_10posix_time13time_durationENS0_22time_resolution_traitsINS0_37time_resolution_traits_adapted64_implELNS0_16time_resolutionsE5ELl1000000ELt6EiEEEC2ERKS8_ = comdat any

$_ZN5boost9date_time9base_timeINS_10posix_time5ptimeENS0_19counted_time_systemINS0_16counted_time_repINS2_33millisec_posix_time_system_configEEEEEEC2ERKNS_9gregorian4dateERKNS2_13time_durationENS0_9dst_flagsE = comdat any

$_ZN5boost9date_time19counted_time_systemINS0_16counted_time_repINS_10posix_time33millisec_posix_time_system_configEEEE12get_time_repERKNS_9gregorian4dateERKNS3_13time_durationENS0_9dst_flagsE = comdat any

$_ZN5boost9date_time19counted_time_systemINS0_16counted_time_repINS_10posix_time33millisec_posix_time_system_configEEEE10unused_varINS0_9dst_flagsEEEvRKT_ = comdat any

$_ZN5boost9date_time16counted_time_repINS_10posix_time33millisec_posix_time_system_configEEC2ERKNS_9gregorian4dateERKNS2_13time_durationE = comdat any

$_ZNK5boost9date_time4dateINS_9gregorian4dateENS2_18gregorian_calendarENS2_13date_durationEE11is_infinityEv = comdat any

$_ZNK5boost9date_time4dateINS_9gregorian4dateENS2_18gregorian_calendarENS2_13date_durationEE13is_not_a_dateEv = comdat any

$_ZNK5boost9date_time13time_durationINS_10posix_time13time_durationENS0_22time_resolution_traitsINS0_37time_resolution_traits_adapted64_implELNS0_16time_resolutionsE5ELl1000000ELt6EiEEE10is_specialEv = comdat any

$_ZNK5boost9date_time13time_durationINS_10posix_time13time_durationENS0_22time_resolution_traitsINS0_37time_resolution_traits_adapted64_implELNS0_16time_resolutionsE5ELl1000000ELt6EiEEE7get_repEv = comdat any

$_ZNK5boost9date_time11int_adapterIlEplIjEES2_RKNS1_IT_EE = comdat any

$_ZNK5boost9date_time4dateINS_9gregorian4dateENS2_18gregorian_calendarENS2_13date_durationEE9day_countEv = comdat any

$_ZNK5boost9gregorian4date10day_numberEv = comdat any

$_ZN5boost9date_time16counted_time_repINS_10posix_time33millisec_posix_time_system_configEE16frac_sec_per_dayEv = comdat any

$_ZNK5boost9date_time13time_durationINS_10posix_time13time_durationENS0_22time_resolution_traitsINS0_37time_resolution_traits_adapted64_implELNS0_16time_resolutionsE5ELl1000000ELt6EiEEE5ticksEv = comdat any

$_ZN5boost9date_time11int_adapterIjE6is_infEj = comdat any

$_ZN5boost9date_time11int_adapterIjE12neg_infinityEv = comdat any

$_ZNK5boost9date_time11int_adapterIjE9as_numberEv = comdat any

$_ZN5boost9date_time11int_adapterIjE12pos_infinityEv = comdat any

$_ZNSt14numeric_limitsIjE3minEv = comdat any

$_ZN5boost9date_time11int_adapterIjEC2Ej = comdat any

$_ZNSt14numeric_limitsIjE3maxEv = comdat any

$_ZN5boost9date_time11int_adapterIjE15is_not_a_numberEj = comdat any

$_ZN5boost9date_time11int_adapterIjE12not_a_numberEv = comdat any

$_ZN5boost9date_time22time_resolution_traitsINS0_37time_resolution_traits_adapted64_implELNS0_16time_resolutionsE5ELl1000000ELt6EiE10is_adaptedEv = comdat any

$_ZN5boost9date_time37time_resolution_traits_adapted64_impl10is_adaptedEv = comdat any

$_ZNK5boost9date_time11int_adapterIjE10is_specialEv = comdat any

$_ZNK5boost9date_time11int_adapterIjE6is_nanEv = comdat any

$_ZN5boost9date_time11int_adapterIjE10is_neg_infEj = comdat any

$_ZN5boost9date_time11int_adapterIjE10is_pos_infEj = comdat any

$_ZNK5boost9date_time11int_adapterIjE11is_infinityEv = comdat any

$_ZNSt12_Vector_baseIN2cv3MatESaIS1_EEC2Ev = comdat any

$_ZNSt12_Vector_baseIN2cv3MatESaIS1_EE12_Vector_implC2Ev = comdat any

$_ZNSaIN2cv3MatEEC2Ev = comdat any

$_ZN9__gnu_cxx13new_allocatorIN2cv3MatEEC2Ev = comdat any

$_ZSt8_DestroyIPN2cv3MatES1_EvT_S3_RSaIT0_E = comdat any

$_ZNSt12_Vector_baseIN2cv3MatESaIS1_EE19_M_get_Tp_allocatorEv = comdat any

$_ZNSt12_Vector_baseIN2cv3MatESaIS1_EED2Ev = comdat any

$_ZSt8_DestroyIPN2cv3MatEEvT_S3_ = comdat any

$_ZNSt12_Destroy_auxILb0EE9__destroyIPN2cv3MatEEEvT_S5_ = comdat any

$_ZSt8_DestroyIN2cv3MatEEvPT_ = comdat any

$_ZSt11__addressofIN2cv3MatEEPT_RS2_ = comdat any

$_ZNSt12_Vector_baseIN2cv3MatESaIS1_EE13_M_deallocateEPS1_m = comdat any

$_ZN9__gnu_cxx13new_allocatorIN2cv3MatEED2Ev = comdat any

$_ZNSt16allocator_traitsISaIN2cv3MatEEE10deallocateERS2_PS1_m = comdat any

$_ZN9__gnu_cxx13new_allocatorIN2cv3MatEE10deallocateEPS2_m = comdat any

$_ZNSt8__detail9_Map_baseImSt4pairIKmSt6vectorIN2cv8KeyPointESaIS5_EEESaIS8_ENS_10_Select1stESt8equal_toImESt4hashImENS_18_Mod_range_hashingENS_20_Default_ranged_hashENS_20_Prime_rehash_policyENS_17_Hashtable_traitsILb0ELb0ELb1EEELb1EEixERS2_ = comdat any

$_ZNKSt8__detail15_Hash_code_baseImSt4pairIKmSt6vectorIN2cv8KeyPointESaIS5_EEENS_10_Select1stESt4hashImENS_18_Mod_range_hashingENS_20_Default_ranged_hashELb0EE12_M_hash_codeERS2_ = comdat any

$_ZNKSt10_HashtableImSt4pairIKmSt6vectorIN2cv8KeyPointESaIS4_EEESaIS7_ENSt8__detail10_Select1stESt8equal_toImESt4hashImENS9_18_Mod_range_hashingENS9_20_Default_ranged_hashENS9_20_Prime_rehash_policyENS9_17_Hashtable_traitsILb0ELb0ELb1EEEE15_M_bucket_indexERS1_m = comdat any

$_ZNKSt10_HashtableImSt4pairIKmSt6vectorIN2cv8KeyPointESaIS4_EEESaIS7_ENSt8__detail10_Select1stESt8equal_toImESt4hashImENS9_18_Mod_range_hashingENS9_20_Default_ranged_hashENS9_20_Prime_rehash_policyENS9_17_Hashtable_traitsILb0ELb0ELb1EEEE12_M_find_nodeEmRS1_m = comdat any

$_ZNSt8__detail16_Hashtable_allocISaINS_10_Hash_nodeISt4pairIKmSt6vectorIN2cv8KeyPointESaIS6_EEELb0EEEEE16_M_allocate_nodeIJRKSt21piecewise_construct_tSt5tupleIJRS3_EESH_IJEEEEEPSA_DpOT_ = comdat any

$_ZNSt10_HashtableImSt4pairIKmSt6vectorIN2cv8KeyPointESaIS4_EEESaIS7_ENSt8__detail10_Select1stESt8equal_toImESt4hashImENS9_18_Mod_range_hashingENS9_20_Default_ranged_hashENS9_20_Prime_rehash_policyENS9_17_Hashtable_traitsILb0ELb0ELb1EEEE21_M_insert_unique_nodeEmmPNS9_10_Hash_nodeIS7_Lb0EEE = comdat any

$_ZNKSt8__detail14_Node_iteratorISt4pairIKmSt6vectorIN2cv8KeyPointESaIS5_EEELb0ELb0EEptEv = comdat any

$_ZNSt8__detail21_Hash_node_value_baseISt4pairIKmSt6vectorIN2cv8KeyPointESaIS5_EEEE4_M_vEv = comdat any

$_ZNKSt8__detail15_Hash_code_baseImSt4pairIKmSt6vectorIN2cv8KeyPointESaIS5_EEENS_10_Select1stESt4hashImENS_18_Mod_range_hashingENS_20_Default_ranged_hashELb0EE5_M_h1Ev = comdat any

$_ZNKSt8__detail15_Hash_code_baseImSt4pairIKmSt6vectorIN2cv8KeyPointESaIS5_EEENS_10_Select1stESt4hashImENS_18_Mod_range_hashingENS_20_Default_ranged_hashELb0EE15_M_bucket_indexERS2_mm = comdat any

$_ZNKSt8__detail15_Hash_code_baseImSt4pairIKmSt6vectorIN2cv8KeyPointESaIS5_EEENS_10_Select1stESt4hashImENS_18_Mod_range_hashingENS_20_Default_ranged_hashELb0EE5_M_h2Ev = comdat any

$_ZNKSt10_HashtableImSt4pairIKmSt6vectorIN2cv8KeyPointESaIS4_EEESaIS7_ENSt8__detail10_Select1stESt8equal_toImESt4hashImENS9_18_Mod_range_hashingENS9_20_Default_ranged_hashENS9_20_Prime_rehash_policyENS9_17_Hashtable_traitsILb0ELb0ELb1EEEE19_M_find_before_nodeEmRS1_m = comdat any

$_ZNKSt8__detail15_Hashtable_baseImSt4pairIKmSt6vectorIN2cv8KeyPointESaIS5_EEENS_10_Select1stESt8equal_toImESt4hashImENS_18_Mod_range_hashingENS_20_Default_ranged_hashENS_17_Hashtable_traitsILb0ELb0ELb1EEEE9_M_equalsERS2_mPNS_10_Hash_nodeIS8_Lb0EEE = comdat any

$_ZNKSt10_HashtableImSt4pairIKmSt6vectorIN2cv8KeyPointESaIS4_EEESaIS7_ENSt8__detail10_Select1stESt8equal_toImESt4hashImENS9_18_Mod_range_hashingENS9_20_Default_ranged_hashENS9_20_Prime_rehash_policyENS9_17_Hashtable_traitsILb0ELb0ELb1EEEE15_M_bucket_indexEPNS9_10_Hash_nodeIS7_Lb0EEE = comdat any

$_ZNKSt8__detail10_Hash_nodeISt4pairIKmSt6vectorIN2cv8KeyPointESaIS5_EEELb0EE7_M_nextEv = comdat any

$_ZNSt8__detail13_Equal_helperImSt4pairIKmSt6vectorIN2cv8KeyPointESaIS5_EEENS_10_Select1stESt8equal_toImEmLb0EE9_S_equalsERKSB_RKS9_RS2_mPNS_10_Hash_nodeIS8_Lb0EEE = comdat any

$_ZNKSt8__detail15_Hashtable_baseImSt4pairIKmSt6vectorIN2cv8KeyPointESaIS5_EEENS_10_Select1stESt8equal_toImESt4hashImENS_18_Mod_range_hashingENS_20_Default_ranged_hashENS_17_Hashtable_traitsILb0ELb0ELb1EEEE5_M_eqEv = comdat any

$_ZNKSt8__detail15_Hash_code_baseImSt4pairIKmSt6vectorIN2cv8KeyPointESaIS5_EEENS_10_Select1stESt4hashImENS_18_Mod_range_hashingENS_20_Default_ranged_hashELb0EE10_M_extractEv = comdat any

$_ZNKSt8__detail10_Select1stclIRSt4pairIKmSt6vectorIN2cv8KeyPointESaIS6_EEEEEDTclsr3stdE3getIXLi0EEEclsr3stdE7forwardIT_Efp_EEEOSB_ = comdat any

$_ZSt3getILm0EKmSt6vectorIN2cv8KeyPointESaIS3_EEERNSt13tuple_elementIXT_ESt4pairIT0_T1_EE4typeERSA_ = comdat any

$_ZSt7forwardIRSt4pairIKmSt6vectorIN2cv8KeyPointESaIS4_EEEEOT_RNSt16remove_referenceIS9_E4typeE = comdat any

$_ZNSt10__pair_getILm0EE5__getIKmSt6vectorIN2cv8KeyPointESaIS5_EEEERT_RSt4pairIS8_T0_E = comdat any

$_ZNKSt8__detail15_Hash_code_baseImSt4pairIKmSt6vectorIN2cv8KeyPointESaIS5_EEENS_10_Select1stESt4hashImENS_18_Mod_range_hashingENS_20_Default_ranged_hashELb0EE15_M_bucket_indexEPKNS_10_Hash_nodeIS8_Lb0EEEm = comdat any

$_ZNKSt8__detail10_Select1stclIRKSt4pairIKmSt6vectorIN2cv8KeyPointESaIS6_EEEEEDTclsr3stdE3getIXLi0EEEclsr3stdE7forwardIT_Efp_EEEOSC_ = comdat any

$_ZNKSt8__detail21_Hash_node_value_baseISt4pairIKmSt6vectorIN2cv8KeyPointESaIS5_EEEE4_M_vEv = comdat any

$_ZSt3getILm0EKmSt6vectorIN2cv8KeyPointESaIS3_EEERKNSt13tuple_elementIXT_ESt4pairIT0_T1_EE4typeERKSA_ = comdat any

$_ZSt7forwardIRKSt4pairIKmSt6vectorIN2cv8KeyPointESaIS4_EEEEOT_RNSt16remove_referenceISA_E4typeE = comdat any

$_ZNSt10__pair_getILm0EE11__const_getIKmSt6vectorIN2cv8KeyPointESaIS5_EEEERKT_RKSt4pairIS8_T0_E = comdat any

$_ZNKSt8__detail21_Hash_node_value_baseISt4pairIKmSt6vectorIN2cv8KeyPointESaIS5_EEEE9_M_valptrEv = comdat any

$_ZNK9__gnu_cxx16__aligned_bufferISt4pairIKmSt6vectorIN2cv8KeyPointESaIS5_EEEE6_M_ptrEv = comdat any

$_ZNK9__gnu_cxx16__aligned_bufferISt4pairIKmSt6vectorIN2cv8KeyPointESaIS5_EEEE7_M_addrEv = comdat any

$_ZNSt16allocator_traitsISaINSt8__detail10_Hash_nodeISt4pairIKmSt6vectorIN2cv8KeyPointESaIS6_EEELb0EEEEE8allocateERSB_m = comdat any

$_ZNSt8__detail16_Hashtable_allocISaINS_10_Hash_nodeISt4pairIKmSt6vectorIN2cv8KeyPointESaIS6_EEELb0EEEEE17_M_node_allocatorEv = comdat any

$_ZSt11__addressofINSt8__detail10_Hash_nodeISt4pairIKmSt6vectorIN2cv8KeyPointESaIS6_EEELb0EEEEPT_RSB_ = comdat any

$_ZNSaISt4pairIKmSt6vectorIN2cv8KeyPointESaIS3_EEEEC2INSt8__detail10_Hash_nodeIS6_Lb0EEEEERKSaIT_E = comdat any

$_ZNSt8__detail10_Hash_nodeISt4pairIKmSt6vectorIN2cv8KeyPointESaIS5_EEELb0EEC2Ev = comdat any

$_ZNSt16allocator_traitsISaISt4pairIKmSt6vectorIN2cv8KeyPointESaIS4_EEEEE9constructIS7_JRKSt21piecewise_construct_tSt5tupleIJRS1_EESE_IJEEEEEvRS8_PT_DpOT0_ = comdat any

$_ZNSt8__detail21_Hash_node_value_baseISt4pairIKmSt6vectorIN2cv8KeyPointESaIS5_EEEE9_M_valptrEv = comdat any

$_ZN9__gnu_cxx13new_allocatorISt4pairIKmSt6vectorIN2cv8KeyPointESaIS5_EEEED2Ev = comdat any

$_ZN9__gnu_cxx13new_allocatorINSt8__detail10_Hash_nodeISt4pairIKmSt6vectorIN2cv8KeyPointESaIS7_EEELb0EEEE8allocateEmPKv = comdat any

$_ZNK9__gnu_cxx13new_allocatorINSt8__detail10_Hash_nodeISt4pairIKmSt6vectorIN2cv8KeyPointESaIS7_EEELb0EEEE8max_sizeEv = comdat any

$_ZNSt8__detail21_Hashtable_ebo_helperILi0ESaINS_10_Hash_nodeISt4pairIKmSt6vectorIN2cv8KeyPointESaIS6_EEELb0EEEELb1EE6_S_getERSC_ = comdat any

$_ZN9__gnu_cxx13new_allocatorISt4pairIKmSt6vectorIN2cv8KeyPointESaIS5_EEEEC2Ev = comdat any

$_ZNSt8__detail21_Hash_node_value_baseISt4pairIKmSt6vectorIN2cv8KeyPointESaIS5_EEEEC2Ev = comdat any

$_ZN9__gnu_cxx13new_allocatorISt4pairIKmSt6vectorIN2cv8KeyPointESaIS5_EEEE9constructIS8_JRKSt21piecewise_construct_tSt5tupleIJRS2_EESE_IJEEEEEvPT_DpOT0_ = comdat any

$_ZNSt4pairIKmSt6vectorIN2cv8KeyPointESaIS3_EEEC2IJRS0_EJEEESt21piecewise_construct_tSt5tupleIJDpT_EESA_IJDpT0_EE = comdat any

$_ZNSt4pairIKmSt6vectorIN2cv8KeyPointESaIS3_EEEC2IJRS0_EJLm0EEJEJEEERSt5tupleIJDpT_EERS9_IJDpT1_EESt12_Index_tupleIJXspT0_EEESI_IJXspT2_EEE = comdat any

$_ZN9__gnu_cxx16__aligned_bufferISt4pairIKmSt6vectorIN2cv8KeyPointESaIS5_EEEE6_M_ptrEv = comdat any

$_ZN9__gnu_cxx16__aligned_bufferISt4pairIKmSt6vectorIN2cv8KeyPointESaIS5_EEEE7_M_addrEv = comdat any

$_ZNSt10_HashtableImSt4pairIKmSt6vectorIN2cv8KeyPointESaIS4_EEESaIS7_ENSt8__detail10_Select1stESt8equal_toImESt4hashImENS9_18_Mod_range_hashingENS9_20_Default_ranged_hashENS9_20_Prime_rehash_policyENS9_17_Hashtable_traitsILb0ELb0ELb1EEEE9_M_rehashEmRS1_ = comdat any

$_ZNSt8__detail15_Hash_code_baseImSt4pairIKmSt6vectorIN2cv8KeyPointESaIS5_EEENS_10_Select1stESt4hashImENS_18_Mod_range_hashingENS_20_Default_ranged_hashELb0EE10_M_extractEv = comdat any

$_ZNKSt8__detail15_Hash_code_baseImSt4pairIKmSt6vectorIN2cv8KeyPointESaIS5_EEENS_10_Select1stESt4hashImENS_18_Mod_range_hashingENS_20_Default_ranged_hashELb0EE13_M_store_codeEPNS_10_Hash_nodeIS8_Lb0EEEm = comdat any

$_ZNSt10_HashtableImSt4pairIKmSt6vectorIN2cv8KeyPointESaIS4_EEESaIS7_ENSt8__detail10_Select1stESt8equal_toImESt4hashImENS9_18_Mod_range_hashingENS9_20_Default_ranged_hashENS9_20_Prime_rehash_policyENS9_17_Hashtable_traitsILb0ELb0ELb1EEEE22_M_insert_bucket_beginEmPNS9_10_Hash_nodeIS7_Lb0EEE = comdat any

$_ZNSt8__detail14_Node_iteratorISt4pairIKmSt6vectorIN2cv8KeyPointESaIS5_EEELb0ELb0EEC2EPNS_10_Hash_nodeIS8_Lb0EEE = comdat any

$_ZNSt10_HashtableImSt4pairIKmSt6vectorIN2cv8KeyPointESaIS4_EEESaIS7_ENSt8__detail10_Select1stESt8equal_toImESt4hashImENS9_18_Mod_range_hashingENS9_20_Default_ranged_hashENS9_20_Prime_rehash_policyENS9_17_Hashtable_traitsILb0ELb0ELb1EEEE13_M_rehash_auxEmSt17integral_constantIbLb1EE = comdat any

$_ZNSt10_HashtableImSt4pairIKmSt6vectorIN2cv8KeyPointESaIS4_EEESaIS7_ENSt8__detail10_Select1stESt8equal_toImESt4hashImENS9_18_Mod_range_hashingENS9_20_Default_ranged_hashENS9_20_Prime_rehash_policyENS9_17_Hashtable_traitsILb0ELb0ELb1EEEE19_M_allocate_bucketsEm = comdat any

$_ZNKSt10_HashtableImSt4pairIKmSt6vectorIN2cv8KeyPointESaIS4_EEESaIS7_ENSt8__detail10_Select1stESt8equal_toImESt4hashImENS9_18_Mod_range_hashingENS9_20_Default_ranged_hashENS9_20_Prime_rehash_policyENS9_17_Hashtable_traitsILb0ELb0ELb1EEEE8_M_beginEv = comdat any

$_ZNSt10_HashtableImSt4pairIKmSt6vectorIN2cv8KeyPointESaIS4_EEESaIS7_ENSt8__detail10_Select1stESt8equal_toImESt4hashImENS9_18_Mod_range_hashingENS9_20_Default_ranged_hashENS9_20_Prime_rehash_policyENS9_17_Hashtable_traitsILb0ELb0ELb1EEEE21_M_deallocate_bucketsEv = comdat any

$_ZNSt8__detail16_Hashtable_allocISaINS_10_Hash_nodeISt4pairIKmSt6vectorIN2cv8KeyPointESaIS6_EEELb0EEEEE19_M_allocate_bucketsEm = comdat any

$_ZNSaIPNSt8__detail15_Hash_node_baseEEC2INS_10_Hash_nodeISt4pairIKmSt6vectorIN2cv8KeyPointESaIS9_EEELb0EEEEERKSaIT_E = comdat any

$_ZNSt10_HashtableImSt4pairIKmSt6vectorIN2cv8KeyPointESaIS4_EEESaIS7_ENSt8__detail10_Select1stESt8equal_toImESt4hashImENS9_18_Mod_range_hashingENS9_20_Default_ranged_hashENS9_20_Prime_rehash_policyENS9_17_Hashtable_traitsILb0ELb0ELb1EEEE21_M_deallocate_bucketsEPPNS9_15_Hash_node_baseEm = comdat any

$_ZNKSt10_HashtableImSt4pairIKmSt6vectorIN2cv8KeyPointESaIS4_EEESaIS7_ENSt8__detail10_Select1stESt8equal_toImESt4hashImENS9_18_Mod_range_hashingENS9_20_Default_ranged_hashENS9_20_Prime_rehash_policyENS9_17_Hashtable_traitsILb0ELb0ELb1EEEE21_M_uses_single_bucketEPPNS9_15_Hash_node_baseE = comdat any

$_ZNSt8__detail16_Hashtable_allocISaINS_10_Hash_nodeISt4pairIKmSt6vectorIN2cv8KeyPointESaIS6_EEELb0EEEEE21_M_deallocate_bucketsEPPNS_15_Hash_node_baseEm = comdat any

$_ZNSt8__detail19_Node_iterator_baseISt4pairIKmSt6vectorIN2cv8KeyPointESaIS5_EEELb0EEC2EPNS_10_Hash_nodeIS8_Lb0EEE = comdat any

$_ZN9__gnu_cxxeqIPKN2cv8KeyPointESt6vectorIS2_SaIS2_EEEEbRKNS_17__normal_iteratorIT_T0_EESD_ = comdat any

$_ZNSt8__detail9_Map_baseImSt4pairIKmSt6vectorImSaImEEESaIS6_ENS_10_Select1stESt8equal_toImESt4hashImENS_18_Mod_range_hashingENS_20_Default_ranged_hashENS_20_Prime_rehash_policyENS_17_Hashtable_traitsILb0ELb0ELb1EEELb1EEixERS2_ = comdat any

$_ZNKSt8__detail15_Hash_code_baseImSt4pairIKmSt6vectorImSaImEEENS_10_Select1stESt4hashImENS_18_Mod_range_hashingENS_20_Default_ranged_hashELb0EE12_M_hash_codeERS2_ = comdat any

$_ZNKSt10_HashtableImSt4pairIKmSt6vectorImSaImEEESaIS5_ENSt8__detail10_Select1stESt8equal_toImESt4hashImENS7_18_Mod_range_hashingENS7_20_Default_ranged_hashENS7_20_Prime_rehash_policyENS7_17_Hashtable_traitsILb0ELb0ELb1EEEE15_M_bucket_indexERS1_m = comdat any

$_ZNKSt10_HashtableImSt4pairIKmSt6vectorImSaImEEESaIS5_ENSt8__detail10_Select1stESt8equal_toImESt4hashImENS7_18_Mod_range_hashingENS7_20_Default_ranged_hashENS7_20_Prime_rehash_policyENS7_17_Hashtable_traitsILb0ELb0ELb1EEEE12_M_find_nodeEmRS1_m = comdat any

$_ZNSt8__detail16_Hashtable_allocISaINS_10_Hash_nodeISt4pairIKmSt6vectorImSaImEEELb0EEEEE16_M_allocate_nodeIJRKSt21piecewise_construct_tSt5tupleIJRS3_EESF_IJEEEEEPS8_DpOT_ = comdat any

$_ZNSt10_HashtableImSt4pairIKmSt6vectorImSaImEEESaIS5_ENSt8__detail10_Select1stESt8equal_toImESt4hashImENS7_18_Mod_range_hashingENS7_20_Default_ranged_hashENS7_20_Prime_rehash_policyENS7_17_Hashtable_traitsILb0ELb0ELb1EEEE21_M_insert_unique_nodeEmmPNS7_10_Hash_nodeIS5_Lb0EEE = comdat any

$_ZNKSt8__detail14_Node_iteratorISt4pairIKmSt6vectorImSaImEEELb0ELb0EEptEv = comdat any

$_ZNSt8__detail21_Hash_node_value_baseISt4pairIKmSt6vectorImSaImEEEE4_M_vEv = comdat any

$_ZNKSt8__detail15_Hash_code_baseImSt4pairIKmSt6vectorImSaImEEENS_10_Select1stESt4hashImENS_18_Mod_range_hashingENS_20_Default_ranged_hashELb0EE5_M_h1Ev = comdat any

$_ZNKSt8__detail15_Hash_code_baseImSt4pairIKmSt6vectorImSaImEEENS_10_Select1stESt4hashImENS_18_Mod_range_hashingENS_20_Default_ranged_hashELb0EE15_M_bucket_indexERS2_mm = comdat any

$_ZNKSt8__detail15_Hash_code_baseImSt4pairIKmSt6vectorImSaImEEENS_10_Select1stESt4hashImENS_18_Mod_range_hashingENS_20_Default_ranged_hashELb0EE5_M_h2Ev = comdat any

$_ZNKSt10_HashtableImSt4pairIKmSt6vectorImSaImEEESaIS5_ENSt8__detail10_Select1stESt8equal_toImESt4hashImENS7_18_Mod_range_hashingENS7_20_Default_ranged_hashENS7_20_Prime_rehash_policyENS7_17_Hashtable_traitsILb0ELb0ELb1EEEE19_M_find_before_nodeEmRS1_m = comdat any

$_ZNKSt8__detail15_Hashtable_baseImSt4pairIKmSt6vectorImSaImEEENS_10_Select1stESt8equal_toImESt4hashImENS_18_Mod_range_hashingENS_20_Default_ranged_hashENS_17_Hashtable_traitsILb0ELb0ELb1EEEE9_M_equalsERS2_mPNS_10_Hash_nodeIS6_Lb0EEE = comdat any

$_ZNKSt10_HashtableImSt4pairIKmSt6vectorImSaImEEESaIS5_ENSt8__detail10_Select1stESt8equal_toImESt4hashImENS7_18_Mod_range_hashingENS7_20_Default_ranged_hashENS7_20_Prime_rehash_policyENS7_17_Hashtable_traitsILb0ELb0ELb1EEEE15_M_bucket_indexEPNS7_10_Hash_nodeIS5_Lb0EEE = comdat any

$_ZNKSt8__detail10_Hash_nodeISt4pairIKmSt6vectorImSaImEEELb0EE7_M_nextEv = comdat any

$_ZNSt8__detail13_Equal_helperImSt4pairIKmSt6vectorImSaImEEENS_10_Select1stESt8equal_toImEmLb0EE9_S_equalsERKS9_RKS7_RS2_mPNS_10_Hash_nodeIS6_Lb0EEE = comdat any

$_ZNKSt8__detail15_Hashtable_baseImSt4pairIKmSt6vectorImSaImEEENS_10_Select1stESt8equal_toImESt4hashImENS_18_Mod_range_hashingENS_20_Default_ranged_hashENS_17_Hashtable_traitsILb0ELb0ELb1EEEE5_M_eqEv = comdat any

$_ZNKSt8__detail15_Hash_code_baseImSt4pairIKmSt6vectorImSaImEEENS_10_Select1stESt4hashImENS_18_Mod_range_hashingENS_20_Default_ranged_hashELb0EE10_M_extractEv = comdat any

$_ZNKSt8__detail10_Select1stclIRSt4pairIKmSt6vectorImSaImEEEEEDTclsr3stdE3getIXLi0EEEclsr3stdE7forwardIT_Efp_EEEOS9_ = comdat any

$_ZSt3getILm0EKmSt6vectorImSaImEEERNSt13tuple_elementIXT_ESt4pairIT0_T1_EE4typeERS8_ = comdat any

$_ZSt7forwardIRSt4pairIKmSt6vectorImSaImEEEEOT_RNSt16remove_referenceIS7_E4typeE = comdat any

$_ZNSt10__pair_getILm0EE5__getIKmSt6vectorImSaImEEEERT_RSt4pairIS6_T0_E = comdat any

$_ZNKSt8__detail15_Hash_code_baseImSt4pairIKmSt6vectorImSaImEEENS_10_Select1stESt4hashImENS_18_Mod_range_hashingENS_20_Default_ranged_hashELb0EE15_M_bucket_indexEPKNS_10_Hash_nodeIS6_Lb0EEEm = comdat any

$_ZNKSt8__detail10_Select1stclIRKSt4pairIKmSt6vectorImSaImEEEEEDTclsr3stdE3getIXLi0EEEclsr3stdE7forwardIT_Efp_EEEOSA_ = comdat any

$_ZNKSt8__detail21_Hash_node_value_baseISt4pairIKmSt6vectorImSaImEEEE4_M_vEv = comdat any

$_ZSt3getILm0EKmSt6vectorImSaImEEERKNSt13tuple_elementIXT_ESt4pairIT0_T1_EE4typeERKS8_ = comdat any

$_ZSt7forwardIRKSt4pairIKmSt6vectorImSaImEEEEOT_RNSt16remove_referenceIS8_E4typeE = comdat any

$_ZNSt10__pair_getILm0EE11__const_getIKmSt6vectorImSaImEEEERKT_RKSt4pairIS6_T0_E = comdat any

$_ZNKSt8__detail21_Hash_node_value_baseISt4pairIKmSt6vectorImSaImEEEE9_M_valptrEv = comdat any

$_ZNK9__gnu_cxx16__aligned_bufferISt4pairIKmSt6vectorImSaImEEEE6_M_ptrEv = comdat any

$_ZNK9__gnu_cxx16__aligned_bufferISt4pairIKmSt6vectorImSaImEEEE7_M_addrEv = comdat any

$_ZNSt16allocator_traitsISaINSt8__detail10_Hash_nodeISt4pairIKmSt6vectorImSaImEEELb0EEEEE8allocateERS9_m = comdat any

$_ZNSt8__detail16_Hashtable_allocISaINS_10_Hash_nodeISt4pairIKmSt6vectorImSaImEEELb0EEEEE17_M_node_allocatorEv = comdat any

$_ZSt11__addressofINSt8__detail10_Hash_nodeISt4pairIKmSt6vectorImSaImEEELb0EEEEPT_RS9_ = comdat any

$_ZNSaISt4pairIKmSt6vectorImSaImEEEEC2INSt8__detail10_Hash_nodeIS4_Lb0EEEEERKSaIT_E = comdat any

$_ZNSt8__detail10_Hash_nodeISt4pairIKmSt6vectorImSaImEEELb0EEC2Ev = comdat any

$_ZNSt16allocator_traitsISaISt4pairIKmSt6vectorImSaImEEEEE9constructIS5_JRKSt21piecewise_construct_tSt5tupleIJRS1_EESC_IJEEEEEvRS6_PT_DpOT0_ = comdat any

$_ZNSt8__detail21_Hash_node_value_baseISt4pairIKmSt6vectorImSaImEEEE9_M_valptrEv = comdat any

$_ZN9__gnu_cxx13new_allocatorISt4pairIKmSt6vectorImSaImEEEED2Ev = comdat any

$_ZN9__gnu_cxx13new_allocatorINSt8__detail10_Hash_nodeISt4pairIKmSt6vectorImSaImEEELb0EEEE8allocateEmPKv = comdat any

$_ZNK9__gnu_cxx13new_allocatorINSt8__detail10_Hash_nodeISt4pairIKmSt6vectorImSaImEEELb0EEEE8max_sizeEv = comdat any

$_ZNSt8__detail21_Hashtable_ebo_helperILi0ESaINS_10_Hash_nodeISt4pairIKmSt6vectorImSaImEEELb0EEEELb1EE6_S_getERSA_ = comdat any

$_ZN9__gnu_cxx13new_allocatorISt4pairIKmSt6vectorImSaImEEEEC2Ev = comdat any

$_ZNSt8__detail21_Hash_node_value_baseISt4pairIKmSt6vectorImSaImEEEEC2Ev = comdat any

$_ZN9__gnu_cxx13new_allocatorISt4pairIKmSt6vectorImSaImEEEE9constructIS6_JRKSt21piecewise_construct_tSt5tupleIJRS2_EESC_IJEEEEEvPT_DpOT0_ = comdat any

$_ZNSt4pairIKmSt6vectorImSaImEEEC2IJRS0_EJEEESt21piecewise_construct_tSt5tupleIJDpT_EES8_IJDpT0_EE = comdat any

$_ZNSt4pairIKmSt6vectorImSaImEEEC2IJRS0_EJLm0EEJEJEEERSt5tupleIJDpT_EERS7_IJDpT1_EESt12_Index_tupleIJXspT0_EEESG_IJXspT2_EEE = comdat any

$_ZN9__gnu_cxx16__aligned_bufferISt4pairIKmSt6vectorImSaImEEEE6_M_ptrEv = comdat any

$_ZN9__gnu_cxx16__aligned_bufferISt4pairIKmSt6vectorImSaImEEEE7_M_addrEv = comdat any

$_ZNSt10_HashtableImSt4pairIKmSt6vectorImSaImEEESaIS5_ENSt8__detail10_Select1stESt8equal_toImESt4hashImENS7_18_Mod_range_hashingENS7_20_Default_ranged_hashENS7_20_Prime_rehash_policyENS7_17_Hashtable_traitsILb0ELb0ELb1EEEE9_M_rehashEmRS1_ = comdat any

$_ZNSt8__detail15_Hash_code_baseImSt4pairIKmSt6vectorImSaImEEENS_10_Select1stESt4hashImENS_18_Mod_range_hashingENS_20_Default_ranged_hashELb0EE10_M_extractEv = comdat any

$_ZNKSt8__detail15_Hash_code_baseImSt4pairIKmSt6vectorImSaImEEENS_10_Select1stESt4hashImENS_18_Mod_range_hashingENS_20_Default_ranged_hashELb0EE13_M_store_codeEPNS_10_Hash_nodeIS6_Lb0EEEm = comdat any

$_ZNSt10_HashtableImSt4pairIKmSt6vectorImSaImEEESaIS5_ENSt8__detail10_Select1stESt8equal_toImESt4hashImENS7_18_Mod_range_hashingENS7_20_Default_ranged_hashENS7_20_Prime_rehash_policyENS7_17_Hashtable_traitsILb0ELb0ELb1EEEE22_M_insert_bucket_beginEmPNS7_10_Hash_nodeIS5_Lb0EEE = comdat any

$_ZNSt8__detail14_Node_iteratorISt4pairIKmSt6vectorImSaImEEELb0ELb0EEC2EPNS_10_Hash_nodeIS6_Lb0EEE = comdat any

$_ZNSt10_HashtableImSt4pairIKmSt6vectorImSaImEEESaIS5_ENSt8__detail10_Select1stESt8equal_toImESt4hashImENS7_18_Mod_range_hashingENS7_20_Default_ranged_hashENS7_20_Prime_rehash_policyENS7_17_Hashtable_traitsILb0ELb0ELb1EEEE13_M_rehash_auxEmSt17integral_constantIbLb1EE = comdat any

$_ZNSt10_HashtableImSt4pairIKmSt6vectorImSaImEEESaIS5_ENSt8__detail10_Select1stESt8equal_toImESt4hashImENS7_18_Mod_range_hashingENS7_20_Default_ranged_hashENS7_20_Prime_rehash_policyENS7_17_Hashtable_traitsILb0ELb0ELb1EEEE19_M_allocate_bucketsEm = comdat any

$_ZNKSt10_HashtableImSt4pairIKmSt6vectorImSaImEEESaIS5_ENSt8__detail10_Select1stESt8equal_toImESt4hashImENS7_18_Mod_range_hashingENS7_20_Default_ranged_hashENS7_20_Prime_rehash_policyENS7_17_Hashtable_traitsILb0ELb0ELb1EEEE8_M_beginEv = comdat any

$_ZNSt10_HashtableImSt4pairIKmSt6vectorImSaImEEESaIS5_ENSt8__detail10_Select1stESt8equal_toImESt4hashImENS7_18_Mod_range_hashingENS7_20_Default_ranged_hashENS7_20_Prime_rehash_policyENS7_17_Hashtable_traitsILb0ELb0ELb1EEEE21_M_deallocate_bucketsEv = comdat any

$_ZNSt8__detail16_Hashtable_allocISaINS_10_Hash_nodeISt4pairIKmSt6vectorImSaImEEELb0EEEEE19_M_allocate_bucketsEm = comdat any

$_ZNSaIPNSt8__detail15_Hash_node_baseEEC2INS_10_Hash_nodeISt4pairIKmSt6vectorImSaImEEELb0EEEEERKSaIT_E = comdat any

$_ZNSt10_HashtableImSt4pairIKmSt6vectorImSaImEEESaIS5_ENSt8__detail10_Select1stESt8equal_toImESt4hashImENS7_18_Mod_range_hashingENS7_20_Default_ranged_hashENS7_20_Prime_rehash_policyENS7_17_Hashtable_traitsILb0ELb0ELb1EEEE21_M_deallocate_bucketsEPPNS7_15_Hash_node_baseEm = comdat any

$_ZNKSt10_HashtableImSt4pairIKmSt6vectorImSaImEEESaIS5_ENSt8__detail10_Select1stESt8equal_toImESt4hashImENS7_18_Mod_range_hashingENS7_20_Default_ranged_hashENS7_20_Prime_rehash_policyENS7_17_Hashtable_traitsILb0ELb0ELb1EEEE21_M_uses_single_bucketEPPNS7_15_Hash_node_baseE = comdat any

$_ZNSt8__detail16_Hashtable_allocISaINS_10_Hash_nodeISt4pairIKmSt6vectorImSaImEEELb0EEEEE21_M_deallocate_bucketsEPPNS_15_Hash_node_baseEm = comdat any

$_ZNSt8__detail19_Node_iterator_baseISt4pairIKmSt6vectorImSaImEEELb0EEC2EPNS_10_Hash_nodeIS6_Lb0EEE = comdat any

$_ZNSt3mapImN2cv3MatESt4lessImESaISt4pairIKmS1_EEE11lower_boundERS5_ = comdat any

$_ZNKSt17_Rb_tree_iteratorISt4pairIKmN2cv3MatEEEeqERKS5_ = comdat any

$_ZNSt3mapImN2cv3MatESt4lessImESaISt4pairIKmS1_EEE3endEv = comdat any

$_ZNKSt3mapImN2cv3MatESt4lessImESaISt4pairIKmS1_EEE8key_compEv = comdat any

$_ZNKSt17_Rb_tree_iteratorISt4pairIKmN2cv3MatEEEdeEv = comdat any

$_ZNSt8_Rb_treeImSt4pairIKmN2cv3MatEESt10_Select1stIS4_ESt4lessImESaIS4_EE22_M_emplace_hint_uniqueIJRKSt21piecewise_construct_tSt5tupleIJRS1_EESF_IJEEEEESt17_Rb_tree_iteratorIS4_ESt23_Rb_tree_const_iteratorIS4_EDpOT_ = comdat any

$_ZNSt23_Rb_tree_const_iteratorISt4pairIKmN2cv3MatEEEC2ERKSt17_Rb_tree_iteratorIS4_E = comdat any

$_ZNSt8_Rb_treeImSt4pairIKmN2cv3MatEESt10_Select1stIS4_ESt4lessImESaIS4_EE11lower_boundERS1_ = comdat any

$_ZNSt8_Rb_treeImSt4pairIKmN2cv3MatEESt10_Select1stIS4_ESt4lessImESaIS4_EE14_M_lower_boundEPSt13_Rb_tree_nodeIS4_ESD_RS1_ = comdat any

$_ZNSt8_Rb_treeImSt4pairIKmN2cv3MatEESt10_Select1stIS4_ESt4lessImESaIS4_EE8_M_beginEv = comdat any

$_ZNSt8_Rb_treeImSt4pairIKmN2cv3MatEESt10_Select1stIS4_ESt4lessImESaIS4_EE6_M_endEv = comdat any

$_ZNSt8_Rb_treeImSt4pairIKmN2cv3MatEESt10_Select1stIS4_ESt4lessImESaIS4_EE6_S_keyEPKSt13_Rb_tree_nodeIS4_E = comdat any

$_ZNSt8_Rb_treeImSt4pairIKmN2cv3MatEESt10_Select1stIS4_ESt4lessImESaIS4_EE7_S_leftEPSt18_Rb_tree_node_base = comdat any

$_ZNSt8_Rb_treeImSt4pairIKmN2cv3MatEESt10_Select1stIS4_ESt4lessImESaIS4_EE8_S_rightEPSt18_Rb_tree_node_base = comdat any

$_ZNSt17_Rb_tree_iteratorISt4pairIKmN2cv3MatEEEC2EPSt18_Rb_tree_node_base = comdat any

$_ZNKSt10_Select1stISt4pairIKmN2cv3MatEEEclERKS4_ = comdat any

$_ZNSt8_Rb_treeImSt4pairIKmN2cv3MatEESt10_Select1stIS4_ESt4lessImESaIS4_EE8_S_valueEPKSt13_Rb_tree_nodeIS4_E = comdat any

$_ZNKSt13_Rb_tree_nodeISt4pairIKmN2cv3MatEEE9_M_valptrEv = comdat any

$_ZNK9__gnu_cxx16__aligned_membufISt4pairIKmN2cv3MatEEE6_M_ptrEv = comdat any

$_ZNK9__gnu_cxx16__aligned_membufISt4pairIKmN2cv3MatEEE7_M_addrEv = comdat any

$_ZNSt8_Rb_treeImSt4pairIKmN2cv3MatEESt10_Select1stIS4_ESt4lessImESaIS4_EE3endEv = comdat any

$_ZNKSt8_Rb_treeImSt4pairIKmN2cv3MatEESt10_Select1stIS4_ESt4lessImESaIS4_EE8key_compEv = comdat any

$_ZNSt13_Rb_tree_nodeISt4pairIKmN2cv3MatEEE9_M_valptrEv = comdat any

$_ZN9__gnu_cxx16__aligned_membufISt4pairIKmN2cv3MatEEE6_M_ptrEv = comdat any

$_ZN9__gnu_cxx16__aligned_membufISt4pairIKmN2cv3MatEEE7_M_addrEv = comdat any

$_ZNSt8_Rb_treeImSt4pairIKmN2cv3MatEESt10_Select1stIS4_ESt4lessImESaIS4_EE14_M_create_nodeIJRKSt21piecewise_construct_tSt5tupleIJRS1_EESF_IJEEEEEPSt13_Rb_tree_nodeIS4_EDpOT_ = comdat any

$_ZNSt8_Rb_treeImSt4pairIKmN2cv3MatEESt10_Select1stIS4_ESt4lessImESaIS4_EE29_M_get_insert_hint_unique_posESt23_Rb_tree_const_iteratorIS4_ERS1_ = comdat any

$_ZNSt8_Rb_treeImSt4pairIKmN2cv3MatEESt10_Select1stIS4_ESt4lessImESaIS4_EE14_M_insert_nodeEPSt18_Rb_tree_node_baseSC_PSt13_Rb_tree_nodeIS4_E = comdat any

$_ZNSt8_Rb_treeImSt4pairIKmN2cv3MatEESt10_Select1stIS4_ESt4lessImESaIS4_EE12_M_drop_nodeEPSt13_Rb_tree_nodeIS4_E = comdat any

$_ZNSt8_Rb_treeImSt4pairIKmN2cv3MatEESt10_Select1stIS4_ESt4lessImESaIS4_EE11_M_get_nodeEv = comdat any

$_ZNSt8_Rb_treeImSt4pairIKmN2cv3MatEESt10_Select1stIS4_ESt4lessImESaIS4_EE17_M_construct_nodeIJRKSt21piecewise_construct_tSt5tupleIJRS1_EESF_IJEEEEEvPSt13_Rb_tree_nodeIS4_EDpOT_ = comdat any

$_ZNSt16allocator_traitsISaISt13_Rb_tree_nodeISt4pairIKmN2cv3MatEEEEE8allocateERS7_m = comdat any

$_ZNSt8_Rb_treeImSt4pairIKmN2cv3MatEESt10_Select1stIS4_ESt4lessImESaIS4_EE21_M_get_Node_allocatorEv = comdat any

$_ZN9__gnu_cxx13new_allocatorISt13_Rb_tree_nodeISt4pairIKmN2cv3MatEEEE8allocateEmPKv = comdat any

$_ZNK9__gnu_cxx13new_allocatorISt13_Rb_tree_nodeISt4pairIKmN2cv3MatEEEE8max_sizeEv = comdat any

$_ZNSt16allocator_traitsISaISt13_Rb_tree_nodeISt4pairIKmN2cv3MatEEEEE9constructIS5_JRKSt21piecewise_construct_tSt5tupleIJRS2_EESD_IJEEEEEvRS7_PT_DpOT0_ = comdat any

$_ZN9__gnu_cxx13new_allocatorISt13_Rb_tree_nodeISt4pairIKmN2cv3MatEEEE9constructIS6_JRKSt21piecewise_construct_tSt5tupleIJRS3_EESD_IJEEEEEvPT_DpOT0_ = comdat any

$_ZNSt4pairIKmN2cv3MatEEC2IJRS0_EJEEESt21piecewise_construct_tSt5tupleIJDpT_EES7_IJDpT0_EE = comdat any

$_ZNSt4pairIKmN2cv3MatEEC2IJRS0_EJLm0EEJEJEEERSt5tupleIJDpT_EERS6_IJDpT1_EESt12_Index_tupleIJXspT0_EEESF_IJXspT2_EEE = comdat any

$_ZNKSt23_Rb_tree_const_iteratorISt4pairIKmN2cv3MatEEE13_M_const_castEv = comdat any

$_ZNKSt8_Rb_treeImSt4pairIKmN2cv3MatEESt10_Select1stIS4_ESt4lessImESaIS4_EE4sizeEv = comdat any

$_ZNSt8_Rb_treeImSt4pairIKmN2cv3MatEESt10_Select1stIS4_ESt4lessImESaIS4_EE6_S_keyEPKSt18_Rb_tree_node_base = comdat any

$_ZNSt8_Rb_treeImSt4pairIKmN2cv3MatEESt10_Select1stIS4_ESt4lessImESaIS4_EE12_M_rightmostEv = comdat any

$_ZNSt4pairIPSt18_Rb_tree_node_baseS1_EC2IRS1_vEERKS1_OT_ = comdat any

$_ZNSt8_Rb_treeImSt4pairIKmN2cv3MatEESt10_Select1stIS4_ESt4lessImESaIS4_EE24_M_get_insert_unique_posERS1_ = comdat any

$_ZNSt8_Rb_treeImSt4pairIKmN2cv3MatEESt10_Select1stIS4_ESt4lessImESaIS4_EE11_M_leftmostEv = comdat any

$_ZNSt4pairIPSt18_Rb_tree_node_baseS1_EC2IRS1_S4_vEEOT_OT0_ = comdat any

$_ZNSt17_Rb_tree_iteratorISt4pairIKmN2cv3MatEEEmmEv = comdat any

$_ZNSt17_Rb_tree_iteratorISt4pairIKmN2cv3MatEEEppEv = comdat any

$_ZNSt4pairIPSt18_Rb_tree_node_baseS1_EC2IRS1_vEEOT_RKS1_ = comdat any

$_ZNSt8_Rb_treeImSt4pairIKmN2cv3MatEESt10_Select1stIS4_ESt4lessImESaIS4_EE8_S_valueEPKSt18_Rb_tree_node_base = comdat any

$_ZSt7forwardIRPSt18_Rb_tree_node_baseEOT_RNSt16remove_referenceIS3_E4typeE = comdat any

$_ZNSt8_Rb_treeImSt4pairIKmN2cv3MatEESt10_Select1stIS4_ESt4lessImESaIS4_EE5beginEv = comdat any

$_ZNSt4pairIPSt18_Rb_tree_node_baseS1_EC2IRPSt13_Rb_tree_nodeIS_IKmN2cv3MatEEESB_vEEOT_OT0_ = comdat any

$_ZSt7forwardIRPSt13_Rb_tree_nodeISt4pairIKmN2cv3MatEEEEOT_RNSt16remove_referenceIS9_E4typeE = comdat any

$_ZNSt8_Rb_treeImSt4pairIKmN2cv3MatEESt10_Select1stIS4_ESt4lessImESaIS4_EE15_M_destroy_nodeEPSt13_Rb_tree_nodeIS4_E = comdat any

$_ZNSt8_Rb_treeImSt4pairIKmN2cv3MatEESt10_Select1stIS4_ESt4lessImESaIS4_EE11_M_put_nodeEPSt13_Rb_tree_nodeIS4_E = comdat any

$_ZNSt16allocator_traitsISaISt13_Rb_tree_nodeISt4pairIKmN2cv3MatEEEEE7destroyIS5_EEvRS7_PT_ = comdat any

$_ZN9__gnu_cxx13new_allocatorISt13_Rb_tree_nodeISt4pairIKmN2cv3MatEEEE7destroyIS6_EEvPT_ = comdat any

$_ZNSt4pairIKmN2cv3MatEED2Ev = comdat any

$_ZNSt16allocator_traitsISaISt13_Rb_tree_nodeISt4pairIKmN2cv3MatEEEEE10deallocateERS7_PS6_m = comdat any

$_ZN9__gnu_cxx13new_allocatorISt13_Rb_tree_nodeISt4pairIKmN2cv3MatEEEE10deallocateEPS7_m = comdat any

$_ZNSt3mapImSt6vectorIN2cv3MatESaIS2_EESt4lessImESaISt4pairIKmS4_EEE11lower_boundERS8_ = comdat any

$_ZNKSt17_Rb_tree_iteratorISt4pairIKmSt6vectorIN2cv3MatESaIS4_EEEEeqERKS8_ = comdat any

$_ZNSt3mapImSt6vectorIN2cv3MatESaIS2_EESt4lessImESaISt4pairIKmS4_EEE3endEv = comdat any

$_ZNKSt3mapImSt6vectorIN2cv3MatESaIS2_EESt4lessImESaISt4pairIKmS4_EEE8key_compEv = comdat any

$_ZNKSt17_Rb_tree_iteratorISt4pairIKmSt6vectorIN2cv3MatESaIS4_EEEEdeEv = comdat any

$_ZNSt8_Rb_treeImSt4pairIKmSt6vectorIN2cv3MatESaIS4_EEESt10_Select1stIS7_ESt4lessImESaIS7_EE22_M_emplace_hint_uniqueIJRKSt21piecewise_construct_tSt5tupleIJRS1_EESI_IJEEEEESt17_Rb_tree_iteratorIS7_ESt23_Rb_tree_const_iteratorIS7_EDpOT_ = comdat any

$_ZNSt23_Rb_tree_const_iteratorISt4pairIKmSt6vectorIN2cv3MatESaIS4_EEEEC2ERKSt17_Rb_tree_iteratorIS7_E = comdat any

$_ZNSt8_Rb_treeImSt4pairIKmSt6vectorIN2cv3MatESaIS4_EEESt10_Select1stIS7_ESt4lessImESaIS7_EE11lower_boundERS1_ = comdat any

$_ZNSt8_Rb_treeImSt4pairIKmSt6vectorIN2cv3MatESaIS4_EEESt10_Select1stIS7_ESt4lessImESaIS7_EE14_M_lower_boundEPSt13_Rb_tree_nodeIS7_ESG_RS1_ = comdat any

$_ZNSt8_Rb_treeImSt4pairIKmSt6vectorIN2cv3MatESaIS4_EEESt10_Select1stIS7_ESt4lessImESaIS7_EE8_M_beginEv = comdat any

$_ZNSt8_Rb_treeImSt4pairIKmSt6vectorIN2cv3MatESaIS4_EEESt10_Select1stIS7_ESt4lessImESaIS7_EE6_M_endEv = comdat any

$_ZNSt8_Rb_treeImSt4pairIKmSt6vectorIN2cv3MatESaIS4_EEESt10_Select1stIS7_ESt4lessImESaIS7_EE6_S_keyEPKSt13_Rb_tree_nodeIS7_E = comdat any

$_ZNSt8_Rb_treeImSt4pairIKmSt6vectorIN2cv3MatESaIS4_EEESt10_Select1stIS7_ESt4lessImESaIS7_EE7_S_leftEPSt18_Rb_tree_node_base = comdat any

$_ZNSt8_Rb_treeImSt4pairIKmSt6vectorIN2cv3MatESaIS4_EEESt10_Select1stIS7_ESt4lessImESaIS7_EE8_S_rightEPSt18_Rb_tree_node_base = comdat any

$_ZNSt17_Rb_tree_iteratorISt4pairIKmSt6vectorIN2cv3MatESaIS4_EEEEC2EPSt18_Rb_tree_node_base = comdat any

$_ZNKSt10_Select1stISt4pairIKmSt6vectorIN2cv3MatESaIS4_EEEEclERKS7_ = comdat any

$_ZNSt8_Rb_treeImSt4pairIKmSt6vectorIN2cv3MatESaIS4_EEESt10_Select1stIS7_ESt4lessImESaIS7_EE8_S_valueEPKSt13_Rb_tree_nodeIS7_E = comdat any

$_ZNKSt13_Rb_tree_nodeISt4pairIKmSt6vectorIN2cv3MatESaIS4_EEEE9_M_valptrEv = comdat any

$_ZNK9__gnu_cxx16__aligned_membufISt4pairIKmSt6vectorIN2cv3MatESaIS5_EEEE6_M_ptrEv = comdat any

$_ZNK9__gnu_cxx16__aligned_membufISt4pairIKmSt6vectorIN2cv3MatESaIS5_EEEE7_M_addrEv = comdat any

$_ZNSt8_Rb_treeImSt4pairIKmSt6vectorIN2cv3MatESaIS4_EEESt10_Select1stIS7_ESt4lessImESaIS7_EE3endEv = comdat any

$_ZNKSt8_Rb_treeImSt4pairIKmSt6vectorIN2cv3MatESaIS4_EEESt10_Select1stIS7_ESt4lessImESaIS7_EE8key_compEv = comdat any

$_ZNSt13_Rb_tree_nodeISt4pairIKmSt6vectorIN2cv3MatESaIS4_EEEE9_M_valptrEv = comdat any

$_ZN9__gnu_cxx16__aligned_membufISt4pairIKmSt6vectorIN2cv3MatESaIS5_EEEE6_M_ptrEv = comdat any

$_ZN9__gnu_cxx16__aligned_membufISt4pairIKmSt6vectorIN2cv3MatESaIS5_EEEE7_M_addrEv = comdat any

$_ZNSt8_Rb_treeImSt4pairIKmSt6vectorIN2cv3MatESaIS4_EEESt10_Select1stIS7_ESt4lessImESaIS7_EE14_M_create_nodeIJRKSt21piecewise_construct_tSt5tupleIJRS1_EESI_IJEEEEEPSt13_Rb_tree_nodeIS7_EDpOT_ = comdat any

$_ZNSt8_Rb_treeImSt4pairIKmSt6vectorIN2cv3MatESaIS4_EEESt10_Select1stIS7_ESt4lessImESaIS7_EE29_M_get_insert_hint_unique_posESt23_Rb_tree_const_iteratorIS7_ERS1_ = comdat any

$_ZNSt8_Rb_treeImSt4pairIKmSt6vectorIN2cv3MatESaIS4_EEESt10_Select1stIS7_ESt4lessImESaIS7_EE14_M_insert_nodeEPSt18_Rb_tree_node_baseSF_PSt13_Rb_tree_nodeIS7_E = comdat any

$_ZNSt8_Rb_treeImSt4pairIKmSt6vectorIN2cv3MatESaIS4_EEESt10_Select1stIS7_ESt4lessImESaIS7_EE12_M_drop_nodeEPSt13_Rb_tree_nodeIS7_E = comdat any

$_ZNSt8_Rb_treeImSt4pairIKmSt6vectorIN2cv3MatESaIS4_EEESt10_Select1stIS7_ESt4lessImESaIS7_EE11_M_get_nodeEv = comdat any

$_ZNSt8_Rb_treeImSt4pairIKmSt6vectorIN2cv3MatESaIS4_EEESt10_Select1stIS7_ESt4lessImESaIS7_EE17_M_construct_nodeIJRKSt21piecewise_construct_tSt5tupleIJRS1_EESI_IJEEEEEvPSt13_Rb_tree_nodeIS7_EDpOT_ = comdat any

$_ZNSt16allocator_traitsISaISt13_Rb_tree_nodeISt4pairIKmSt6vectorIN2cv3MatESaIS5_EEEEEE8allocateERSA_m = comdat any

$_ZNSt8_Rb_treeImSt4pairIKmSt6vectorIN2cv3MatESaIS4_EEESt10_Select1stIS7_ESt4lessImESaIS7_EE21_M_get_Node_allocatorEv = comdat any

$_ZN9__gnu_cxx13new_allocatorISt13_Rb_tree_nodeISt4pairIKmSt6vectorIN2cv3MatESaIS6_EEEEE8allocateEmPKv = comdat any

$_ZNK9__gnu_cxx13new_allocatorISt13_Rb_tree_nodeISt4pairIKmSt6vectorIN2cv3MatESaIS6_EEEEE8max_sizeEv = comdat any

$_ZNSt16allocator_traitsISaISt13_Rb_tree_nodeISt4pairIKmSt6vectorIN2cv3MatESaIS5_EEEEEE9constructIS8_JRKSt21piecewise_construct_tSt5tupleIJRS2_EESG_IJEEEEEvRSA_PT_DpOT0_ = comdat any

$_ZN9__gnu_cxx13new_allocatorISt13_Rb_tree_nodeISt4pairIKmSt6vectorIN2cv3MatESaIS6_EEEEE9constructIS9_JRKSt21piecewise_construct_tSt5tupleIJRS3_EESG_IJEEEEEvPT_DpOT0_ = comdat any

$_ZNSt4pairIKmSt6vectorIN2cv3MatESaIS3_EEEC2IJRS0_EJEEESt21piecewise_construct_tSt5tupleIJDpT_EESA_IJDpT0_EE = comdat any

$_ZNSt4pairIKmSt6vectorIN2cv3MatESaIS3_EEEC2IJRS0_EJLm0EEJEJEEERSt5tupleIJDpT_EERS9_IJDpT1_EESt12_Index_tupleIJXspT0_EEESI_IJXspT2_EEE = comdat any

$_ZNKSt23_Rb_tree_const_iteratorISt4pairIKmSt6vectorIN2cv3MatESaIS4_EEEE13_M_const_castEv = comdat any

$_ZNKSt8_Rb_treeImSt4pairIKmSt6vectorIN2cv3MatESaIS4_EEESt10_Select1stIS7_ESt4lessImESaIS7_EE4sizeEv = comdat any

$_ZNSt8_Rb_treeImSt4pairIKmSt6vectorIN2cv3MatESaIS4_EEESt10_Select1stIS7_ESt4lessImESaIS7_EE6_S_keyEPKSt18_Rb_tree_node_base = comdat any

$_ZNSt8_Rb_treeImSt4pairIKmSt6vectorIN2cv3MatESaIS4_EEESt10_Select1stIS7_ESt4lessImESaIS7_EE12_M_rightmostEv = comdat any

$_ZNSt8_Rb_treeImSt4pairIKmSt6vectorIN2cv3MatESaIS4_EEESt10_Select1stIS7_ESt4lessImESaIS7_EE24_M_get_insert_unique_posERS1_ = comdat any

$_ZNSt8_Rb_treeImSt4pairIKmSt6vectorIN2cv3MatESaIS4_EEESt10_Select1stIS7_ESt4lessImESaIS7_EE11_M_leftmostEv = comdat any

$_ZNSt17_Rb_tree_iteratorISt4pairIKmSt6vectorIN2cv3MatESaIS4_EEEEmmEv = comdat any

$_ZNSt17_Rb_tree_iteratorISt4pairIKmSt6vectorIN2cv3MatESaIS4_EEEEppEv = comdat any

$_ZNSt8_Rb_treeImSt4pairIKmSt6vectorIN2cv3MatESaIS4_EEESt10_Select1stIS7_ESt4lessImESaIS7_EE8_S_valueEPKSt18_Rb_tree_node_base = comdat any

$_ZNSt8_Rb_treeImSt4pairIKmSt6vectorIN2cv3MatESaIS4_EEESt10_Select1stIS7_ESt4lessImESaIS7_EE5beginEv = comdat any

$_ZNSt4pairIPSt18_Rb_tree_node_baseS1_EC2IRPSt13_Rb_tree_nodeIS_IKmSt6vectorIN2cv3MatESaIS8_EEEESE_vEEOT_OT0_ = comdat any

$_ZSt7forwardIRPSt13_Rb_tree_nodeISt4pairIKmSt6vectorIN2cv3MatESaIS5_EEEEEOT_RNSt16remove_referenceISC_E4typeE = comdat any

$_ZNSt8_Rb_treeImSt4pairIKmSt6vectorIN2cv3MatESaIS4_EEESt10_Select1stIS7_ESt4lessImESaIS7_EE15_M_destroy_nodeEPSt13_Rb_tree_nodeIS7_E = comdat any

$_ZNSt8_Rb_treeImSt4pairIKmSt6vectorIN2cv3MatESaIS4_EEESt10_Select1stIS7_ESt4lessImESaIS7_EE11_M_put_nodeEPSt13_Rb_tree_nodeIS7_E = comdat any

$_ZNSt16allocator_traitsISaISt13_Rb_tree_nodeISt4pairIKmSt6vectorIN2cv3MatESaIS5_EEEEEE7destroyIS8_EEvRSA_PT_ = comdat any

$_ZN9__gnu_cxx13new_allocatorISt13_Rb_tree_nodeISt4pairIKmSt6vectorIN2cv3MatESaIS6_EEEEE7destroyIS9_EEvPT_ = comdat any

$_ZNSt4pairIKmSt6vectorIN2cv3MatESaIS3_EEED2Ev = comdat any

$_ZNSt16allocator_traitsISaISt13_Rb_tree_nodeISt4pairIKmSt6vectorIN2cv3MatESaIS5_EEEEEE10deallocateERSA_PS9_m = comdat any

$_ZN9__gnu_cxx13new_allocatorISt13_Rb_tree_nodeISt4pairIKmSt6vectorIN2cv3MatESaIS6_EEEEE10deallocateEPSA_m = comdat any

$_ZNKSt6vectorIN2cv3MatESaIS1_EE4sizeEv = comdat any

$_ZNKSt6vectorIN2cv3MatESaIS1_EE8capacityEv = comdat any

$_ZNSt6vectorIN2cv3MatESaIS1_EE20_M_allocate_and_copyIN9__gnu_cxx17__normal_iteratorIPKS1_S3_EEEEPS1_mT_SB_ = comdat any

$_ZNKSt6vectorIN2cv3MatESaIS1_EE5beginEv = comdat any

$_ZNKSt6vectorIN2cv3MatESaIS1_EE3endEv = comdat any

$_ZSt8_DestroyIN9__gnu_cxx17__normal_iteratorIPN2cv3MatESt6vectorIS3_SaIS3_EEEES3_EvT_S9_RSaIT0_E = comdat any

$_ZSt4copyIN9__gnu_cxx17__normal_iteratorIPKN2cv3MatESt6vectorIS3_SaIS3_EEEENS1_IPS3_S8_EEET0_T_SD_SC_ = comdat any

$_ZNSt6vectorIN2cv3MatESaIS1_EE5beginEv = comdat any

$_ZNSt6vectorIN2cv3MatESaIS1_EE3endEv = comdat any

$_ZSt4copyIPN2cv3MatES2_ET0_T_S4_S3_ = comdat any

$_ZSt22__uninitialized_copy_aIPN2cv3MatES2_S1_ET0_T_S4_S3_RSaIT1_E = comdat any

$_ZNSt12_Vector_baseIN2cv3MatESaIS1_EE11_M_allocateEm = comdat any

$_ZSt22__uninitialized_copy_aIN9__gnu_cxx17__normal_iteratorIPKN2cv3MatESt6vectorIS3_SaIS3_EEEEPS3_S3_ET0_T_SC_SB_RSaIT1_E = comdat any

$_ZNSt16allocator_traitsISaIN2cv3MatEEE8allocateERS2_m = comdat any

$_ZN9__gnu_cxx13new_allocatorIN2cv3MatEE8allocateEmPKv = comdat any

$_ZNK9__gnu_cxx13new_allocatorIN2cv3MatEE8max_sizeEv = comdat any

$_ZSt18uninitialized_copyIN9__gnu_cxx17__normal_iteratorIPKN2cv3MatESt6vectorIS3_SaIS3_EEEEPS3_ET0_T_SC_SB_ = comdat any

$_ZNSt20__uninitialized_copyILb0EE13__uninit_copyIN9__gnu_cxx17__normal_iteratorIPKN2cv3MatESt6vectorIS5_SaIS5_EEEEPS5_EET0_T_SE_SD_ = comdat any

$_ZN9__gnu_cxxneIPKN2cv3MatESt6vectorIS2_SaIS2_EEEEbRKNS_17__normal_iteratorIT_T0_EESD_ = comdat any

$_ZSt10_ConstructIN2cv3MatEJRKS1_EEvPT_DpOT0_ = comdat any

$_ZNK9__gnu_cxx17__normal_iteratorIPKN2cv3MatESt6vectorIS2_SaIS2_EEEdeEv = comdat any

$_ZN9__gnu_cxx17__normal_iteratorIPKN2cv3MatESt6vectorIS2_SaIS2_EEEppEv = comdat any

$_ZNK9__gnu_cxx17__normal_iteratorIPKN2cv3MatESt6vectorIS2_SaIS2_EEE4baseEv = comdat any

$_ZSt7forwardIRKN2cv3MatEEOT_RNSt16remove_referenceIS4_E4typeE = comdat any

$_ZN2cv3MatC2ERKS0_ = comdat any

$_ZNK2cv7MatStepixEi = comdat any

$_ZN9__gnu_cxx17__normal_iteratorIPKN2cv3MatESt6vectorIS2_SaIS2_EEEC2ERKS4_ = comdat any

$_ZSt8_DestroyIN9__gnu_cxx17__normal_iteratorIPN2cv3MatESt6vectorIS3_SaIS3_EEEEEvT_S9_ = comdat any

$_ZNSt12_Destroy_auxILb0EE9__destroyIN9__gnu_cxx17__normal_iteratorIPN2cv3MatESt6vectorIS5_SaIS5_EEEEEEvT_SB_ = comdat any

$_ZN9__gnu_cxxneIPN2cv3MatESt6vectorIS2_SaIS2_EEEEbRKNS_17__normal_iteratorIT_T0_EESC_ = comdat any

$_ZNK9__gnu_cxx17__normal_iteratorIPN2cv3MatESt6vectorIS2_SaIS2_EEEdeEv = comdat any

$_ZN9__gnu_cxx17__normal_iteratorIPN2cv3MatESt6vectorIS2_SaIS2_EEEppEv = comdat any

$_ZNK9__gnu_cxx17__normal_iteratorIPN2cv3MatESt6vectorIS2_SaIS2_EEE4baseEv = comdat any

$_ZSt14__copy_move_a2ILb0EN9__gnu_cxx17__normal_iteratorIPKN2cv3MatESt6vectorIS3_SaIS3_EEEENS1_IPS3_S8_EEET1_T0_SD_SC_ = comdat any

$_ZSt12__miter_baseIN9__gnu_cxx17__normal_iteratorIPKN2cv3MatESt6vectorIS3_SaIS3_EEEEENSt11_Miter_baseIT_E13iterator_typeESB_ = comdat any

$_ZSt13__copy_move_aILb0EPKN2cv3MatEPS1_ET1_T0_S6_S5_ = comdat any

$_ZSt12__niter_baseIN9__gnu_cxx17__normal_iteratorIPKN2cv3MatESt6vectorIS3_SaIS3_EEEEENSt11_Niter_baseIT_E13iterator_typeESB_ = comdat any

$_ZSt12__niter_baseIN9__gnu_cxx17__normal_iteratorIPN2cv3MatESt6vectorIS3_SaIS3_EEEEENSt11_Niter_baseIT_E13iterator_typeESA_ = comdat any

$_ZN9__gnu_cxx17__normal_iteratorIPN2cv3MatESt6vectorIS2_SaIS2_EEEC2ERKS3_ = comdat any

$_ZNSt11__copy_moveILb0ELb0ESt26random_access_iterator_tagE8__copy_mIPKN2cv3MatEPS4_EET0_T_S9_S8_ = comdat any

$_ZN2cv3MataSERKS0_ = comdat any

$_ZNSt10_Iter_baseIN9__gnu_cxx17__normal_iteratorIPKN2cv3MatESt6vectorIS3_SaIS3_EEEELb1EE7_S_baseES9_ = comdat any

$_ZNSt10_Iter_baseIN9__gnu_cxx17__normal_iteratorIPN2cv3MatESt6vectorIS3_SaIS3_EEEELb1EE7_S_baseES8_ = comdat any

$_ZNSt10_Iter_baseIN9__gnu_cxx17__normal_iteratorIPKN2cv3MatESt6vectorIS3_SaIS3_EEEELb0EE7_S_baseES9_ = comdat any

$_ZSt14__copy_move_a2ILb0EPN2cv3MatES2_ET1_T0_S4_S3_ = comdat any

$_ZSt12__miter_baseIPN2cv3MatEENSt11_Miter_baseIT_E13iterator_typeES4_ = comdat any

$_ZSt13__copy_move_aILb0EPN2cv3MatES2_ET1_T0_S4_S3_ = comdat any

$_ZSt12__niter_baseIPN2cv3MatEENSt11_Niter_baseIT_E13iterator_typeES4_ = comdat any

$_ZNSt11__copy_moveILb0ELb0ESt26random_access_iterator_tagE8__copy_mIPN2cv3MatES5_EET0_T_S7_S6_ = comdat any

$_ZNSt10_Iter_baseIPN2cv3MatELb0EE7_S_baseES2_ = comdat any

$_ZSt18uninitialized_copyIPN2cv3MatES2_ET0_T_S4_S3_ = comdat any

$_ZNSt20__uninitialized_copyILb0EE13__uninit_copyIPN2cv3MatES4_EET0_T_S6_S5_ = comdat any

$_ZSt10_ConstructIN2cv3MatEJRS1_EEvPT_DpOT0_ = comdat any

$_ZSt7forwardIRN2cv3MatEEOT_RNSt16remove_referenceIS3_E4typeE = comdat any

$_ZNSt12_Vector_baseIhSaIhEEC2Ev = comdat any

$_ZNSt12_Vector_baseIhSaIhEE12_Vector_implC2Ev = comdat any

$_ZNSaIhEC2Ev = comdat any

$_ZN9__gnu_cxx13new_allocatorIhEC2Ev = comdat any

$_ZN9__gnu_cxx14__alloc_traitsISaIN2cv8KeyPointEEE17_S_select_on_copyERKS3_ = comdat any

$_ZNSt12_Vector_baseIN2cv8KeyPointESaIS1_EEC2EmRKS2_ = comdat any

$_ZNSt16allocator_traitsISaIN2cv8KeyPointEEE37select_on_container_copy_constructionERKS2_ = comdat any

$_ZNSaIN2cv8KeyPointEEC2ERKS1_ = comdat any

$_ZN9__gnu_cxx13new_allocatorIN2cv8KeyPointEEC2ERKS3_ = comdat any

$_ZNSt12_Vector_baseIN2cv8KeyPointESaIS1_EE12_Vector_implC2ERKS2_ = comdat any

$_ZNSt12_Vector_baseIN2cv8KeyPointESaIS1_EE17_M_create_storageEm = comdat any

$_ZN9__gnu_cxxeqIPKhSt6vectorIhSaIhEEEEbRKNS_17__normal_iteratorIT_T0_EESB_ = comdat any

$_ZNKSt6vectorIhSaIhEE5beginEv = comdat any

$_ZNKSt6vectorIhSaIhEE3endEv = comdat any

$_ZNK9__gnu_cxx17__normal_iteratorIPKhSt6vectorIhSaIhEEE4baseEv = comdat any

$_ZN9__gnu_cxx17__normal_iteratorIPKhSt6vectorIhSaIhEEEC2ERKS2_ = comdat any

$_ZNSt6vectorIN2cv8KeyPointESaIS1_EE15_M_erase_at_endEPS1_ = comdat any

$_ZNSt6vectorImSaImEE15_M_erase_at_endEPm = comdat any

$_ZNSt12_Vector_baseImSaImEEC2Ev = comdat any

$_ZNSt12_Vector_baseImSaImEE12_Vector_implC2Ev = comdat any

$_ZNSaImEC2Ev = comdat any

$_ZN9__gnu_cxx13new_allocatorImEC2Ev = comdat any

$_ZNSt16allocator_traitsISaImEE9constructImJRKmEEEvRS0_PT_DpOT0_ = comdat any

$_ZNSt6vectorImSaImEE19_M_emplace_back_auxIJRKmEEEvDpOT_ = comdat any

$_ZN9__gnu_cxx13new_allocatorImE9constructImJRKmEEEvPT_DpOT0_ = comdat any

$_ZNKSt6vectorImSaImEE12_M_check_lenEmPKc = comdat any

$_ZNSt12_Vector_baseImSaImEE11_M_allocateEm = comdat any

$_ZSt34__uninitialized_move_if_noexcept_aIPmS0_SaImEET0_T_S3_S2_RT1_ = comdat any

$_ZNKSt6vectorImSaImEE8max_sizeEv = comdat any

$_ZNSt16allocator_traitsISaImEE8max_sizeERKS0_ = comdat any

$_ZNKSt12_Vector_baseImSaImEE19_M_get_Tp_allocatorEv = comdat any

$_ZNK9__gnu_cxx13new_allocatorImE8max_sizeEv = comdat any

$_ZNSt16allocator_traitsISaImEE8allocateERS0_m = comdat any

$_ZN9__gnu_cxx13new_allocatorImE8allocateEmPKv = comdat any

$_ZSt22__uninitialized_copy_aISt13move_iteratorIPmES1_mET0_T_S4_S3_RSaIT1_E = comdat any

$_ZSt32__make_move_if_noexcept_iteratorIPmSt13move_iteratorIS0_EET0_T_ = comdat any

$_ZSt18uninitialized_copyISt13move_iteratorIPmES1_ET0_T_S4_S3_ = comdat any

$_ZNSt20__uninitialized_copyILb1EE13__uninit_copyISt13move_iteratorIPmES3_EET0_T_S6_S5_ = comdat any

$_ZSt4copyISt13move_iteratorIPmES1_ET0_T_S4_S3_ = comdat any

$_ZSt14__copy_move_a2ILb1EPmS0_ET1_T0_S2_S1_ = comdat any

$_ZSt12__miter_baseISt13move_iteratorIPmEENSt11_Miter_baseIT_E13iterator_typeES4_ = comdat any

$_ZSt13__copy_move_aILb1EPmS0_ET1_T0_S2_S1_ = comdat any

$_ZSt12__niter_baseIPmENSt11_Niter_baseIT_E13iterator_typeES2_ = comdat any

$_ZNSt11__copy_moveILb1ELb1ESt26random_access_iterator_tagE8__copy_mImEEPT_PKS3_S6_S4_ = comdat any

$_ZNSt10_Iter_baseIPmLb0EE7_S_baseES0_ = comdat any

$_ZNSt10_Iter_baseISt13move_iteratorIPmELb1EE7_S_baseES2_ = comdat any

$_ZNKSt13move_iteratorIPmE4baseEv = comdat any

$_ZNSt13move_iteratorIPmEC2ES0_ = comdat any

$_ZNKSt6vectorImSaImEE8capacityEv = comdat any

$_ZNSt6vectorImSaImEE20_M_allocate_and_copyIN9__gnu_cxx17__normal_iteratorIPKmS1_EEEEPmmT_S9_ = comdat any

$_ZNKSt6vectorImSaImEE5beginEv = comdat any

$_ZNKSt6vectorImSaImEE3endEv = comdat any

$_ZSt8_DestroyIN9__gnu_cxx17__normal_iteratorIPmSt6vectorImSaImEEEEmEvT_S7_RSaIT0_E = comdat any

$_ZSt4copyIN9__gnu_cxx17__normal_iteratorIPKmSt6vectorImSaImEEEENS1_IPmS6_EEET0_T_SB_SA_ = comdat any

$_ZSt4copyIPmS0_ET0_T_S2_S1_ = comdat any

$_ZSt22__uninitialized_copy_aIPmS0_mET0_T_S2_S1_RSaIT1_E = comdat any

$_ZSt22__uninitialized_copy_aIN9__gnu_cxx17__normal_iteratorIPKmSt6vectorImSaImEEEEPmmET0_T_SA_S9_RSaIT1_E = comdat any

$_ZSt18uninitialized_copyIN9__gnu_cxx17__normal_iteratorIPKmSt6vectorImSaImEEEEPmET0_T_SA_S9_ = comdat any

$_ZNSt20__uninitialized_copyILb1EE13__uninit_copyIN9__gnu_cxx17__normal_iteratorIPKmSt6vectorImSaImEEEEPmEET0_T_SC_SB_ = comdat any

$_ZSt4copyIN9__gnu_cxx17__normal_iteratorIPKmSt6vectorImSaImEEEEPmET0_T_SA_S9_ = comdat any

$_ZSt14__copy_move_a2ILb0EN9__gnu_cxx17__normal_iteratorIPKmSt6vectorImSaImEEEEPmET1_T0_SA_S9_ = comdat any

$_ZSt12__miter_baseIN9__gnu_cxx17__normal_iteratorIPKmSt6vectorImSaImEEEEENSt11_Miter_baseIT_E13iterator_typeES9_ = comdat any

$_ZSt13__copy_move_aILb0EPKmPmET1_T0_S4_S3_ = comdat any

$_ZSt12__niter_baseIN9__gnu_cxx17__normal_iteratorIPKmSt6vectorImSaImEEEEENSt11_Niter_baseIT_E13iterator_typeES9_ = comdat any

$_ZNSt11__copy_moveILb0ELb1ESt26random_access_iterator_tagE8__copy_mImEEPT_PKS3_S6_S4_ = comdat any

$_ZNSt10_Iter_baseIN9__gnu_cxx17__normal_iteratorIPKmSt6vectorImSaImEEEELb1EE7_S_baseES7_ = comdat any

$_ZNK9__gnu_cxx17__normal_iteratorIPKmSt6vectorImSaImEEE4baseEv = comdat any

$_ZNSt10_Iter_baseIN9__gnu_cxx17__normal_iteratorIPKmSt6vectorImSaImEEEELb0EE7_S_baseES7_ = comdat any

$_ZN9__gnu_cxx17__normal_iteratorIPKmSt6vectorImSaImEEEC2ERKS2_ = comdat any

$_ZSt8_DestroyIN9__gnu_cxx17__normal_iteratorIPmSt6vectorImSaImEEEEEvT_S7_ = comdat any

$_ZNSt12_Destroy_auxILb1EE9__destroyIN9__gnu_cxx17__normal_iteratorIPmSt6vectorImSaImEEEEEEvT_S9_ = comdat any

$_ZSt14__copy_move_a2ILb0EN9__gnu_cxx17__normal_iteratorIPKmSt6vectorImSaImEEEENS1_IPmS6_EEET1_T0_SB_SA_ = comdat any

$_ZSt12__niter_baseIN9__gnu_cxx17__normal_iteratorIPmSt6vectorImSaImEEEEENSt11_Niter_baseIT_E13iterator_typeES8_ = comdat any

$_ZN9__gnu_cxx17__normal_iteratorIPmSt6vectorImSaImEEEC2ERKS1_ = comdat any

$_ZNSt10_Iter_baseIN9__gnu_cxx17__normal_iteratorIPmSt6vectorImSaImEEEELb1EE7_S_baseES6_ = comdat any

$_ZNK9__gnu_cxx17__normal_iteratorIPmSt6vectorImSaImEEE4baseEv = comdat any

$_ZSt14__copy_move_a2ILb0EPmS0_ET1_T0_S2_S1_ = comdat any

$_ZSt12__miter_baseIPmENSt11_Miter_baseIT_E13iterator_typeES2_ = comdat any

$_ZSt13__copy_move_aILb0EPmS0_ET1_T0_S2_S1_ = comdat any

$_ZSt18uninitialized_copyIPmS0_ET0_T_S2_S1_ = comdat any

$_ZNSt20__uninitialized_copyILb1EE13__uninit_copyIPmS2_EET0_T_S4_S3_ = comdat any

$_ZN5boost6thread16make_thread_infoINS_3_bi6bind_tIvPFvRKN2cv11_InputArrayERKNS4_12_OutputArrayEENS2_5list2INS_17reference_wrapperIKNS4_3MatEEENSE_ISF_EEEEEEEENS_10shared_ptrINS_6detail16thread_data_baseEEEOT_ = comdat any

$_ZN5boost4bindIvPFvRKN2cv11_InputArrayERKNS1_12_OutputArrayEENS_17reference_wrapperIKNS1_3MatEEENSA_ISB_EEEENS_3_bi6bind_tIT_T0_NSF_9list_av_2IT1_T2_E4typeEEENS_4typeISH_EESI_SK_SL_ = comdat any

$_ZN5boost6thread12start_threadEv = comdat any

$_ZN5boost6detail8heap_newINS0_11thread_dataINS_3_bi6bind_tIvPFvRKN2cv11_InputArrayERKNS5_12_OutputArrayEENS3_5list2INS_17reference_wrapperIKNS5_3MatEEENSF_ISG_EEEEEEEESL_EEPT_OT0_ = comdat any

$_ZN5boost7forwardINS_3_bi6bind_tIvPFvRKN2cv11_InputArrayERKNS3_12_OutputArrayEENS1_5list2INS_17reference_wrapperIKNS3_3MatEEENSD_ISE_EEEEEEEEOT_RNS_11move_detail16remove_referenceISK_E4typeE = comdat any

$_ZN5boost10shared_ptrINS_6detail16thread_data_baseEEC2INS1_11thread_dataINS_3_bi6bind_tIvPFvRKN2cv11_InputArrayERKNS8_12_OutputArrayEENS6_5list2INS_17reference_wrapperIKNS8_3MatEEENSI_ISJ_EEEEEEEEEEPT_ = comdat any

$_ZN5boost6detail11thread_dataINS_3_bi6bind_tIvPFvRKN2cv11_InputArrayERKNS4_12_OutputArrayEENS2_5list2INS_17reference_wrapperIKNS4_3MatEEENSE_ISF_EEEEEEEC2EOSK_ = comdat any

$_ZN5boost6detail16thread_data_baseC2Ev = comdat any

$_ZN5boost6detail11thread_dataINS_3_bi6bind_tIvPFvRKN2cv11_InputArrayERKNS4_12_OutputArrayEENS2_5list2INS_17reference_wrapperIKNS4_3MatEEENSE_ISF_EEEEEEED0Ev = comdat any

$_ZN5boost6detail11thread_dataINS_3_bi6bind_tIvPFvRKN2cv11_InputArrayERKNS4_12_OutputArrayEENS2_5list2INS_17reference_wrapperIKNS4_3MatEEENSE_ISF_EEEEEEE3runEv = comdat any

$_ZN5boost6detail16thread_data_base25notify_all_at_thread_exitEPNS_18condition_variableEPNS_5mutexE = comdat any

$_ZN5boost23enable_shared_from_thisINS_6detail16thread_data_baseEEC2Ev = comdat any

$_ZN5boost10shared_ptrINS_6detail16thread_data_baseEEC2Ev = comdat any

$_ZN5boost5mutexC2Ev = comdat any

$_ZN5boost18condition_variableC2Ev = comdat any

$_ZNSt3mapIPKvN5boost6detail13tss_data_nodeESt4lessIS1_ESaISt4pairIKS1_S4_EEEC2Ev = comdat any

$_ZNSt6vectorISt4pairIPN5boost18condition_variableEPNS1_5mutexEESaIS6_EEC2Ev = comdat any

$_ZNSt6vectorIN5boost10shared_ptrINS0_6detail17shared_state_baseEEESaIS4_EEC2Ev = comdat any

$_ZN5boost8weak_ptrINS_6detail16thread_data_baseEEC2Ev = comdat any

$_ZN5boost6detail10weak_countC2Ev = comdat any

$_ZN5boost6detail12shared_countC2Ev = comdat any

$_ZNSt8_Rb_treeIPKvSt4pairIKS1_N5boost6detail13tss_data_nodeEESt10_Select1stIS7_ESt4lessIS1_ESaIS7_EEC2Ev = comdat any

$_ZNSt8_Rb_treeIPKvSt4pairIKS1_N5boost6detail13tss_data_nodeEESt10_Select1stIS7_ESt4lessIS1_ESaIS7_EE13_Rb_tree_implISB_Lb1EEC2Ev = comdat any

$_ZNSaISt13_Rb_tree_nodeISt4pairIKPKvN5boost6detail13tss_data_nodeEEEEC2Ev = comdat any

$_ZNSt8_Rb_treeIPKvSt4pairIKS1_N5boost6detail13tss_data_nodeEESt10_Select1stIS7_ESt4lessIS1_ESaIS7_EE13_Rb_tree_implISB_Lb1EE13_M_initializeEv = comdat any

$_ZN9__gnu_cxx13new_allocatorISt13_Rb_tree_nodeISt4pairIKPKvN5boost6detail13tss_data_nodeEEEEC2Ev = comdat any

$_ZNSt12_Vector_baseISt4pairIPN5boost18condition_variableEPNS1_5mutexEESaIS6_EEC2Ev = comdat any

$_ZNSt12_Vector_baseISt4pairIPN5boost18condition_variableEPNS1_5mutexEESaIS6_EE12_Vector_implC2Ev = comdat any

$_ZNSaISt4pairIPN5boost18condition_variableEPNS0_5mutexEEEC2Ev = comdat any

$_ZN9__gnu_cxx13new_allocatorISt4pairIPN5boost18condition_variableEPNS2_5mutexEEEC2Ev = comdat any

$_ZNSt12_Vector_baseIN5boost10shared_ptrINS0_6detail17shared_state_baseEEESaIS4_EEC2Ev = comdat any

$_ZNSt12_Vector_baseIN5boost10shared_ptrINS0_6detail17shared_state_baseEEESaIS4_EE12_Vector_implC2Ev = comdat any

$_ZNSaIN5boost10shared_ptrINS_6detail17shared_state_baseEEEEC2Ev = comdat any

$_ZN9__gnu_cxx13new_allocatorIN5boost10shared_ptrINS1_6detail17shared_state_baseEEEEC2Ev = comdat any

$_ZN5boost3_bi6bind_tIvPFvRKN2cv11_InputArrayERKNS2_12_OutputArrayEENS0_5list2INS_17reference_wrapperIKNS2_3MatEEENSC_ISD_EEEEEclEv = comdat any

$_ZN5boost3_bi5list0C2Ev = comdat any

$_ZN5boost3_bi5list2INS_17reference_wrapperIKN2cv3MatEEENS2_IS4_EEEclIPFvRKNS3_11_InputArrayERKNS3_12_OutputArrayEENS0_5list0EEEvNS0_4typeIvEERT_RT0_i = comdat any

$_ZN5boost3_bi9unwrapperIPFvRKN2cv11_InputArrayERKNS2_12_OutputArrayEEE6unwrapERSA_l = comdat any

$_ZNK5boost3_bi5list0ixIKN2cv3MatEEERT_RKNS_17reference_wrapperIS6_EE = comdat any

$_ZNK5boost3_bi5list0ixIN2cv3MatEEERT_RKNS_17reference_wrapperIS5_EE = comdat any

$_ZNSt6vectorISt4pairIPN5boost18condition_variableEPNS1_5mutexEESaIS6_EE9push_backEOS6_ = comdat any

$_ZNSt4pairIPN5boost18condition_variableEPNS0_5mutexEEC2IRS2_RS4_vEEOT_OT0_ = comdat any

$_ZNSt6vectorISt4pairIPN5boost18condition_variableEPNS1_5mutexEESaIS6_EE12emplace_backIJS6_EEEvDpOT_ = comdat any

$_ZSt4moveIRSt4pairIPN5boost18condition_variableEPNS1_5mutexEEEONSt16remove_referenceIT_E4typeEOS9_ = comdat any

$_ZNSt16allocator_traitsISaISt4pairIPN5boost18condition_variableEPNS1_5mutexEEEE9constructIS6_JS6_EEEvRS7_PT_DpOT0_ = comdat any

$_ZSt7forwardISt4pairIPN5boost18condition_variableEPNS1_5mutexEEEOT_RNSt16remove_referenceIS7_E4typeE = comdat any

$_ZNSt6vectorISt4pairIPN5boost18condition_variableEPNS1_5mutexEESaIS6_EE19_M_emplace_back_auxIJS6_EEEvDpOT_ = comdat any

$_ZN9__gnu_cxx13new_allocatorISt4pairIPN5boost18condition_variableEPNS2_5mutexEEE9constructIS7_JS7_EEEvPT_DpOT0_ = comdat any

$_ZNKSt6vectorISt4pairIPN5boost18condition_variableEPNS1_5mutexEESaIS6_EE12_M_check_lenEmPKc = comdat any

$_ZNSt12_Vector_baseISt4pairIPN5boost18condition_variableEPNS1_5mutexEESaIS6_EE11_M_allocateEm = comdat any

$_ZNKSt6vectorISt4pairIPN5boost18condition_variableEPNS1_5mutexEESaIS6_EE4sizeEv = comdat any

$_ZSt34__uninitialized_move_if_noexcept_aIPSt4pairIPN5boost18condition_variableEPNS1_5mutexEES7_SaIS6_EET0_T_SA_S9_RT1_ = comdat any

$_ZNSt12_Vector_baseISt4pairIPN5boost18condition_variableEPNS1_5mutexEESaIS6_EE19_M_get_Tp_allocatorEv = comdat any

$_ZSt8_DestroyIPSt4pairIPN5boost18condition_variableEPNS1_5mutexEES6_EvT_S8_RSaIT0_E = comdat any

$_ZNSt12_Vector_baseISt4pairIPN5boost18condition_variableEPNS1_5mutexEESaIS6_EE13_M_deallocateEPS6_m = comdat any

$_ZNKSt6vectorISt4pairIPN5boost18condition_variableEPNS1_5mutexEESaIS6_EE8max_sizeEv = comdat any

$_ZNSt16allocator_traitsISaISt4pairIPN5boost18condition_variableEPNS1_5mutexEEEE8max_sizeERKS7_ = comdat any

$_ZNKSt12_Vector_baseISt4pairIPN5boost18condition_variableEPNS1_5mutexEESaIS6_EE19_M_get_Tp_allocatorEv = comdat any

$_ZNK9__gnu_cxx13new_allocatorISt4pairIPN5boost18condition_variableEPNS2_5mutexEEE8max_sizeEv = comdat any

$_ZNSt16allocator_traitsISaISt4pairIPN5boost18condition_variableEPNS1_5mutexEEEE8allocateERS7_m = comdat any

$_ZN9__gnu_cxx13new_allocatorISt4pairIPN5boost18condition_variableEPNS2_5mutexEEE8allocateEmPKv = comdat any

$_ZSt22__uninitialized_copy_aISt13move_iteratorIPSt4pairIPN5boost18condition_variableEPNS2_5mutexEEES8_S7_ET0_T_SB_SA_RSaIT1_E = comdat any

$_ZSt32__make_move_if_noexcept_iteratorIPSt4pairIPN5boost18condition_variableEPNS1_5mutexEESt13move_iteratorIS7_EET0_T_ = comdat any

$_ZSt18uninitialized_copyISt13move_iteratorIPSt4pairIPN5boost18condition_variableEPNS2_5mutexEEES8_ET0_T_SB_SA_ = comdat any

$_ZNSt20__uninitialized_copyILb0EE13__uninit_copyISt13move_iteratorIPSt4pairIPN5boost18condition_variableEPNS4_5mutexEEESA_EET0_T_SD_SC_ = comdat any

$_ZStneIPSt4pairIPN5boost18condition_variableEPNS1_5mutexEEEbRKSt13move_iteratorIT_ESC_ = comdat any

$_ZSt10_ConstructISt4pairIPN5boost18condition_variableEPNS1_5mutexEEJS6_EEvPT_DpOT0_ = comdat any

$_ZSt11__addressofISt4pairIPN5boost18condition_variableEPNS1_5mutexEEEPT_RS7_ = comdat any

$_ZNKSt13move_iteratorIPSt4pairIPN5boost18condition_variableEPNS1_5mutexEEEdeEv = comdat any

$_ZNSt13move_iteratorIPSt4pairIPN5boost18condition_variableEPNS1_5mutexEEEppEv = comdat any

$_ZSteqIPSt4pairIPN5boost18condition_variableEPNS1_5mutexEEEbRKSt13move_iteratorIT_ESC_ = comdat any

$_ZNKSt13move_iteratorIPSt4pairIPN5boost18condition_variableEPNS1_5mutexEEE4baseEv = comdat any

$_ZNSt13move_iteratorIPSt4pairIPN5boost18condition_variableEPNS1_5mutexEEEC2ES7_ = comdat any

$_ZSt8_DestroyIPSt4pairIPN5boost18condition_variableEPNS1_5mutexEEEvT_S8_ = comdat any

$_ZNSt12_Destroy_auxILb1EE9__destroyIPSt4pairIPN5boost18condition_variableEPNS3_5mutexEEEEvT_SA_ = comdat any

$_ZNSt16allocator_traitsISaISt4pairIPN5boost18condition_variableEPNS1_5mutexEEEE10deallocateERS7_PS6_m = comdat any

$_ZN9__gnu_cxx13new_allocatorISt4pairIPN5boost18condition_variableEPNS2_5mutexEEE10deallocateEPS7_m = comdat any

$_ZSt7forwardIRPN5boost18condition_variableEEOT_RNSt16remove_referenceIS4_E4typeE = comdat any

$_ZSt7forwardIRPN5boost5mutexEEOT_RNSt16remove_referenceIS4_E4typeE = comdat any

$_ZN5boost6detail20sp_pointer_constructINS0_16thread_data_baseENS0_11thread_dataINS_3_bi6bind_tIvPFvRKN2cv11_InputArrayERKNS6_12_OutputArrayEENS4_5list2INS_17reference_wrapperIKNS6_3MatEEENSG_ISH_EEEEEEEEEEvPNS_10shared_ptrIT_EEPT0_RNS0_12shared_countE = comdat any

$_ZN5boost6detail12shared_countC2INS0_11thread_dataINS_3_bi6bind_tIvPFvRKN2cv11_InputArrayERKNS6_12_OutputArrayEENS4_5list2INS_17reference_wrapperIKNS6_3MatEEENSG_ISH_EEEEEEEEEEPT_ = comdat any

$_ZN5boost6detail12shared_count4swapERS1_ = comdat any

$_ZN5boost6detail26sp_enable_shared_from_thisINS0_16thread_data_baseENS0_11thread_dataINS_3_bi6bind_tIvPFvRKN2cv11_InputArrayERKNS6_12_OutputArrayEENS4_5list2INS_17reference_wrapperIKNS6_3MatEEENSG_ISH_EEEEEEEES2_EEvPKNS_10shared_ptrIT_EEPKT0_PKNS_23enable_shared_from_thisIT1_EE = comdat any

$_ZN5boost6detail17sp_counted_impl_pINS0_11thread_dataINS_3_bi6bind_tIvPFvRKN2cv11_InputArrayERKNS5_12_OutputArrayEENS3_5list2INS_17reference_wrapperIKNS5_3MatEEENSF_ISG_EEEEEEEEEC2EPSM_ = comdat any

$_ZN5boost14checked_deleteINS_6detail11thread_dataINS_3_bi6bind_tIvPFvRKN2cv11_InputArrayERKNS5_12_OutputArrayEENS3_5list2INS_17reference_wrapperIKNS5_3MatEEENSF_ISG_EEEEEEEEEEvPT_ = comdat any

$_ZN5boost6detail15sp_counted_baseC2Ev = comdat any

$_ZN5boost6detail17sp_counted_impl_pINS0_11thread_dataINS_3_bi6bind_tIvPFvRKN2cv11_InputArrayERKNS5_12_OutputArrayEENS3_5list2INS_17reference_wrapperIKNS5_3MatEEENSF_ISG_EEEEEEEEED0Ev = comdat any

$_ZN5boost6detail17sp_counted_impl_pINS0_11thread_dataINS_3_bi6bind_tIvPFvRKN2cv11_InputArrayERKNS5_12_OutputArrayEENS3_5list2INS_17reference_wrapperIKNS5_3MatEEENSF_ISG_EEEEEEEEE7disposeEv = comdat any

$_ZN5boost6detail15sp_counted_base7destroyEv = comdat any

$_ZN5boost6detail17sp_counted_impl_pINS0_11thread_dataINS_3_bi6bind_tIvPFvRKN2cv11_InputArrayERKNS5_12_OutputArrayEENS3_5list2INS_17reference_wrapperIKNS5_3MatEEENSF_ISG_EEEEEEEEE11get_deleterERKSt9type_info = comdat any

$_ZN5boost6detail17sp_counted_impl_pINS0_11thread_dataINS_3_bi6bind_tIvPFvRKN2cv11_InputArrayERKNS5_12_OutputArrayEENS3_5list2INS_17reference_wrapperIKNS5_3MatEEENSF_ISG_EEEEEEEEE19get_untyped_deleterEv = comdat any

$_ZN5boost6detail15sp_counted_baseD0Ev = comdat any

$_ZNK5boost23enable_shared_from_thisINS_6detail16thread_data_baseEE22_internal_accept_ownerIS2_NS1_11thread_dataINS_3_bi6bind_tIvPFvRKN2cv11_InputArrayERKNS8_12_OutputArrayEENS6_5list2INS_17reference_wrapperIKNS8_3MatEEENSI_ISJ_EEEEEEEEEEvPKNS_10shared_ptrIT_EEPT0_ = comdat any

$_ZNK5boost8weak_ptrINS_6detail16thread_data_baseEE7expiredEv = comdat any

$_ZN5boost10shared_ptrINS_6detail16thread_data_baseEEC2IS2_EERKNS0_IT_EEPS2_ = comdat any

$_ZN5boost8weak_ptrINS_6detail16thread_data_baseEEaSIS2_EERS3_RKNS_10shared_ptrIT_EE = comdat any

$_ZNK5boost6detail10weak_count9use_countEv = comdat any

$_ZNK5boost6detail15sp_counted_base9use_countEv = comdat any

$_ZN5boost6detail12shared_countC2ERKS1_ = comdat any

$_ZN5boost6detail15sp_counted_base12add_ref_copyEv = comdat any

$_ZN5boost6detail16atomic_incrementEPU7_Atomici = comdat any

$_ZN5boost6detail21sp_assert_convertibleINS0_16thread_data_baseES2_EEvv = comdat any

$_ZN5boost6detail10weak_countaSERKNS0_12shared_countE = comdat any

$_ZN5boost6detail15sp_counted_base12weak_add_refEv = comdat any

$_ZN5boost3_bi5list2INS_17reference_wrapperIKN2cv3MatEEENS2_IS4_EEEC2ES6_S7_ = comdat any

$_ZN5boost3_bi6bind_tIvPFvRKN2cv11_InputArrayERKNS2_12_OutputArrayEENS0_5list2INS_17reference_wrapperIKNS2_3MatEEENSC_ISD_EEEEEC2ESA_RKSH_ = comdat any

$_ZN5boost3_bi8storage2INS_17reference_wrapperIKN2cv3MatEEENS2_IS4_EEEC2ES6_S7_ = comdat any

$_ZN5boost3_bi8storage1INS_17reference_wrapperIKN2cv3MatEEEEC2ES6_ = comdat any

$_ZN5boost21thread_resource_errorC2Ev = comdat any

$_ZN5boost6thread16make_thread_infoINS_3_bi6bind_tIvPFiRKN2cv11_InputArrayERKNS4_12_OutputArrayENS4_5Size_IiEEibiibENS2_5list8INS_17reference_wrapperIKNS4_3MatEEENSG_ISt6vectorISH_SaISH_EEEENSG_ISC_EENSG_IiEENS2_5valueIbEENSQ_INS4_11BorderTypesEEEST_SR_EEEEEENS_10shared_ptrINS_6detail16thread_data_baseEEEOT_ = comdat any

$_ZN5boost4bindIvPFiRKN2cv11_InputArrayERKNS1_12_OutputArrayENS1_5Size_IiEEibiibENS_17reference_wrapperIKNS1_3MatEEENSC_ISt6vectorISD_SaISD_EEEENSC_IS9_EENSC_IiEEbNS1_11BorderTypesESM_bEENS_3_bi6bind_tIT_T0_NSN_9list_av_8IT1_T2_T3_T4_T5_T6_T7_T8_E4typeEEENS_4typeISP_EESQ_SS_ST_SU_SV_SW_SX_SY_SZ_ = comdat any

$_ZN5boost6detail8heap_newINS0_11thread_dataINS_3_bi6bind_tIvPFiRKN2cv11_InputArrayERKNS5_12_OutputArrayENS5_5Size_IiEEibiibENS3_5list8INS_17reference_wrapperIKNS5_3MatEEENSH_ISt6vectorISI_SaISI_EEEENSH_ISD_EENSH_IiEENS3_5valueIbEENSR_INS5_11BorderTypesEEESU_SS_EEEEEESW_EEPT_OT0_ = comdat any

$_ZN5boost7forwardINS_3_bi6bind_tIvPFiRKN2cv11_InputArrayERKNS3_12_OutputArrayENS3_5Size_IiEEibiibENS1_5list8INS_17reference_wrapperIKNS3_3MatEEENSF_ISt6vectorISG_SaISG_EEEENSF_ISB_EENSF_IiEENS1_5valueIbEENSP_INS3_11BorderTypesEEESS_SQ_EEEEEEOT_RNS_11move_detail16remove_referenceISV_E4typeE = comdat any

$_ZN5boost10shared_ptrINS_6detail16thread_data_baseEEC2INS1_11thread_dataINS_3_bi6bind_tIvPFiRKN2cv11_InputArrayERKNS8_12_OutputArrayENS8_5Size_IiEEibiibENS6_5list8INS_17reference_wrapperIKNS8_3MatEEENSK_ISt6vectorISL_SaISL_EEEENSK_ISG_EENSK_IiEENS6_5valueIbEENSU_INS8_11BorderTypesEEESX_SV_EEEEEEEEPT_ = comdat any

$_ZN5boost6detail11thread_dataINS_3_bi6bind_tIvPFiRKN2cv11_InputArrayERKNS4_12_OutputArrayENS4_5Size_IiEEibiibENS2_5list8INS_17reference_wrapperIKNS4_3MatEEENSG_ISt6vectorISH_SaISH_EEEENSG_ISC_EENSG_IiEENS2_5valueIbEENSQ_INS4_11BorderTypesEEEST_SR_EEEEEC2EOSV_ = comdat any

$_ZN5boost6detail11thread_dataINS_3_bi6bind_tIvPFiRKN2cv11_InputArrayERKNS4_12_OutputArrayENS4_5Size_IiEEibiibENS2_5list8INS_17reference_wrapperIKNS4_3MatEEENSG_ISt6vectorISH_SaISH_EEEENSG_ISC_EENSG_IiEENS2_5valueIbEENSQ_INS4_11BorderTypesEEEST_SR_EEEEED0Ev = comdat any

$_ZN5boost6detail11thread_dataINS_3_bi6bind_tIvPFiRKN2cv11_InputArrayERKNS4_12_OutputArrayENS4_5Size_IiEEibiibENS2_5list8INS_17reference_wrapperIKNS4_3MatEEENSG_ISt6vectorISH_SaISH_EEEENSG_ISC_EENSG_IiEENS2_5valueIbEENSQ_INS4_11BorderTypesEEEST_SR_EEEEE3runEv = comdat any

$_ZN5boost3_bi6bind_tIvPFiRKN2cv11_InputArrayERKNS2_12_OutputArrayENS2_5Size_IiEEibiibENS0_5list8INS_17reference_wrapperIKNS2_3MatEEENSE_ISt6vectorISF_SaISF_EEEENSE_ISA_EENSE_IiEENS0_5valueIbEENSO_INS2_11BorderTypesEEESR_SP_EEEclEv = comdat any

$_ZN5boost3_bi5list8INS_17reference_wrapperIKN2cv3MatEEENS2_ISt6vectorIS4_SaIS4_EEEENS2_INS3_5Size_IiEEEENS2_IiEENS0_5valueIbEENSF_INS3_11BorderTypesEEESI_SG_EclIPFiRKNS3_11_InputArrayERKNS3_12_OutputArrayESC_ibiibENS0_5list0EEEvNS0_4typeIvEERT_RT0_i = comdat any

$_ZN5boost3_bi9unwrapperIPFiRKN2cv11_InputArrayERKNS2_12_OutputArrayENS2_5Size_IiEEibiibEE6unwrapERSC_l = comdat any

$_ZNK5boost3_bi5list0ixISt6vectorIN2cv3MatESaIS5_EEEERT_RKNS_17reference_wrapperIS8_EE = comdat any

$_ZNK5boost3_bi5list0ixIN2cv5Size_IiEEEERT_RKNS_17reference_wrapperIS6_EE = comdat any

$_ZNK5boost3_bi5list0ixIiEERT_RKNS_17reference_wrapperIS3_EE = comdat any

$_ZNK5boost3_bi5list0ixIbEERT_RNS0_5valueIS3_EE = comdat any

$_ZNK5boost3_bi5list0ixIN2cv11BorderTypesEEERT_RNS0_5valueIS5_EE = comdat any

$_ZN5boost3_bi5valueIbE3getEv = comdat any

$_ZN5boost3_bi5valueIN2cv11BorderTypesEE3getEv = comdat any

$_ZN5boost6detail20sp_pointer_constructINS0_16thread_data_baseENS0_11thread_dataINS_3_bi6bind_tIvPFiRKN2cv11_InputArrayERKNS6_12_OutputArrayENS6_5Size_IiEEibiibENS4_5list8INS_17reference_wrapperIKNS6_3MatEEENSI_ISt6vectorISJ_SaISJ_EEEENSI_ISE_EENSI_IiEENS4_5valueIbEENSS_INS6_11BorderTypesEEESV_ST_EEEEEEEEvPNS_10shared_ptrIT_EEPT0_RNS0_12shared_countE = comdat any

$_ZN5boost6detail12shared_countC2INS0_11thread_dataINS_3_bi6bind_tIvPFiRKN2cv11_InputArrayERKNS6_12_OutputArrayENS6_5Size_IiEEibiibENS4_5list8INS_17reference_wrapperIKNS6_3MatEEENSI_ISt6vectorISJ_SaISJ_EEEENSI_ISE_EENSI_IiEENS4_5valueIbEENSS_INS6_11BorderTypesEEESV_ST_EEEEEEEEPT_ = comdat any

$_ZN5boost6detail26sp_enable_shared_from_thisINS0_16thread_data_baseENS0_11thread_dataINS_3_bi6bind_tIvPFiRKN2cv11_InputArrayERKNS6_12_OutputArrayENS6_5Size_IiEEibiibENS4_5list8INS_17reference_wrapperIKNS6_3MatEEENSI_ISt6vectorISJ_SaISJ_EEEENSI_ISE_EENSI_IiEENS4_5valueIbEENSS_INS6_11BorderTypesEEESV_ST_EEEEEES2_EEvPKNS_10shared_ptrIT_EEPKT0_PKNS_23enable_shared_from_thisIT1_EE = comdat any

$_ZN5boost6detail17sp_counted_impl_pINS0_11thread_dataINS_3_bi6bind_tIvPFiRKN2cv11_InputArrayERKNS5_12_OutputArrayENS5_5Size_IiEEibiibENS3_5list8INS_17reference_wrapperIKNS5_3MatEEENSH_ISt6vectorISI_SaISI_EEEENSH_ISD_EENSH_IiEENS3_5valueIbEENSR_INS5_11BorderTypesEEESU_SS_EEEEEEEC2EPSX_ = comdat any

$_ZN5boost14checked_deleteINS_6detail11thread_dataINS_3_bi6bind_tIvPFiRKN2cv11_InputArrayERKNS5_12_OutputArrayENS5_5Size_IiEEibiibENS3_5list8INS_17reference_wrapperIKNS5_3MatEEENSH_ISt6vectorISI_SaISI_EEEENSH_ISD_EENSH_IiEENS3_5valueIbEENSR_INS5_11BorderTypesEEESU_SS_EEEEEEEEvPT_ = comdat any

$_ZN5boost6detail15sp_counted_baseD2Ev = comdat any

$_ZN5boost6detail17sp_counted_impl_pINS0_11thread_dataINS_3_bi6bind_tIvPFiRKN2cv11_InputArrayERKNS5_12_OutputArrayENS5_5Size_IiEEibiibENS3_5list8INS_17reference_wrapperIKNS5_3MatEEENSH_ISt6vectorISI_SaISI_EEEENSH_ISD_EENSH_IiEENS3_5valueIbEENSR_INS5_11BorderTypesEEESU_SS_EEEEEEED0Ev = comdat any

$_ZN5boost6detail17sp_counted_impl_pINS0_11thread_dataINS_3_bi6bind_tIvPFiRKN2cv11_InputArrayERKNS5_12_OutputArrayENS5_5Size_IiEEibiibENS3_5list8INS_17reference_wrapperIKNS5_3MatEEENSH_ISt6vectorISI_SaISI_EEEENSH_ISD_EENSH_IiEENS3_5valueIbEENSR_INS5_11BorderTypesEEESU_SS_EEEEEEE7disposeEv = comdat any

$_ZN5boost6detail17sp_counted_impl_pINS0_11thread_dataINS_3_bi6bind_tIvPFiRKN2cv11_InputArrayERKNS5_12_OutputArrayENS5_5Size_IiEEibiibENS3_5list8INS_17reference_wrapperIKNS5_3MatEEENSH_ISt6vectorISI_SaISI_EEEENSH_ISD_EENSH_IiEENS3_5valueIbEENSR_INS5_11BorderTypesEEESU_SS_EEEEEEE11get_deleterERKSt9type_info = comdat any

$_ZN5boost6detail17sp_counted_impl_pINS0_11thread_dataINS_3_bi6bind_tIvPFiRKN2cv11_InputArrayERKNS5_12_OutputArrayENS5_5Size_IiEEibiibENS3_5list8INS_17reference_wrapperIKNS5_3MatEEENSH_ISt6vectorISI_SaISI_EEEENSH_ISD_EENSH_IiEENS3_5valueIbEENSR_INS5_11BorderTypesEEESU_SS_EEEEEEE19get_untyped_deleterEv = comdat any

$_ZNK5boost23enable_shared_from_thisINS_6detail16thread_data_baseEE22_internal_accept_ownerIS2_NS1_11thread_dataINS_3_bi6bind_tIvPFiRKN2cv11_InputArrayERKNS8_12_OutputArrayENS8_5Size_IiEEibiibENS6_5list8INS_17reference_wrapperIKNS8_3MatEEENSK_ISt6vectorISL_SaISL_EEEENSK_ISG_EENSK_IiEENS6_5valueIbEENSU_INS8_11BorderTypesEEESX_SV_EEEEEEEEvPKNS_10shared_ptrIT_EEPT0_ = comdat any

$_ZN5boost3_bi5valueIbEC2ERKb = comdat any

$_ZN5boost3_bi5valueIN2cv11BorderTypesEEC2ERKS3_ = comdat any

$_ZN5boost3_bi5list8INS_17reference_wrapperIKN2cv3MatEEENS2_ISt6vectorIS4_SaIS4_EEEENS2_INS3_5Size_IiEEEENS2_IiEENS0_5valueIbEENSF_INS3_11BorderTypesEEESI_SG_EC2ES6_SA_SD_SE_SG_SI_SI_SG_ = comdat any

$_ZN5boost3_bi6bind_tIvPFiRKN2cv11_InputArrayERKNS2_12_OutputArrayENS2_5Size_IiEEibiibENS0_5list8INS_17reference_wrapperIKNS2_3MatEEENSE_ISt6vectorISF_SaISF_EEEENSE_ISA_EENSE_IiEENS0_5valueIbEENSO_INS2_11BorderTypesEEESR_SP_EEEC2ESC_RKSS_ = comdat any

$_ZN5boost3_bi8storage8INS_17reference_wrapperIKN2cv3MatEEENS2_ISt6vectorIS4_SaIS4_EEEENS2_INS3_5Size_IiEEEENS2_IiEENS0_5valueIbEENSF_INS3_11BorderTypesEEESI_SG_EC2ES6_SA_SD_SE_SG_SI_SI_SG_ = comdat any

$_ZN5boost3_bi8storage7INS_17reference_wrapperIKN2cv3MatEEENS2_ISt6vectorIS4_SaIS4_EEEENS2_INS3_5Size_IiEEEENS2_IiEENS0_5valueIbEENSF_INS3_11BorderTypesEEESI_EC2ES6_SA_SD_SE_SG_SI_SI_ = comdat any

$_ZN5boost3_bi8storage6INS_17reference_wrapperIKN2cv3MatEEENS2_ISt6vectorIS4_SaIS4_EEEENS2_INS3_5Size_IiEEEENS2_IiEENS0_5valueIbEENSF_INS3_11BorderTypesEEEEC2ES6_SA_SD_SE_SG_SI_ = comdat any

$_ZN5boost3_bi8storage5INS_17reference_wrapperIKN2cv3MatEEENS2_ISt6vectorIS4_SaIS4_EEEENS2_INS3_5Size_IiEEEENS2_IiEENS0_5valueIbEEEC2ES6_SA_SD_SE_SG_ = comdat any

$_ZN5boost3_bi8storage4INS_17reference_wrapperIKN2cv3MatEEENS2_ISt6vectorIS4_SaIS4_EEEENS2_INS3_5Size_IiEEEENS2_IiEEEC2ES6_SA_SD_SE_ = comdat any

$_ZN5boost3_bi8storage3INS_17reference_wrapperIKN2cv3MatEEENS2_ISt6vectorIS4_SaIS4_EEEENS2_INS3_5Size_IiEEEEEC2ES6_SA_SD_ = comdat any

$_ZN5boost3_bi8storage2INS_17reference_wrapperIKN2cv3MatEEENS2_ISt6vectorIS4_SaIS4_EEEEEC2ES6_SA_ = comdat any

$_ZN5boost6thread16make_thread_infoINS_3_bi6bind_tIvNS_4_mfi3mf7IvN7ov_core8TrackKLTERKSt6vectorIN2cv3MatESaISA_EESE_RS8_INS9_8KeyPointESaISF_EESI_mmRS8_IhSaIhEEEENS2_5list8INS2_5valueIPS7_EENS_17reference_wrapperISD_EESS_NSR_ISH_EEST_NSO_ImEESU_NSR_ISK_EEEEEEEENS_10shared_ptrINS_6detail16thread_data_baseEEEOT_ = comdat any

$_ZN5boost4bindIvvN7ov_core8TrackKLTERKSt6vectorIN2cv3MatESaIS5_EES9_RS3_INS4_8KeyPointESaISA_EESD_mmRS3_IhSaIhEEPS2_NS_17reference_wrapperIS8_EESJ_NSI_ISC_EESK_mmNSI_ISF_EEEENS_3_bi6bind_tIT_NS_4_mfi3mf7IT0_T1_T2_T3_T4_T5_T6_T7_T8_EENSM_9list_av_8IT9_T10_T11_T12_T13_T14_T15_T16_E4typeEEENS_4typeISO_EEMSS_FSR_ST_SU_SV_SW_SX_SY_SZ_ES12_S13_S14_S15_S16_S17_S18_S19_ = comdat any

$_ZN5boost6detail8heap_newINS0_11thread_dataINS_3_bi6bind_tIvNS_4_mfi3mf7IvN7ov_core8TrackKLTERKSt6vectorIN2cv3MatESaISB_EESF_RS9_INSA_8KeyPointESaISG_EESJ_mmRS9_IhSaIhEEEENS3_5list8INS3_5valueIPS8_EENS_17reference_wrapperISE_EEST_NSS_ISI_EESU_NSP_ImEESV_NSS_ISL_EEEEEEEESY_EEPT_OT0_ = comdat any

$_ZN5boost7forwardINS_3_bi6bind_tIvNS_4_mfi3mf7IvN7ov_core8TrackKLTERKSt6vectorIN2cv3MatESaIS9_EESD_RS7_INS8_8KeyPointESaISE_EESH_mmRS7_IhSaIhEEEENS1_5list8INS1_5valueIPS6_EENS_17reference_wrapperISC_EESR_NSQ_ISG_EESS_NSN_ImEEST_NSQ_ISJ_EEEEEEEEOT_RNS_11move_detail16remove_referenceISX_E4typeE = comdat any

$_ZN5boost10shared_ptrINS_6detail16thread_data_baseEEC2INS1_11thread_dataINS_3_bi6bind_tIvNS_4_mfi3mf7IvN7ov_core8TrackKLTERKSt6vectorIN2cv3MatESaISE_EESI_RSC_INSD_8KeyPointESaISJ_EESM_mmRSC_IhSaIhEEEENS6_5list8INS6_5valueIPSB_EENS_17reference_wrapperISH_EESW_NSV_ISL_EESX_NSS_ImEESY_NSV_ISO_EEEEEEEEEEPT_ = comdat any

$_ZN5boost6detail11thread_dataINS_3_bi6bind_tIvNS_4_mfi3mf7IvN7ov_core8TrackKLTERKSt6vectorIN2cv3MatESaISA_EESE_RS8_INS9_8KeyPointESaISF_EESI_mmRS8_IhSaIhEEEENS2_5list8INS2_5valueIPS7_EENS_17reference_wrapperISD_EESS_NSR_ISH_EEST_NSO_ImEESU_NSR_ISK_EEEEEEEC2EOSX_ = comdat any

$_ZN5boost6detail11thread_dataINS_3_bi6bind_tIvNS_4_mfi3mf7IvN7ov_core8TrackKLTERKSt6vectorIN2cv3MatESaISA_EESE_RS8_INS9_8KeyPointESaISF_EESI_mmRS8_IhSaIhEEEENS2_5list8INS2_5valueIPS7_EENS_17reference_wrapperISD_EESS_NSR_ISH_EEST_NSO_ImEESU_NSR_ISK_EEEEEEED0Ev = comdat any

$_ZN5boost6detail11thread_dataINS_3_bi6bind_tIvNS_4_mfi3mf7IvN7ov_core8TrackKLTERKSt6vectorIN2cv3MatESaISA_EESE_RS8_INS9_8KeyPointESaISF_EESI_mmRS8_IhSaIhEEEENS2_5list8INS2_5valueIPS7_EENS_17reference_wrapperISD_EESS_NSR_ISH_EEST_NSO_ImEESU_NSR_ISK_EEEEEEE3runEv = comdat any

$_ZN5boost3_bi6bind_tIvNS_4_mfi3mf7IvN7ov_core8TrackKLTERKSt6vectorIN2cv3MatESaIS8_EESC_RS6_INS7_8KeyPointESaISD_EESG_mmRS6_IhSaIhEEEENS0_5list8INS0_5valueIPS5_EENS_17reference_wrapperISB_EESQ_NSP_ISF_EESR_NSM_ImEESS_NSP_ISI_EEEEEclEv = comdat any

$_ZN5boost3_bi5list8INS0_5valueIPN7ov_core8TrackKLTEEENS_17reference_wrapperIKSt6vectorIN2cv3MatESaISA_EEEESE_NS7_IS8_INS9_8KeyPointESaISF_EEEESI_NS2_ImEESJ_NS7_IS8_IhSaIhEEEEEclINS_4_mfi3mf7IvS4_RSD_SR_RSH_SS_mmRSL_EENS0_5list0EEEvNS0_4typeIvEERT_RT0_i = comdat any

$_ZN5boost3_bi9unwrapperINS_4_mfi3mf7IvN7ov_core8TrackKLTERKSt6vectorIN2cv3MatESaIS8_EESC_RS6_INS7_8KeyPointESaISD_EESG_mmRS6_IhSaIhEEEEE6unwrapERSK_l = comdat any

$_ZNK5boost4_mfi3mf7IvN7ov_core8TrackKLTERKSt6vectorIN2cv3MatESaIS6_EESA_RS4_INS5_8KeyPointESaISB_EESE_mmRS4_IhSaIhEEEclEPS3_SA_SA_SE_SE_mmSH_ = comdat any

$_ZNK5boost3_bi5list0ixIPN7ov_core8TrackKLTEEERT_RNS0_5valueIS6_EE = comdat any

$_ZNK5boost3_bi5list0ixIKSt6vectorIN2cv3MatESaIS5_EEEERT_RKNS_17reference_wrapperIS9_EE = comdat any

$_ZNK5boost3_bi5list0ixISt6vectorIN2cv8KeyPointESaIS5_EEEERT_RKNS_17reference_wrapperIS8_EE = comdat any

$_ZNK5boost3_bi5list0ixImEERT_RNS0_5valueIS3_EE = comdat any

$_ZNK5boost3_bi5list0ixISt6vectorIhSaIhEEEERT_RKNS_17reference_wrapperIS6_EE = comdat any

$_ZN5boost3_bi5valueIPN7ov_core8TrackKLTEE3getEv = comdat any

$_ZN5boost3_bi5valueImE3getEv = comdat any

$_ZN5boost6detail20sp_pointer_constructINS0_16thread_data_baseENS0_11thread_dataINS_3_bi6bind_tIvNS_4_mfi3mf7IvN7ov_core8TrackKLTERKSt6vectorIN2cv3MatESaISC_EESG_RSA_INSB_8KeyPointESaISH_EESK_mmRSA_IhSaIhEEEENS4_5list8INS4_5valueIPS9_EENS_17reference_wrapperISF_EESU_NST_ISJ_EESV_NSQ_ImEESW_NST_ISM_EEEEEEEEEEvPNS_10shared_ptrIT_EEPT0_RNS0_12shared_countE = comdat any

$_ZN5boost6detail12shared_countC2INS0_11thread_dataINS_3_bi6bind_tIvNS_4_mfi3mf7IvN7ov_core8TrackKLTERKSt6vectorIN2cv3MatESaISC_EESG_RSA_INSB_8KeyPointESaISH_EESK_mmRSA_IhSaIhEEEENS4_5list8INS4_5valueIPS9_EENS_17reference_wrapperISF_EESU_NST_ISJ_EESV_NSQ_ImEESW_NST_ISM_EEEEEEEEEEPT_ = comdat any

$_ZN5boost6detail26sp_enable_shared_from_thisINS0_16thread_data_baseENS0_11thread_dataINS_3_bi6bind_tIvNS_4_mfi3mf7IvN7ov_core8TrackKLTERKSt6vectorIN2cv3MatESaISC_EESG_RSA_INSB_8KeyPointESaISH_EESK_mmRSA_IhSaIhEEEENS4_5list8INS4_5valueIPS9_EENS_17reference_wrapperISF_EESU_NST_ISJ_EESV_NSQ_ImEESW_NST_ISM_EEEEEEEES2_EEvPKNS_10shared_ptrIT_EEPKT0_PKNS_23enable_shared_from_thisIT1_EE = comdat any

$_ZN5boost6detail17sp_counted_impl_pINS0_11thread_dataINS_3_bi6bind_tIvNS_4_mfi3mf7IvN7ov_core8TrackKLTERKSt6vectorIN2cv3MatESaISB_EESF_RS9_INSA_8KeyPointESaISG_EESJ_mmRS9_IhSaIhEEEENS3_5list8INS3_5valueIPS8_EENS_17reference_wrapperISE_EEST_NSS_ISI_EESU_NSP_ImEESV_NSS_ISL_EEEEEEEEEC2EPSZ_ = comdat any

$_ZN5boost14checked_deleteINS_6detail11thread_dataINS_3_bi6bind_tIvNS_4_mfi3mf7IvN7ov_core8TrackKLTERKSt6vectorIN2cv3MatESaISB_EESF_RS9_INSA_8KeyPointESaISG_EESJ_mmRS9_IhSaIhEEEENS3_5list8INS3_5valueIPS8_EENS_17reference_wrapperISE_EEST_NSS_ISI_EESU_NSP_ImEESV_NSS_ISL_EEEEEEEEEEvPT_ = comdat any

$_ZN5boost6detail17sp_counted_impl_pINS0_11thread_dataINS_3_bi6bind_tIvNS_4_mfi3mf7IvN7ov_core8TrackKLTERKSt6vectorIN2cv3MatESaISB_EESF_RS9_INSA_8KeyPointESaISG_EESJ_mmRS9_IhSaIhEEEENS3_5list8INS3_5valueIPS8_EENS_17reference_wrapperISE_EEST_NSS_ISI_EESU_NSP_ImEESV_NSS_ISL_EEEEEEEEED0Ev = comdat any

$_ZN5boost6detail17sp_counted_impl_pINS0_11thread_dataINS_3_bi6bind_tIvNS_4_mfi3mf7IvN7ov_core8TrackKLTERKSt6vectorIN2cv3MatESaISB_EESF_RS9_INSA_8KeyPointESaISG_EESJ_mmRS9_IhSaIhEEEENS3_5list8INS3_5valueIPS8_EENS_17reference_wrapperISE_EEST_NSS_ISI_EESU_NSP_ImEESV_NSS_ISL_EEEEEEEEE7disposeEv = comdat any

$_ZN5boost6detail17sp_counted_impl_pINS0_11thread_dataINS_3_bi6bind_tIvNS_4_mfi3mf7IvN7ov_core8TrackKLTERKSt6vectorIN2cv3MatESaISB_EESF_RS9_INSA_8KeyPointESaISG_EESJ_mmRS9_IhSaIhEEEENS3_5list8INS3_5valueIPS8_EENS_17reference_wrapperISE_EEST_NSS_ISI_EESU_NSP_ImEESV_NSS_ISL_EEEEEEEEE11get_deleterERKSt9type_info = comdat any

$_ZN5boost6detail17sp_counted_impl_pINS0_11thread_dataINS_3_bi6bind_tIvNS_4_mfi3mf7IvN7ov_core8TrackKLTERKSt6vectorIN2cv3MatESaISB_EESF_RS9_INSA_8KeyPointESaISG_EESJ_mmRS9_IhSaIhEEEENS3_5list8INS3_5valueIPS8_EENS_17reference_wrapperISE_EEST_NSS_ISI_EESU_NSP_ImEESV_NSS_ISL_EEEEEEEEE19get_untyped_deleterEv = comdat any

$_ZNK5boost23enable_shared_from_thisINS_6detail16thread_data_baseEE22_internal_accept_ownerIS2_NS1_11thread_dataINS_3_bi6bind_tIvNS_4_mfi3mf7IvN7ov_core8TrackKLTERKSt6vectorIN2cv3MatESaISE_EESI_RSC_INSD_8KeyPointESaISJ_EESM_mmRSC_IhSaIhEEEENS6_5list8INS6_5valueIPSB_EENS_17reference_wrapperISH_EESW_NSV_ISL_EESX_NSS_ImEESY_NSV_ISO_EEEEEEEEEEvPKNS_10shared_ptrIT_EEPT0_ = comdat any

$_ZN5boost4_mfi3mf7IvN7ov_core8TrackKLTERKSt6vectorIN2cv3MatESaIS6_EESA_RS4_INS5_8KeyPointESaISB_EESE_mmRS4_IhSaIhEEEC2EMS3_FvSA_SA_SE_SE_mmSH_E = comdat any

$_ZN5boost3_bi5valueIPN7ov_core8TrackKLTEEC2ERKS4_ = comdat any

$_ZN5boost3_bi5valueImEC2ERKm = comdat any

$_ZN5boost3_bi5list8INS0_5valueIPN7ov_core8TrackKLTEEENS_17reference_wrapperIKSt6vectorIN2cv3MatESaISA_EEEESE_NS7_IS8_INS9_8KeyPointESaISF_EEEESI_NS2_ImEESJ_NS7_IS8_IhSaIhEEEEEC2ES6_SE_SE_SI_SI_SJ_SJ_SM_ = comdat any

$_ZN5boost3_bi6bind_tIvNS_4_mfi3mf7IvN7ov_core8TrackKLTERKSt6vectorIN2cv3MatESaIS8_EESC_RS6_INS7_8KeyPointESaISD_EESG_mmRS6_IhSaIhEEEENS0_5list8INS0_5valueIPS5_EENS_17reference_wrapperISB_EESQ_NSP_ISF_EESR_NSM_ImEESS_NSP_ISI_EEEEEC2ESK_RKSU_ = comdat any

$_ZN5boost3_bi8storage8INS0_5valueIPN7ov_core8TrackKLTEEENS_17reference_wrapperIKSt6vectorIN2cv3MatESaISA_EEEESE_NS7_IS8_INS9_8KeyPointESaISF_EEEESI_NS2_ImEESJ_NS7_IS8_IhSaIhEEEEEC2ES6_SE_SE_SI_SI_SJ_SJ_SM_ = comdat any

$_ZN5boost3_bi8storage7INS0_5valueIPN7ov_core8TrackKLTEEENS_17reference_wrapperIKSt6vectorIN2cv3MatESaISA_EEEESE_NS7_IS8_INS9_8KeyPointESaISF_EEEESI_NS2_ImEESJ_EC2ES6_SE_SE_SI_SI_SJ_SJ_ = comdat any

$_ZN5boost3_bi8storage6INS0_5valueIPN7ov_core8TrackKLTEEENS_17reference_wrapperIKSt6vectorIN2cv3MatESaISA_EEEESE_NS7_IS8_INS9_8KeyPointESaISF_EEEESI_NS2_ImEEEC2ES6_SE_SE_SI_SI_SJ_ = comdat any

$_ZN5boost3_bi8storage5INS0_5valueIPN7ov_core8TrackKLTEEENS_17reference_wrapperIKSt6vectorIN2cv3MatESaISA_EEEESE_NS7_IS8_INS9_8KeyPointESaISF_EEEESI_EC2ES6_SE_SE_SI_SI_ = comdat any

$_ZN5boost3_bi8storage4INS0_5valueIPN7ov_core8TrackKLTEEENS_17reference_wrapperIKSt6vectorIN2cv3MatESaISA_EEEESE_NS7_IS8_INS9_8KeyPointESaISF_EEEEEC2ES6_SE_SE_SI_ = comdat any

$_ZN5boost3_bi8storage3INS0_5valueIPN7ov_core8TrackKLTEEENS_17reference_wrapperIKSt6vectorIN2cv3MatESaISA_EEEESE_EC2ES6_SE_SE_ = comdat any

$_ZN5boost3_bi8storage2INS0_5valueIPN7ov_core8TrackKLTEEENS_17reference_wrapperIKSt6vectorIN2cv3MatESaISA_EEEEEC2ES6_SE_ = comdat any

$_ZN5boost3_bi8storage1INS0_5valueIPN7ov_core8TrackKLTEEEEC2ES6_ = comdat any

$_ZSt9__find_ifIN9__gnu_cxx17__normal_iteratorIPmSt6vectorImSaImEEEENS0_5__ops16_Iter_equals_valIKmEEET_SB_SB_T0_ = comdat any

$_ZN9__gnu_cxx5__ops17__iter_equals_valIKmEENS0_16_Iter_equals_valIT_EERS4_ = comdat any

$_ZSt9__find_ifIN9__gnu_cxx17__normal_iteratorIPmSt6vectorImSaImEEEENS0_5__ops16_Iter_equals_valIKmEEET_SB_SB_T0_St26random_access_iterator_tag = comdat any

$_ZSt19__iterator_categoryIN9__gnu_cxx17__normal_iteratorIPmSt6vectorImSaImEEEEENSt15iterator_traitsIT_E17iterator_categoryERKS8_ = comdat any

$_ZN9__gnu_cxxmiIPmSt6vectorImSaImEEEENS_17__normal_iteratorIT_T0_E15difference_typeERKS8_SB_ = comdat any

$_ZN9__gnu_cxx5__ops16_Iter_equals_valIKmEclINS_17__normal_iteratorIPmSt6vectorImSaImEEEEEEbT_ = comdat any

$_ZN9__gnu_cxx17__normal_iteratorIPmSt6vectorImSaImEEEppEv = comdat any

$_ZNK9__gnu_cxx17__normal_iteratorIPmSt6vectorImSaImEEEdeEv = comdat any

$_ZN9__gnu_cxx5__ops16_Iter_equals_valIKmEC2ERS2_ = comdat any

$_ZN5boost9date_time13time_durationINS_10posix_time13time_durationENS0_22time_resolution_traitsINS0_37time_resolution_traits_adapted64_implELNS0_16time_resolutionsE5ELl1000000ELt6EiEEE16ticks_per_secondEv = comdat any

$_ZNKSt6vectorIN2cv3MatESaIS1_EE14_M_range_checkEm = comdat any

$_ZNKSt6vectorIN2cv3MatESaIS1_EEixEm = comdat any

$_ZN5Eigen9DenseBaseINS_6MatrixIiLin1ELin1ELi0ELin1ELin1EEEE8ConstantEllRKi = comdat any

$_ZN5Eigen9DenseBaseINS_6MatrixIiLin1ELin1ELi0ELin1ELin1EEEE11NullaryExprINS_8internal18scalar_constant_opIiEEEEKNS_14CwiseNullaryOpIT_S2_EEllRKS9_ = comdat any

$_ZN5Eigen8internal18scalar_constant_opIiEC2ERKi = comdat any

$_ZN5Eigen14CwiseNullaryOpINS_8internal18scalar_constant_opIiEENS_6MatrixIiLin1ELin1ELi0ELin1ELin1EEEEC2EllRKS3_ = comdat any

$_ZN5Eigen10MatrixBaseINS_14CwiseNullaryOpINS_8internal18scalar_constant_opIiEENS_6MatrixIiLin1ELin1ELi0ELin1ELin1EEEEEEC2Ev = comdat any

$_ZN5Eigen8internal19variable_if_dynamicIlLin1EEC2El = comdat any

$_ZN5Eigen8internal18scalar_constant_opIiEC2ERKS2_ = comdat any

$_ZN5Eigen9DenseBaseINS_14CwiseNullaryOpINS_8internal18scalar_constant_opIiEENS_6MatrixIiLin1ELin1ELi0ELin1ELin1EEEEEEC2Ev = comdat any

$_ZNK5Eigen9EigenBaseINS_14CwiseNullaryOpINS_8internal18scalar_constant_opIiEENS_6MatrixIiLin1ELin1ELi0ELin1ELin1EEEEEE7derivedEv = comdat any

$_ZN5Eigen15PlainObjectBaseINS_6MatrixIiLin1ELin1ELi0ELin1ELin1EEEEC2INS_14CwiseNullaryOpINS_8internal18scalar_constant_opIiEES2_EEEERKNS_9DenseBaseIT_EE = comdat any

$_ZN5Eigen10MatrixBaseINS_6MatrixIiLin1ELin1ELi0ELin1ELin1EEEEC2Ev = comdat any

$_ZN5Eigen12DenseStorageIiLin1ELin1ELin1ELi0EEC2Ev = comdat any

$_ZN5Eigen15PlainObjectBaseINS_6MatrixIiLin1ELin1ELi0ELin1ELin1EEEE22_check_template_paramsEv = comdat any

$_ZN5Eigen15PlainObjectBaseINS_6MatrixIiLin1ELin1ELi0ELin1ELin1EEEE10resizeLikeINS_14CwiseNullaryOpINS_8internal18scalar_constant_opIiEES2_EEEEvRKNS_9EigenBaseIT_EE = comdat any

$_ZN5Eigen15PlainObjectBaseINS_6MatrixIiLin1ELin1ELi0ELin1ELin1EEEE12_set_noaliasINS_14CwiseNullaryOpINS_8internal18scalar_constant_opIiEES2_EEEERS2_RKNS_9DenseBaseIT_EE = comdat any

$_ZN5Eigen9DenseBaseINS_6MatrixIiLin1ELin1ELi0ELin1ELin1EEEEC2Ev = comdat any

$_ZNK5Eigen14CwiseNullaryOpINS_8internal18scalar_constant_opIiEENS_6MatrixIiLin1ELin1ELi0ELin1ELin1EEEE4rowsEv = comdat any

$_ZNK5Eigen14CwiseNullaryOpINS_8internal18scalar_constant_opIiEENS_6MatrixIiLin1ELin1ELi0ELin1ELin1EEEE4colsEv = comdat any

$_ZN5Eigen15PlainObjectBaseINS_6MatrixIiLin1ELin1ELi0ELin1ELin1EEEE6resizeEll = comdat any

$_ZNK5Eigen8internal19variable_if_dynamicIlLin1EE5valueEv = comdat any

$_ZN5Eigen12DenseStorageIiLin1ELin1ELin1ELi0EE6resizeElll = comdat any

$_ZN5Eigen8internal28conditional_aligned_new_autoIiLb1EEEPT_m = comdat any

$_ZN5Eigen8internal24call_assignment_no_aliasINS_6MatrixIiLin1ELin1ELi0ELin1ELin1EEENS_14CwiseNullaryOpINS0_18scalar_constant_opIiEES3_EENS0_9assign_opIiEEEEvRT_RKT0_RKT1_ = comdat any

$_ZN5Eigen9EigenBaseINS_6MatrixIiLin1ELin1ELi0ELin1ELin1EEEE7derivedEv = comdat any

$_ZN5Eigen8internal9assign_opIiEC2Ev = comdat any

$_ZNK5Eigen15PlainObjectBaseINS_6MatrixIiLin1ELin1ELi0ELin1ELin1EEEE4rowsEv = comdat any

$_ZNK5Eigen15PlainObjectBaseINS_6MatrixIiLin1ELin1ELi0ELin1ELin1EEEE4colsEv = comdat any

$_ZN5Eigen8internal10AssignmentINS_6MatrixIiLin1ELin1ELi0ELin1ELin1EEENS_14CwiseNullaryOpINS0_18scalar_constant_opIiEES3_EENS0_9assign_opIiEENS0_11Dense2DenseEiE3runERS3_RKS7_RKS9_ = comdat any

$_ZNK5Eigen12DenseStorageIiLin1ELin1ELin1ELi0EE4rowsEv = comdat any

$_ZNK5Eigen12DenseStorageIiLin1ELin1ELin1ELi0EE4colsEv = comdat any

$_ZN5Eigen8internal18check_for_aliasingINS_6MatrixIiLin1ELin1ELi0ELin1ELin1EEENS_14CwiseNullaryOpINS0_18scalar_constant_opIiEES3_EEEEvRKT_RKT0_ = comdat any

$_ZN5Eigen8internal26call_dense_assignment_loopINS_6MatrixIiLin1ELin1ELi0ELin1ELin1EEENS_14CwiseNullaryOpINS0_18scalar_constant_opIiEES3_EENS0_9assign_opIiEEEEvRKT_RKT0_RKT1_ = comdat any

$_ZN5Eigen8internal27checkTransposeAliasing_implINS_6MatrixIiLin1ELin1ELi0ELin1ELin1EEENS_14CwiseNullaryOpINS0_18scalar_constant_opIiEES3_EELb0EE3runERKS3_RKS7_ = comdat any

$_ZN5Eigen8internal9evaluatorINS_6MatrixIiLin1ELin1ELi0ELin1ELin1EEEEC2ERKS3_ = comdat any

$_ZN5Eigen8internal9evaluatorINS_14CwiseNullaryOpINS0_18scalar_constant_opIiEENS_6MatrixIiLin1ELin1ELi0ELin1ELin1EEEEEEC2ERKS7_ = comdat any

$_ZNK5Eigen9EigenBaseINS_6MatrixIiLin1ELin1ELi0ELin1ELin1EEEE18const_cast_derivedEv = comdat any

$_ZN5Eigen8internal31generic_dense_assignment_kernelINS0_9evaluatorINS_6MatrixIiLin1ELin1ELi0ELin1ELin1EEEEENS2_INS_14CwiseNullaryOpINS0_18scalar_constant_opIiEES4_EEEENS0_9assign_opIiEELi0EEC2ERS5_RKSA_RKSC_RS4_ = comdat any

$_ZN5Eigen8internal21dense_assignment_loopINS0_31generic_dense_assignment_kernelINS0_9evaluatorINS_6MatrixIiLin1ELin1ELi0ELin1ELin1EEEEENS3_INS_14CwiseNullaryOpINS0_18scalar_constant_opIiEES5_EEEENS0_9assign_opIiEELi0EEELi3ELi0EE3runERSE_ = comdat any

$_ZN5Eigen8internal11noncopyableD2Ev = comdat any

$_ZN5Eigen8internal9evaluatorINS_15PlainObjectBaseINS_6MatrixIiLin1ELin1ELi0ELin1ELin1EEEEEEC2ERKS5_ = comdat any

$_ZN5Eigen8internal14evaluator_baseINS_6MatrixIiLin1ELin1ELi0ELin1ELin1EEEEC2Ev = comdat any

$_ZNK5Eigen15PlainObjectBaseINS_6MatrixIiLin1ELin1ELi0ELin1ELin1EEEE4dataEv = comdat any

$_ZNK5Eigen15DenseCoeffsBaseINS_6MatrixIiLin1ELin1ELi0ELin1ELin1EEELi3EE11outerStrideEv = comdat any

$_ZNK5Eigen12DenseStorageIiLin1ELin1ELin1ELi0EE4dataEv = comdat any

$_ZNK5Eigen9EigenBaseINS_6MatrixIiLin1ELin1ELi0ELin1ELin1EEEE7derivedEv = comdat any

$_ZNK5Eigen6MatrixIiLin1ELin1ELi0ELin1ELin1EE11outerStrideEv = comdat any

$_ZNK5Eigen9DenseBaseINS_6MatrixIiLin1ELin1ELi0ELin1ELin1EEEE9innerSizeEv = comdat any

$_ZNK5Eigen9EigenBaseINS_6MatrixIiLin1ELin1ELi0ELin1ELin1EEEE4rowsEv = comdat any

$_ZN5Eigen8internal14evaluator_baseINS_14CwiseNullaryOpINS0_18scalar_constant_opIiEENS_6MatrixIiLin1ELin1ELi0ELin1ELin1EEEEEEC2Ev = comdat any

$_ZNK5Eigen14CwiseNullaryOpINS_8internal18scalar_constant_opIiEENS_6MatrixIiLin1ELin1ELi0ELin1ELin1EEEE7functorEv = comdat any

$_ZNK5Eigen8internal31generic_dense_assignment_kernelINS0_9evaluatorINS_6MatrixIiLin1ELin1ELi0ELin1ELin1EEEEENS2_INS_14CwiseNullaryOpINS0_18scalar_constant_opIiEES4_EEEENS0_9assign_opIiEELi0EE4sizeEv = comdat any

$_ZN5Eigen8internal31unaligned_dense_assignment_loopILb1EE3runINS0_31generic_dense_assignment_kernelINS0_9evaluatorINS_6MatrixIiLin1ELin1ELi0ELin1ELin1EEEEENS5_INS_14CwiseNullaryOpINS0_18scalar_constant_opIiEES7_EEEENS0_9assign_opIiEELi0EEEEEvRT_ll = comdat any

$_ZN5Eigen8internal31generic_dense_assignment_kernelINS0_9evaluatorINS_6MatrixIiLin1ELin1ELi0ELin1ELin1EEEEENS2_INS_14CwiseNullaryOpINS0_18scalar_constant_opIiEES4_EEEENS0_9assign_opIiEELi0EE12assignPacketILi16ELi16EDv2_xEEvl = comdat any

$_ZN5Eigen8internal31unaligned_dense_assignment_loopILb0EE3runINS0_31generic_dense_assignment_kernelINS0_9evaluatorINS_6MatrixIiLin1ELin1ELi0ELin1ELin1EEEEENS5_INS_14CwiseNullaryOpINS0_18scalar_constant_opIiEES7_EEEENS0_9assign_opIiEELi0EEEEEvRT_ll = comdat any

$_ZNK5Eigen9EigenBaseINS_6MatrixIiLin1ELin1ELi0ELin1ELin1EEEE4sizeEv = comdat any

$_ZNK5Eigen9EigenBaseINS_6MatrixIiLin1ELin1ELi0ELin1ELin1EEEE4colsEv = comdat any

$_ZNK5Eigen8internal9assign_opIiE12assignPacketILi16EDv2_xEEvPiRKT0_ = comdat any

$_ZN5Eigen8internal9evaluatorINS_15PlainObjectBaseINS_6MatrixIiLin1ELin1ELi0ELin1ELin1EEEEEE8coeffRefEl = comdat any

$_ZNK5Eigen8internal9evaluatorINS_14CwiseNullaryOpINS0_18scalar_constant_opIiEENS_6MatrixIiLin1ELin1ELi0ELin1ELin1EEEEEE6packetILi16EDv2_xEET0_l = comdat any

$_ZN5Eigen8internal6pstoreIiDv2_xEEvPT_RKT0_ = comdat any

$_ZNK5Eigen8internal18scalar_constant_opIiE8packetOpIlDv2_xEEKT0_T_S7_ = comdat any

$_ZN5Eigen8internal5pset1IDv2_xEET_RKNS0_15unpacket_traitsIS3_E4typeE = comdat any

$_ZN5Eigen8internal31generic_dense_assignment_kernelINS0_9evaluatorINS_6MatrixIiLin1ELin1ELi0ELin1ELin1EEEEENS2_INS_14CwiseNullaryOpINS0_18scalar_constant_opIiEES4_EEEENS0_9assign_opIiEELi0EE11assignCoeffEl = comdat any

$_ZNK5Eigen8internal9assign_opIiE11assignCoeffERiRKi = comdat any

$_ZNK5Eigen8internal9evaluatorINS_14CwiseNullaryOpINS0_18scalar_constant_opIiEENS_6MatrixIiLin1ELin1ELi0ELin1ELin1EEEEEE5coeffEl = comdat any

$_ZNK5Eigen8internal18scalar_constant_opIiEclIlEEKiT_S5_ = comdat any

$_ZN5Eigen15DenseCoeffsBaseINS_6MatrixIiLin1ELin1ELi0ELin1ELin1EEELi1EE8coeffRefEll = comdat any

$_ZN5Eigen8internal9evaluatorINS_15PlainObjectBaseINS_6MatrixIiLin1ELin1ELi0ELin1ELin1EEEEEE8coeffRefEll = comdat any

$_ZNSt6vectorIN2cv8KeyPointESaIS1_EE8_M_eraseEN9__gnu_cxx17__normal_iteratorIPS1_S3_EE = comdat any

$_ZSt4moveIN9__gnu_cxx17__normal_iteratorIPN2cv8KeyPointESt6vectorIS3_SaIS3_EEEES8_ET0_T_SA_S9_ = comdat any

$_ZNSt16allocator_traitsISaIN2cv8KeyPointEEE7destroyIS1_EEvRS2_PT_ = comdat any

$_ZSt14__copy_move_a2ILb1EN9__gnu_cxx17__normal_iteratorIPN2cv8KeyPointESt6vectorIS3_SaIS3_EEEES8_ET1_T0_SA_S9_ = comdat any

$_ZSt13__copy_move_aILb1EPN2cv8KeyPointES2_ET1_T0_S4_S3_ = comdat any

$_ZNSt11__copy_moveILb1ELb0ESt26random_access_iterator_tagE8__copy_mIPN2cv8KeyPointES5_EET0_T_S7_S6_ = comdat any

$_ZN9__gnu_cxx13new_allocatorIN2cv8KeyPointEE7destroyIS2_EEvPT_ = comdat any

$_ZNSt6vectorImSaImEE8_M_eraseEN9__gnu_cxx17__normal_iteratorIPmS1_EE = comdat any

$_ZNK9__gnu_cxx17__normal_iteratorIPmSt6vectorImSaImEEEplEl = comdat any

$_ZN9__gnu_cxxmiIPKmSt6vectorImSaImEEEENS_17__normal_iteratorIT_T0_E15difference_typeERKS9_SC_ = comdat any

$_ZNKSt6vectorImSaImEE6cbeginEv = comdat any

$_ZSt4moveIN9__gnu_cxx17__normal_iteratorIPmSt6vectorImSaImEEEES6_ET0_T_S8_S7_ = comdat any

$_ZNSt16allocator_traitsISaImEE7destroyImEEvRS0_PT_ = comdat any

$_ZSt14__copy_move_a2ILb1EN9__gnu_cxx17__normal_iteratorIPmSt6vectorImSaImEEEES6_ET1_T0_S8_S7_ = comdat any

$_ZSt12__miter_baseIN9__gnu_cxx17__normal_iteratorIPmSt6vectorImSaImEEEEENSt11_Miter_baseIT_E13iterator_typeES8_ = comdat any

$_ZNSt10_Iter_baseIN9__gnu_cxx17__normal_iteratorIPmSt6vectorImSaImEEEELb0EE7_S_baseES6_ = comdat any

$_ZN9__gnu_cxx13new_allocatorImE7destroyImEEvPT_ = comdat any

$_ZNSt12_Vector_baseIN2cv6Point_IfEESaIS2_EEC2Ev = comdat any

$_ZNSt12_Vector_baseIN2cv6Point_IfEESaIS2_EE12_Vector_implC2Ev = comdat any

$_ZNSaIN2cv6Point_IfEEEC2Ev = comdat any

$_ZN9__gnu_cxx13new_allocatorIN2cv6Point_IfEEEC2Ev = comdat any

$_ZSt8_DestroyIPN2cv6Point_IfEES2_EvT_S4_RSaIT0_E = comdat any

$_ZNSt12_Vector_baseIN2cv6Point_IfEESaIS2_EE19_M_get_Tp_allocatorEv = comdat any

$_ZNSt12_Vector_baseIN2cv6Point_IfEESaIS2_EED2Ev = comdat any

$_ZSt8_DestroyIPN2cv6Point_IfEEEvT_S4_ = comdat any

$_ZNSt12_Destroy_auxILb1EE9__destroyIPN2cv6Point_IfEEEEvT_S6_ = comdat any

$_ZNSt12_Vector_baseIN2cv6Point_IfEESaIS2_EE13_M_deallocateEPS2_m = comdat any

$_ZN9__gnu_cxx13new_allocatorIN2cv6Point_IfEEED2Ev = comdat any

$_ZNSt16allocator_traitsISaIN2cv6Point_IfEEEE10deallocateERS3_PS2_m = comdat any

$_ZN9__gnu_cxx13new_allocatorIN2cv6Point_IfEEE10deallocateEPS3_m = comdat any

$_ZNSt16allocator_traitsISaIN2cv6Point_IfEEEE9constructIS2_JRKS2_EEEvRS3_PT_DpOT0_ = comdat any

$_ZNSt6vectorIN2cv6Point_IfEESaIS2_EE19_M_emplace_back_auxIJRKS2_EEEvDpOT_ = comdat any

$_ZN9__gnu_cxx13new_allocatorIN2cv6Point_IfEEE9constructIS3_JRKS3_EEEvPT_DpOT0_ = comdat any

$_ZSt7forwardIRKN2cv6Point_IfEEEOT_RNSt16remove_referenceIS5_E4typeE = comdat any

$_ZNKSt6vectorIN2cv6Point_IfEESaIS2_EE12_M_check_lenEmPKc = comdat any

$_ZNSt12_Vector_baseIN2cv6Point_IfEESaIS2_EE11_M_allocateEm = comdat any

$_ZSt34__uninitialized_move_if_noexcept_aIPN2cv6Point_IfEES3_SaIS2_EET0_T_S6_S5_RT1_ = comdat any

$_ZNKSt6vectorIN2cv6Point_IfEESaIS2_EE8max_sizeEv = comdat any

$_ZNSt16allocator_traitsISaIN2cv6Point_IfEEEE8max_sizeERKS3_ = comdat any

$_ZNKSt12_Vector_baseIN2cv6Point_IfEESaIS2_EE19_M_get_Tp_allocatorEv = comdat any

$_ZNK9__gnu_cxx13new_allocatorIN2cv6Point_IfEEE8max_sizeEv = comdat any

$_ZNSt16allocator_traitsISaIN2cv6Point_IfEEEE8allocateERS3_m = comdat any

$_ZN9__gnu_cxx13new_allocatorIN2cv6Point_IfEEE8allocateEmPKv = comdat any

$_ZSt22__uninitialized_copy_aIPN2cv6Point_IfEES3_S2_ET0_T_S5_S4_RSaIT1_E = comdat any

$_ZSt32__make_move_if_noexcept_iteratorIPN2cv6Point_IfEES3_ET0_T_ = comdat any

$_ZSt18uninitialized_copyIPN2cv6Point_IfEES3_ET0_T_S5_S4_ = comdat any

$_ZNSt20__uninitialized_copyILb0EE13__uninit_copyIPN2cv6Point_IfEES5_EET0_T_S7_S6_ = comdat any

$_ZSt10_ConstructIN2cv6Point_IfEEJRS2_EEvPT_DpOT0_ = comdat any

$_ZSt11__addressofIN2cv6Point_IfEEEPT_RS3_ = comdat any

$_ZSt7forwardIRN2cv6Point_IfEEEOT_RNSt16remove_referenceIS4_E4typeE = comdat any

$_ZNKSt6vectorIN2cv6Point_IfEESaIS2_EE14_M_range_checkEm = comdat any

$_ZNSt6vectorIN2cv6Point_IfEESaIS2_EEixEm = comdat any

$_ZNKSt6vectorIN2cv6Point_IfEESaIS2_EE8capacityEv = comdat any

$_ZNSt6vectorIN2cv6Point_IfEESaIS2_EE20_M_allocate_and_copyIN9__gnu_cxx17__normal_iteratorIPKS2_S4_EEEEPS2_mT_SC_ = comdat any

$_ZNKSt6vectorIN2cv6Point_IfEESaIS2_EE5beginEv = comdat any

$_ZNKSt6vectorIN2cv6Point_IfEESaIS2_EE3endEv = comdat any

$_ZSt8_DestroyIN9__gnu_cxx17__normal_iteratorIPN2cv6Point_IfEESt6vectorIS4_SaIS4_EEEES4_EvT_SA_RSaIT0_E = comdat any

$_ZSt4copyIN9__gnu_cxx17__normal_iteratorIPKN2cv6Point_IfEESt6vectorIS4_SaIS4_EEEENS1_IPS4_S9_EEET0_T_SE_SD_ = comdat any

$_ZNSt6vectorIN2cv6Point_IfEESaIS2_EE5beginEv = comdat any

$_ZNSt6vectorIN2cv6Point_IfEESaIS2_EE3endEv = comdat any

$_ZSt4copyIPN2cv6Point_IfEES3_ET0_T_S5_S4_ = comdat any

$_ZSt22__uninitialized_copy_aIN9__gnu_cxx17__normal_iteratorIPKN2cv6Point_IfEESt6vectorIS4_SaIS4_EEEEPS4_S4_ET0_T_SD_SC_RSaIT1_E = comdat any

$_ZSt18uninitialized_copyIN9__gnu_cxx17__normal_iteratorIPKN2cv6Point_IfEESt6vectorIS4_SaIS4_EEEEPS4_ET0_T_SD_SC_ = comdat any

$_ZNSt20__uninitialized_copyILb0EE13__uninit_copyIN9__gnu_cxx17__normal_iteratorIPKN2cv6Point_IfEESt6vectorIS6_SaIS6_EEEEPS6_EET0_T_SF_SE_ = comdat any

$_ZN9__gnu_cxxneIPKN2cv6Point_IfEESt6vectorIS3_SaIS3_EEEEbRKNS_17__normal_iteratorIT_T0_EESE_ = comdat any

$_ZSt10_ConstructIN2cv6Point_IfEEJRKS2_EEvPT_DpOT0_ = comdat any

$_ZNK9__gnu_cxx17__normal_iteratorIPKN2cv6Point_IfEESt6vectorIS3_SaIS3_EEEdeEv = comdat any

$_ZN9__gnu_cxx17__normal_iteratorIPKN2cv6Point_IfEESt6vectorIS3_SaIS3_EEEppEv = comdat any

$_ZNK9__gnu_cxx17__normal_iteratorIPKN2cv6Point_IfEESt6vectorIS3_SaIS3_EEE4baseEv = comdat any

$_ZN9__gnu_cxx17__normal_iteratorIPKN2cv6Point_IfEESt6vectorIS3_SaIS3_EEEC2ERKS5_ = comdat any

$_ZSt8_DestroyIN9__gnu_cxx17__normal_iteratorIPN2cv6Point_IfEESt6vectorIS4_SaIS4_EEEEEvT_SA_ = comdat any

$_ZNSt12_Destroy_auxILb1EE9__destroyIN9__gnu_cxx17__normal_iteratorIPN2cv6Point_IfEESt6vectorIS6_SaIS6_EEEEEEvT_SC_ = comdat any

$_ZSt14__copy_move_a2ILb0EN9__gnu_cxx17__normal_iteratorIPKN2cv6Point_IfEESt6vectorIS4_SaIS4_EEEENS1_IPS4_S9_EEET1_T0_SE_SD_ = comdat any

$_ZSt12__miter_baseIN9__gnu_cxx17__normal_iteratorIPKN2cv6Point_IfEESt6vectorIS4_SaIS4_EEEEENSt11_Miter_baseIT_E13iterator_typeESC_ = comdat any

$_ZSt13__copy_move_aILb0EPKN2cv6Point_IfEEPS2_ET1_T0_S7_S6_ = comdat any

$_ZSt12__niter_baseIN9__gnu_cxx17__normal_iteratorIPKN2cv6Point_IfEESt6vectorIS4_SaIS4_EEEEENSt11_Niter_baseIT_E13iterator_typeESC_ = comdat any

$_ZSt12__niter_baseIN9__gnu_cxx17__normal_iteratorIPN2cv6Point_IfEESt6vectorIS4_SaIS4_EEEEENSt11_Niter_baseIT_E13iterator_typeESB_ = comdat any

$_ZN9__gnu_cxx17__normal_iteratorIPN2cv6Point_IfEESt6vectorIS3_SaIS3_EEEC2ERKS4_ = comdat any

$_ZNSt11__copy_moveILb0ELb0ESt26random_access_iterator_tagE8__copy_mIPKN2cv6Point_IfEEPS5_EET0_T_SA_S9_ = comdat any

$_ZNSt10_Iter_baseIN9__gnu_cxx17__normal_iteratorIPKN2cv6Point_IfEESt6vectorIS4_SaIS4_EEEELb1EE7_S_baseESA_ = comdat any

$_ZNSt10_Iter_baseIN9__gnu_cxx17__normal_iteratorIPN2cv6Point_IfEESt6vectorIS4_SaIS4_EEEELb1EE7_S_baseES9_ = comdat any

$_ZNK9__gnu_cxx17__normal_iteratorIPN2cv6Point_IfEESt6vectorIS3_SaIS3_EEE4baseEv = comdat any

$_ZNSt10_Iter_baseIN9__gnu_cxx17__normal_iteratorIPKN2cv6Point_IfEESt6vectorIS4_SaIS4_EEEELb0EE7_S_baseESA_ = comdat any

$_ZSt14__copy_move_a2ILb0EPN2cv6Point_IfEES3_ET1_T0_S5_S4_ = comdat any

$_ZSt12__miter_baseIPN2cv6Point_IfEEENSt11_Miter_baseIT_E13iterator_typeES5_ = comdat any

$_ZSt13__copy_move_aILb0EPN2cv6Point_IfEES3_ET1_T0_S5_S4_ = comdat any

$_ZSt12__niter_baseIPN2cv6Point_IfEEENSt11_Niter_baseIT_E13iterator_typeES5_ = comdat any

$_ZNSt11__copy_moveILb0ELb0ESt26random_access_iterator_tagE8__copy_mIPN2cv6Point_IfEES6_EET0_T_S8_S7_ = comdat any

$_ZNSt10_Iter_baseIPN2cv6Point_IfEELb0EE7_S_baseES3_ = comdat any

$_ZN9__gnu_cxxeqIPKN2cv6Point_IfEESt6vectorIS3_SaIS3_EEEEbRKNS_17__normal_iteratorIT_T0_EESE_ = comdat any

$_ZN2cv12_OutputArrayC2Ev = comdat any

$_ZNSt6vectorIhSaIhEE12emplace_backIJhEEEvDpOT_ = comdat any

$_ZSt4moveIRhEONSt16remove_referenceIT_E4typeEOS2_ = comdat any

$_ZNSt16allocator_traitsISaIhEE9constructIhJhEEEvRS0_PT_DpOT0_ = comdat any

$_ZSt7forwardIhEOT_RNSt16remove_referenceIS0_E4typeE = comdat any

$_ZNSt6vectorIhSaIhEE19_M_emplace_back_auxIJhEEEvDpOT_ = comdat any

$_ZN9__gnu_cxx13new_allocatorIhE9constructIhJhEEEvPT_DpOT0_ = comdat any

$_ZNKSt6vectorIhSaIhEE12_M_check_lenEmPKc = comdat any

$_ZNSt12_Vector_baseIhSaIhEE11_M_allocateEm = comdat any

$_ZSt34__uninitialized_move_if_noexcept_aIPhS0_SaIhEET0_T_S3_S2_RT1_ = comdat any

$_ZNKSt6vectorIhSaIhEE8max_sizeEv = comdat any

$_ZNSt16allocator_traitsISaIhEE8max_sizeERKS0_ = comdat any

$_ZNKSt12_Vector_baseIhSaIhEE19_M_get_Tp_allocatorEv = comdat any

$_ZNK9__gnu_cxx13new_allocatorIhE8max_sizeEv = comdat any

$_ZNSt16allocator_traitsISaIhEE8allocateERS0_m = comdat any

$_ZN9__gnu_cxx13new_allocatorIhE8allocateEmPKv = comdat any

$_ZSt22__uninitialized_copy_aISt13move_iteratorIPhES1_hET0_T_S4_S3_RSaIT1_E = comdat any

$_ZSt32__make_move_if_noexcept_iteratorIPhSt13move_iteratorIS0_EET0_T_ = comdat any

$_ZSt18uninitialized_copyISt13move_iteratorIPhES1_ET0_T_S4_S3_ = comdat any

$_ZNSt20__uninitialized_copyILb1EE13__uninit_copyISt13move_iteratorIPhES3_EET0_T_S6_S5_ = comdat any

$_ZSt4copyISt13move_iteratorIPhES1_ET0_T_S4_S3_ = comdat any

$_ZSt14__copy_move_a2ILb1EPhS0_ET1_T0_S2_S1_ = comdat any

$_ZSt12__miter_baseISt13move_iteratorIPhEENSt11_Miter_baseIT_E13iterator_typeES4_ = comdat any

$_ZSt13__copy_move_aILb1EPhS0_ET1_T0_S2_S1_ = comdat any

$_ZSt12__niter_baseIPhENSt11_Niter_baseIT_E13iterator_typeES2_ = comdat any

$_ZNSt11__copy_moveILb1ELb1ESt26random_access_iterator_tagE8__copy_mIhEEPT_PKS3_S6_S4_ = comdat any

$_ZNSt10_Iter_baseIPhLb0EE7_S_baseES0_ = comdat any

$_ZNSt10_Iter_baseISt13move_iteratorIPhELb1EE7_S_baseES2_ = comdat any

$_ZNKSt13move_iteratorIPhE4baseEv = comdat any

$_ZNSt13move_iteratorIPhEC2ES0_ = comdat any

$_ZNSt6vectorIN2cv6Point_IfEESaIS2_EE12emplace_backIJS2_EEEvDpOT_ = comdat any

$_ZSt4moveIRN2cv6Point_IfEEEONSt16remove_referenceIT_E4typeEOS5_ = comdat any

$_ZNSt16allocator_traitsISaIN2cv6Point_IfEEEE9constructIS2_JS2_EEEvRS3_PT_DpOT0_ = comdat any

$_ZSt7forwardIN2cv6Point_IfEEEOT_RNSt16remove_referenceIS3_E4typeE = comdat any

$_ZNSt6vectorIN2cv6Point_IfEESaIS2_EE19_M_emplace_back_auxIJS2_EEEvDpOT_ = comdat any

$_ZN9__gnu_cxx13new_allocatorIN2cv6Point_IfEEE9constructIS3_JS3_EEEvPT_DpOT0_ = comdat any

$_ZNSt16allocator_traitsISaIhEE9constructIhJRKhEEEvRS0_PT_DpOT0_ = comdat any

$_ZNSt6vectorIhSaIhEE19_M_emplace_back_auxIJRKhEEEvDpOT_ = comdat any

$_ZN9__gnu_cxx13new_allocatorIhE9constructIhJRKhEEEvPT_DpOT0_ = comdat any

$_ZSt7forwardIRKhEOT_RNSt16remove_referenceIS2_E4typeE = comdat any

$_ZTVN5boost6system12system_errorE = comdat any

$_ZTSN5boost6system12system_errorE = comdat any

$_ZTIN5boost6system12system_errorE = comdat any

$_ZTVN5boost21thread_resource_errorE = comdat any

$_ZTSN5boost21thread_resource_errorE = comdat any

$_ZTSN5boost16thread_exceptionE = comdat any

$_ZTIN5boost16thread_exceptionE = comdat any

$_ZTIN5boost21thread_resource_errorE = comdat any

$_ZTVN5boost16thread_exceptionE = comdat any

$_ZTVN2cv29ParallelLoopBodyLambdaWrapperE = comdat any

$_ZTSN2cv29ParallelLoopBodyLambdaWrapperE = comdat any

$_ZTIN2cv29ParallelLoopBodyLambdaWrapperE = comdat any

$_ZTSZN7ov_core11Grider_FAST15perform_gridingERKN2cv3MatERSt6vectorINS1_8KeyPointESaIS6_EEiiiibEUlRKNS1_5RangeEE_ = comdat any

$_ZTIZN7ov_core11Grider_FAST15perform_gridingERKN2cv3MatERSt6vectorINS1_8KeyPointESaIS6_EEiiiibEUlRKNS1_5RangeEE_ = comdat any

$_ZTVN5boost9gregorian8bad_yearE = comdat any

$_ZTSN5boost9gregorian8bad_yearE = comdat any

$_ZTIN5boost9gregorian8bad_yearE = comdat any

$_ZTVN5boost9gregorian9bad_monthE = comdat any

$_ZTSN5boost9gregorian9bad_monthE = comdat any

$_ZTIN5boost9gregorian9bad_monthE = comdat any

$_ZTVN5boost9gregorian16bad_day_of_monthE = comdat any

$_ZTSN5boost9gregorian16bad_day_of_monthE = comdat any

$_ZTIN5boost9gregorian16bad_day_of_monthE = comdat any

$_ZTVN5boost6detail11thread_dataINS_3_bi6bind_tIvPFvRKN2cv11_InputArrayERKNS4_12_OutputArrayEENS2_5list2INS_17reference_wrapperIKNS4_3MatEEENSE_ISF_EEEEEEEE = comdat any

$_ZTSN5boost6detail11thread_dataINS_3_bi6bind_tIvPFvRKN2cv11_InputArrayERKNS4_12_OutputArrayEENS2_5list2INS_17reference_wrapperIKNS4_3MatEEENSE_ISF_EEEEEEEE = comdat any

$_ZTIN5boost6detail11thread_dataINS_3_bi6bind_tIvPFvRKN2cv11_InputArrayERKNS4_12_OutputArrayEENS2_5list2INS_17reference_wrapperIKNS4_3MatEEENSE_ISF_EEEEEEEE = comdat any

$_ZTVN5boost6detail17sp_counted_impl_pINS0_11thread_dataINS_3_bi6bind_tIvPFvRKN2cv11_InputArrayERKNS5_12_OutputArrayEENS3_5list2INS_17reference_wrapperIKNS5_3MatEEENSF_ISG_EEEEEEEEEE = comdat any

$_ZTSN5boost6detail17sp_counted_impl_pINS0_11thread_dataINS_3_bi6bind_tIvPFvRKN2cv11_InputArrayERKNS5_12_OutputArrayEENS3_5list2INS_17reference_wrapperIKNS5_3MatEEENSF_ISG_EEEEEEEEEE = comdat any

$_ZTSN5boost6detail15sp_counted_baseE = comdat any

$_ZTIN5boost6detail15sp_counted_baseE = comdat any

$_ZTIN5boost6detail17sp_counted_impl_pINS0_11thread_dataINS_3_bi6bind_tIvPFvRKN2cv11_InputArrayERKNS5_12_OutputArrayEENS3_5list2INS_17reference_wrapperIKNS5_3MatEEENSF_ISG_EEEEEEEEEE = comdat any

$_ZTVN5boost6detail15sp_counted_baseE = comdat any

$_ZTVN5boost6detail11thread_dataINS_3_bi6bind_tIvPFiRKN2cv11_InputArrayERKNS4_12_OutputArrayENS4_5Size_IiEEibiibENS2_5list8INS_17reference_wrapperIKNS4_3MatEEENSG_ISt6vectorISH_SaISH_EEEENSG_ISC_EENSG_IiEENS2_5valueIbEENSQ_INS4_11BorderTypesEEEST_SR_EEEEEE = comdat any

$_ZTSN5boost6detail11thread_dataINS_3_bi6bind_tIvPFiRKN2cv11_InputArrayERKNS4_12_OutputArrayENS4_5Size_IiEEibiibENS2_5list8INS_17reference_wrapperIKNS4_3MatEEENSG_ISt6vectorISH_SaISH_EEEENSG_ISC_EENSG_IiEENS2_5valueIbEENSQ_INS4_11BorderTypesEEEST_SR_EEEEEE = comdat any

$_ZTIN5boost6detail11thread_dataINS_3_bi6bind_tIvPFiRKN2cv11_InputArrayERKNS4_12_OutputArrayENS4_5Size_IiEEibiibENS2_5list8INS_17reference_wrapperIKNS4_3MatEEENSG_ISt6vectorISH_SaISH_EEEENSG_ISC_EENSG_IiEENS2_5valueIbEENSQ_INS4_11BorderTypesEEEST_SR_EEEEEE = comdat any

$_ZTVN5boost6detail17sp_counted_impl_pINS0_11thread_dataINS_3_bi6bind_tIvPFiRKN2cv11_InputArrayERKNS5_12_OutputArrayENS5_5Size_IiEEibiibENS3_5list8INS_17reference_wrapperIKNS5_3MatEEENSH_ISt6vectorISI_SaISI_EEEENSH_ISD_EENSH_IiEENS3_5valueIbEENSR_INS5_11BorderTypesEEESU_SS_EEEEEEEE = comdat any

$_ZTSN5boost6detail17sp_counted_impl_pINS0_11thread_dataINS_3_bi6bind_tIvPFiRKN2cv11_InputArrayERKNS5_12_OutputArrayENS5_5Size_IiEEibiibENS3_5list8INS_17reference_wrapperIKNS5_3MatEEENSH_ISt6vectorISI_SaISI_EEEENSH_ISD_EENSH_IiEENS3_5valueIbEENSR_INS5_11BorderTypesEEESU_SS_EEEEEEEE = comdat any

$_ZTIN5boost6detail17sp_counted_impl_pINS0_11thread_dataINS_3_bi6bind_tIvPFiRKN2cv11_InputArrayERKNS5_12_OutputArrayENS5_5Size_IiEEibiibENS3_5list8INS_17reference_wrapperIKNS5_3MatEEENSH_ISt6vectorISI_SaISI_EEEENSH_ISD_EENSH_IiEENS3_5valueIbEENSR_INS5_11BorderTypesEEESU_SS_EEEEEEEE = comdat any

$_ZTVN5boost6detail11thread_dataINS_3_bi6bind_tIvNS_4_mfi3mf7IvN7ov_core8TrackKLTERKSt6vectorIN2cv3MatESaISA_EESE_RS8_INS9_8KeyPointESaISF_EESI_mmRS8_IhSaIhEEEENS2_5list8INS2_5valueIPS7_EENS_17reference_wrapperISD_EESS_NSR_ISH_EEST_NSO_ImEESU_NSR_ISK_EEEEEEEE = comdat any

$_ZTSN5boost6detail11thread_dataINS_3_bi6bind_tIvNS_4_mfi3mf7IvN7ov_core8TrackKLTERKSt6vectorIN2cv3MatESaISA_EESE_RS8_INS9_8KeyPointESaISF_EESI_mmRS8_IhSaIhEEEENS2_5list8INS2_5valueIPS7_EENS_17reference_wrapperISD_EESS_NSR_ISH_EEST_NSO_ImEESU_NSR_ISK_EEEEEEEE = comdat any

$_ZTIN5boost6detail11thread_dataINS_3_bi6bind_tIvNS_4_mfi3mf7IvN7ov_core8TrackKLTERKSt6vectorIN2cv3MatESaISA_EESE_RS8_INS9_8KeyPointESaISF_EESI_mmRS8_IhSaIhEEEENS2_5list8INS2_5valueIPS7_EENS_17reference_wrapperISD_EESS_NSR_ISH_EEST_NSO_ImEESU_NSR_ISK_EEEEEEEE = comdat any

$_ZTVN5boost6detail17sp_counted_impl_pINS0_11thread_dataINS_3_bi6bind_tIvNS_4_mfi3mf7IvN7ov_core8TrackKLTERKSt6vectorIN2cv3MatESaISB_EESF_RS9_INSA_8KeyPointESaISG_EESJ_mmRS9_IhSaIhEEEENS3_5list8INS3_5valueIPS8_EENS_17reference_wrapperISE_EEST_NSS_ISI_EESU_NSP_ImEESV_NSS_ISL_EEEEEEEEEE = comdat any

$_ZTSN5boost6detail17sp_counted_impl_pINS0_11thread_dataINS_3_bi6bind_tIvNS_4_mfi3mf7IvN7ov_core8TrackKLTERKSt6vectorIN2cv3MatESaISB_EESF_RS9_INSA_8KeyPointESaISG_EESJ_mmRS9_IhSaIhEEEENS3_5list8INS3_5valueIPS8_EENS_17reference_wrapperISE_EEST_NSS_ISI_EESU_NSP_ImEESV_NSS_ISL_EEEEEEEEEE = comdat any

$_ZTIN5boost6detail17sp_counted_impl_pINS0_11thread_dataINS_3_bi6bind_tIvNS_4_mfi3mf7IvN7ov_core8TrackKLTERKSt6vectorIN2cv3MatESaISB_EESF_RS9_INSA_8KeyPointESaISG_EESJ_mmRS9_IhSaIhEEEENS3_5list8INS3_5valueIPS8_EENS_17reference_wrapperISE_EEST_NSS_ISI_EESU_NSP_ImEESV_NSS_ISL_EEEEEEEEEE = comdat any

@_ZStL8__ioinit = internal global %"class.std::ios_base::Init" zeroinitializer, align 1
@__dso_handle = external hidden global i8
@_ZN5boost6systemL14posix_categoryE = internal unnamed_addr global %"class.boost::system::error_category"* null, align 8
@_ZN5boost6systemL10errno_ecatE = internal unnamed_addr global %"class.boost::system::error_category"* null, align 8
@_ZN5boost6systemL11native_ecatE = internal unnamed_addr global %"class.boost::system::error_category"* null, align 8
@.str = private unnamed_addr constant [3 x i8] c": \00", align 1
@_ZN12_GLOBAL__N_12_1E = internal global %"struct.boost::arg" zeroinitializer, align 1
@_ZN12_GLOBAL__N_12_2E = internal global %"struct.boost::arg.1" zeroinitializer, align 1
@_ZN12_GLOBAL__N_12_3E = internal global %"struct.boost::arg.3" zeroinitializer, align 1
@_ZN12_GLOBAL__N_12_4E = internal global %"struct.boost::arg.5" zeroinitializer, align 1
@_ZN12_GLOBAL__N_12_5E = internal global %"struct.boost::arg.7" zeroinitializer, align 1
@_ZN12_GLOBAL__N_12_6E = internal global %"struct.boost::arg.9" zeroinitializer, align 1
@_ZN12_GLOBAL__N_12_7E = internal global %"struct.boost::arg.11" zeroinitializer, align 1
@_ZN12_GLOBAL__N_12_8E = internal global %"struct.boost::arg.13" zeroinitializer, align 1
@_ZN12_GLOBAL__N_12_9E = internal global %"struct.boost::arg.15" zeroinitializer, align 1
@.str.13 = private unnamed_addr constant [84 x i8] c"\1B[31m[KLT-EXTRACTOR]: Failed to get enough points to do RANSAC, resetting.....\0A\1B[0m\00", align 1
@.str.14 = private unnamed_addr constant [83 x i8] c"\1B[31m[KLT-EXTRACTOR]: Failed to get enough points to do RANSAC, resetting.....\1B[0m\00", align 1
@.str.15 = private unnamed_addr constant [42 x i8] c"\1B[36m[TIME-KLT]: %.4f ms for pyramid\0A\1B[0m\00", align 1
@.str.16 = private unnamed_addr constant [44 x i8] c"\1B[36m[TIME-KLT]: %.4f ms for detection\0A\1B[0m\00", align 1
@.str.17 = private unnamed_addr constant [47 x i8] c"\1B[36m[TIME-KLT]: %.4f ms for temporal klt\0A\1B[0m\00", align 1
@.str.18 = private unnamed_addr constant [45 x i8] c"\1B[36m[TIME-KLT]: %.4f ms for stereo klt\0A\1B[0m\00", align 1
@.str.19 = private unnamed_addr constant [66 x i8] c"\1B[36m[TIME-KLT]: %.4f ms for feature DB update (%d features)\0A\1B[0m\00", align 1
@.str.20 = private unnamed_addr constant [40 x i8] c"\1B[36m[TIME-KLT]: %.4f ms for total\0A\1B[0m\00", align 1
@.str.21 = private unnamed_addr constant [46 x i8] c"\1B[37m[AVG-TIME-KLT]: %.4f ms for pyramid\0A\1B[0m\00", align 1
@.str.22 = private unnamed_addr constant [48 x i8] c"\1B[37m[AVG-TIME-KLT]: %.4f ms for detection\0A\1B[0m\00", align 1
@.str.23 = private unnamed_addr constant [47 x i8] c"\1B[37m[AVG-TIME-KLT]: %.4f ms for matching\0A\1B[0m\00", align 1
@.str.24 = private unnamed_addr constant [56 x i8] c"\1B[37m[AVG-TIME-KLT]: %.4f ms for feature DB update\0A\1B[0m\00", align 1
@.str.25 = private unnamed_addr constant [44 x i8] c"\1B[37m[AVG-TIME-KLT]: %.4f ms for total\0A\1B[0m\00", align 1
@.str.26 = private unnamed_addr constant [29 x i8] c"kpts0.size() == kpts1.size()\00", align 1
@.str.27 = private unnamed_addr constant [13 x i8] c"TrackKLT.cpp\00", align 1
@__PRETTY_FUNCTION__._ZN7ov_core8TrackKLT16perform_matchingERKSt6vectorIN2cv3MatESaIS3_EES7_RS1_INS2_8KeyPointESaIS8_EESB_mmRS1_IhSaIhEE = private unnamed_addr constant [207 x i8] c"void ov_core::TrackKLT::perform_matching(const std::vector<cv::Mat> &, const std::vector<cv::Mat> &, std::vector<cv::KeyPoint> &, std::vector<cv::KeyPoint> &, std::size_t, std::size_t, std::vector<uchar> &)\00", align 1
@_ZTVN5boost6system12system_errorE = linkonce_odr dso_local unnamed_addr constant { [5 x i8*] } { [5 x i8*] [i8* null, i8* bitcast ({ i8*, i8*, i8* }* @_ZTIN5boost6system12system_errorE to i8*), i8* bitcast (void (%"class.boost::system::system_error"*)* @_ZN5boost6system12system_errorD2Ev to i8*), i8* bitcast (void (%"class.boost::system::system_error"*)* @_ZN5boost6system12system_errorD0Ev to i8*), i8* bitcast (i8* (%"class.boost::system::system_error"*)* @_ZNK5boost6system12system_error4whatEv to i8*)] }, comdat, align 8
@_ZTVN10__cxxabiv120__si_class_type_infoE = external dso_local global i8*
@_ZTSN5boost6system12system_errorE = linkonce_odr dso_local constant [30 x i8] c"N5boost6system12system_errorE\00", comdat, align 1
@_ZTISt13runtime_error = external dso_local constant i8*
@_ZTIN5boost6system12system_errorE = linkonce_odr dso_local constant { i8*, i8*, i8* } { i8* bitcast (i8** getelementptr inbounds (i8*, i8** @_ZTVN10__cxxabiv120__si_class_type_infoE, i64 2) to i8*), i8* getelementptr inbounds ([30 x i8], [30 x i8]* @_ZTSN5boost6system12system_errorE, i32 0, i32 0), i8* bitcast (i8** @_ZTISt13runtime_error to i8*) }, comdat, align 8
@_ZTVN7ov_core8TrackKLTE = dso_local unnamed_addr constant { [6 x i8*] } { [6 x i8*] [i8* null, i8* bitcast ({ i8*, i8*, i8* }* @_ZTIN7ov_core8TrackKLTE to i8*), i8* bitcast (void (%"class.ov_core::TrackKLT"*, double, %"class.cv::Mat"*, i64)* @_ZN7ov_core8TrackKLT14feed_monocularEdRN2cv3MatEm to i8*), i8* bitcast (void (%"class.ov_core::TrackKLT"*, double, %"class.cv::Mat"*, %"class.cv::Mat"*, i64, i64)* @_ZN7ov_core8TrackKLT11feed_stereoEdRN2cv3MatES3_mm to i8*), i8* bitcast (void (%"class.ov_core::TrackBase"*, %"class.cv::Mat"*, i32, i32, i32, i32, i32, i32)* @_ZN7ov_core9TrackBase14display_activeERN2cv3MatEiiiiii to i8*), i8* bitcast (void (%"class.ov_core::TrackBase"*, %"class.cv::Mat"*, i32, i32, i32, i32, i32, i32)* @_ZN7ov_core9TrackBase15display_historyERN2cv3MatEiiiiii to i8*)] }, align 8
@_ZTSN7ov_core8TrackKLTE = dso_local constant [20 x i8] c"N7ov_core8TrackKLTE\00", align 1
@_ZTIN7ov_core9TrackBaseE = external dso_local constant i8*
@_ZTIN7ov_core8TrackKLTE = dso_local constant { i8*, i8*, i8* } { i8* bitcast (i8** getelementptr inbounds (i8*, i8** @_ZTVN10__cxxabiv120__si_class_type_infoE, i64 2) to i8*), i8* getelementptr inbounds ([20 x i8], [20 x i8]* @_ZTSN7ov_core8TrackKLTE, i32 0, i32 0), i8* bitcast (i8** @_ZTIN7ov_core9TrackBaseE to i8*) }, align 8
@.str.28 = private unnamed_addr constant [8 x i8] c"map::at\00", align 1
@_ZStL19piecewise_construct = internal constant %"struct.std::piecewise_construct_t" undef, align 1
@.str.29 = private unnamed_addr constant [399 x i8] c"(!(RowsAtCompileTime!=Dynamic) || (rows==RowsAtCompileTime)) && (!(ColsAtCompileTime!=Dynamic) || (cols==ColsAtCompileTime)) && (!(RowsAtCompileTime==Dynamic && MaxRowsAtCompileTime!=Dynamic) || (rows<=MaxRowsAtCompileTime)) && (!(ColsAtCompileTime==Dynamic && MaxColsAtCompileTime!=Dynamic) || (cols<=MaxColsAtCompileTime)) && rows>=0 && cols>=0 && \22Invalid sizes when resizing a matrix or array.\22\00", align 1
@.str.30 = private unnamed_addr constant [53 x i8] c"/usr/include/eigen3/Eigen/src/Core/PlainObjectBase.h\00", align 1
@__PRETTY_FUNCTION__._ZN5Eigen15PlainObjectBaseINS_6MatrixIfLin1ELi1ELi0ELin1ELi1EEEE6resizeEll = private unnamed_addr constant [154 x i8] c"void Eigen::PlainObjectBase<Eigen::Matrix<float, -1, 1, 0, -1, 1> >::resize(Eigen::Index, Eigen::Index) [Derived = Eigen::Matrix<float, -1, 1, 0, -1, 1>]\00", align 1
@.str.31 = private unnamed_addr constant [53 x i8] c"dst.rows() == src.rows() && dst.cols() == src.cols()\00", align 1
@.str.32 = private unnamed_addr constant [53 x i8] c"/usr/include/eigen3/Eigen/src/Core/AssignEvaluator.h\00", align 1
@__PRETTY_FUNCTION__._ZN5Eigen8internal10AssignmentINS_6MatrixIfLin1ELi1ELi0ELin1ELi1EEENS2_IfLi2ELi1ELi0ELi2ELi1EEENS0_9assign_opIfEENS0_11Dense2DenseEfE3runERS3_RKS4_RKS6_ = private unnamed_addr constant [445 x i8] c"static void Eigen::internal::Assignment<Eigen::Matrix<float, -1, 1, 0, -1, 1>, Eigen::Matrix<float, 2, 1, 0, 2, 1>, Eigen::internal::assign_op<float>, Eigen::internal::Dense2Dense, float>::run(DstXprType &, const SrcXprType &, const Functor &) [DstXprType = Eigen::Matrix<float, -1, 1, 0, -1, 1>, SrcXprType = Eigen::Matrix<float, 2, 1, 0, 2, 1>, Functor = Eigen::internal::assign_op<float>, Kind = Eigen::internal::Dense2Dense, Scalar = float]\00", align 1
@__PRETTY_FUNCTION__._ZN5Eigen8internal26call_dense_assignment_loopINS_6MatrixIfLin1ELi1ELi0ELin1ELi1EEENS2_IfLi2ELi1ELi0ELi2ELi1EEENS0_9assign_opIfEEEEvRKT_RKT0_RKT1_ = private unnamed_addr constant [254 x i8] c"void Eigen::internal::call_dense_assignment_loop(const DstXprType &, const SrcXprType &, const Functor &) [DstXprType = Eigen::Matrix<float, -1, 1, 0, -1, 1>, SrcXprType = Eigen::Matrix<float, 2, 1, 0, 2, 1>, Functor = Eigen::internal::assign_op<float>]\00", align 1
@.str.33 = private unnamed_addr constant [14 x i8] c"v == T(Value)\00", align 1
@.str.34 = private unnamed_addr constant [52 x i8] c"/usr/include/eigen3/Eigen/src/Core/util/XprHelper.h\00", align 1
@__PRETTY_FUNCTION__._ZN5Eigen8internal19variable_if_dynamicIlLi0EEC2El = private unnamed_addr constant [92 x i8] c"Eigen::internal::variable_if_dynamic<long, 0>::variable_if_dynamic(T) [T = long, Value = 0]\00", align 1
@.str.35 = private unnamed_addr constant [28 x i8] c"vector::_M_emplace_back_aux\00", align 1
@.str.36 = private unnamed_addr constant [36 x i8] c"boost thread: trying joining itself\00", align 1
@_ZTVN5boost21thread_resource_errorE = linkonce_odr dso_local unnamed_addr constant { [5 x i8*] } { [5 x i8*] [i8* null, i8* bitcast ({ i8*, i8*, i8* }* @_ZTIN5boost21thread_resource_errorE to i8*), i8* bitcast (void (%"class.boost::system::system_error"*)* @_ZN5boost6system12system_errorD2Ev to i8*), i8* bitcast (void (%"class.boost::thread_resource_error"*)* @_ZN5boost21thread_resource_errorD0Ev to i8*), i8* bitcast (i8* (%"class.boost::system::system_error"*)* @_ZNK5boost6system12system_error4whatEv to i8*)] }, comdat, align 8
@_ZTSN5boost21thread_resource_errorE = linkonce_odr dso_local constant [32 x i8] c"N5boost21thread_resource_errorE\00", comdat, align 1
@_ZTSN5boost16thread_exceptionE = linkonce_odr dso_local constant [27 x i8] c"N5boost16thread_exceptionE\00", comdat, align 1
@_ZTIN5boost16thread_exceptionE = linkonce_odr dso_local constant { i8*, i8*, i8* } { i8* bitcast (i8** getelementptr inbounds (i8*, i8** @_ZTVN10__cxxabiv120__si_class_type_infoE, i64 2) to i8*), i8* getelementptr inbounds ([27 x i8], [27 x i8]* @_ZTSN5boost16thread_exceptionE, i32 0, i32 0), i8* bitcast ({ i8*, i8*, i8* }* @_ZTIN5boost6system12system_errorE to i8*) }, comdat, align 8
@_ZTIN5boost21thread_resource_errorE = linkonce_odr dso_local constant { i8*, i8*, i8* } { i8* bitcast (i8** getelementptr inbounds (i8*, i8** @_ZTVN10__cxxabiv120__si_class_type_infoE, i64 2) to i8*), i8* getelementptr inbounds ([32 x i8], [32 x i8]* @_ZTSN5boost21thread_resource_errorE, i32 0, i32 0), i8* bitcast ({ i8*, i8*, i8* }* @_ZTIN5boost16thread_exceptionE to i8*) }, comdat, align 8
@_ZTVN5boost16thread_exceptionE = linkonce_odr dso_local unnamed_addr constant { [5 x i8*] } { [5 x i8*] [i8* null, i8* bitcast ({ i8*, i8*, i8* }* @_ZTIN5boost16thread_exceptionE to i8*), i8* bitcast (void (%"class.boost::system::system_error"*)* @_ZN5boost6system12system_errorD2Ev to i8*), i8* bitcast (void (%"class.boost::thread_exception"*)* @_ZN5boost16thread_exceptionD0Ev to i8*), i8* bitcast (i8* (%"class.boost::system::system_error"*)* @_ZNK5boost6system12system_error4whatEv to i8*)] }, comdat, align 8
@.str.37 = private unnamed_addr constant [11 x i8] c"size_x > 0\00", align 1
@.str.38 = private unnamed_addr constant [16 x i8] c"./Grider_FAST.h\00", align 1
@__PRETTY_FUNCTION__._ZN7ov_core11Grider_FAST15perform_gridingERKN2cv3MatERSt6vectorINS1_8KeyPointESaIS6_EEiiiib = private unnamed_addr constant [122 x i8] c"static void ov_core::Grider_FAST::perform_griding(const cv::Mat &, std::vector<cv::KeyPoint> &, int, int, int, int, bool)\00", align 1
@.str.39 = private unnamed_addr constant [11 x i8] c"size_y > 0\00", align 1
@_ZTVN2cv29ParallelLoopBodyLambdaWrapperE = linkonce_odr dso_local unnamed_addr constant { [5 x i8*] } { [5 x i8*] [i8* null, i8* bitcast ({ i8*, i8*, i8* }* @_ZTIN2cv29ParallelLoopBodyLambdaWrapperE to i8*), i8* bitcast (void (%"class.cv::ParallelLoopBodyLambdaWrapper"*)* @_ZN2cv29ParallelLoopBodyLambdaWrapperD2Ev to i8*), i8* bitcast (void (%"class.cv::ParallelLoopBodyLambdaWrapper"*)* @_ZN2cv29ParallelLoopBodyLambdaWrapperD0Ev to i8*), i8* bitcast (void (%"class.cv::ParallelLoopBodyLambdaWrapper"*, %"class.cv::Range"*)* @_ZNK2cv29ParallelLoopBodyLambdaWrapperclERKNS_5RangeE to i8*)] }, comdat, align 8
@_ZTSN2cv29ParallelLoopBodyLambdaWrapperE = linkonce_odr dso_local constant [37 x i8] c"N2cv29ParallelLoopBodyLambdaWrapperE\00", comdat, align 1
@_ZTIN2cv16ParallelLoopBodyE = external dso_local constant i8*
@_ZTIN2cv29ParallelLoopBodyLambdaWrapperE = linkonce_odr dso_local constant { i8*, i8*, i8* } { i8* bitcast (i8** getelementptr inbounds (i8*, i8** @_ZTVN10__cxxabiv120__si_class_type_infoE, i64 2) to i8*), i8* getelementptr inbounds ([37 x i8], [37 x i8]* @_ZTSN2cv29ParallelLoopBodyLambdaWrapperE, i32 0, i32 0), i8* bitcast (i8** @_ZTIN2cv16ParallelLoopBodyE to i8*) }, comdat, align 8
@_ZTVN2cv16ParallelLoopBodyE = available_externally dso_local unnamed_addr constant { [5 x i8*] } { [5 x i8*] [i8* null, i8* bitcast (i8** @_ZTIN2cv16ParallelLoopBodyE to i8*), i8* bitcast (void (%"class.cv::ParallelLoopBody"*)* @_ZN2cv16ParallelLoopBodyD1Ev to i8*), i8* bitcast (void (%"class.cv::ParallelLoopBody"*)* @_ZN2cv16ParallelLoopBodyD0Ev to i8*), i8* bitcast (void ()* @__cxa_pure_virtual to i8*)] }, align 8
@_ZTVN10__cxxabiv117__class_type_infoE = external dso_local global i8*
@_ZTSZN7ov_core11Grider_FAST15perform_gridingERKN2cv3MatERSt6vectorINS1_8KeyPointESaIS6_EEiiiibEUlRKNS1_5RangeEE_ = linkonce_odr dso_local constant [109 x i8] c"ZN7ov_core11Grider_FAST15perform_gridingERKN2cv3MatERSt6vectorINS1_8KeyPointESaIS6_EEiiiibEUlRKNS1_5RangeEE_\00", comdat, align 1
@_ZTIZN7ov_core11Grider_FAST15perform_gridingERKN2cv3MatERSt6vectorINS1_8KeyPointESaIS6_EEiiiibEUlRKNS1_5RangeEE_ = linkonce_odr dso_local constant { i8*, i8* } { i8* bitcast (i8** getelementptr inbounds (i8*, i8** @_ZTVN10__cxxabiv117__class_type_infoE, i64 2) to i8*), i8* getelementptr inbounds ([109 x i8], [109 x i8]* @_ZTSZN7ov_core11Grider_FAST15perform_gridingERKN2cv3MatERSt6vectorINS1_8KeyPointESaIS6_EEiiiibEUlRKNS1_5RangeEE_, i32 0, i32 0) }, comdat, align 8
@.str.40 = private unnamed_addr constant [24 x i8] c"vector::_M_range_insert\00", align 1
@.str.41 = private unnamed_addr constant [74 x i8] c"vector::_M_range_check: __n (which is %zu) >= this->size() (which is %zu)\00", align 1
@.str.42 = private unnamed_addr constant [21 x i8] c"basic_string::append\00", align 1
@.str.43 = private unnamed_addr constant [40 x i8] c"Year is out of valid range: 1400..10000\00", align 1
@_ZTVN5boost9gregorian8bad_yearE = linkonce_odr dso_local unnamed_addr constant { [5 x i8*] } { [5 x i8*] [i8* null, i8* bitcast ({ i8*, i8*, i8* }* @_ZTIN5boost9gregorian8bad_yearE to i8*), i8* bitcast (void (%"class.std::out_of_range"*)* @_ZNSt12out_of_rangeD2Ev to i8*), i8* bitcast (void (%"struct.boost::gregorian::bad_year"*)* @_ZN5boost9gregorian8bad_yearD0Ev to i8*), i8* bitcast (i8* (%"class.std::logic_error"*)* @_ZNKSt11logic_error4whatEv to i8*)] }, comdat, align 8
@_ZTSN5boost9gregorian8bad_yearE = linkonce_odr dso_local constant [28 x i8] c"N5boost9gregorian8bad_yearE\00", comdat, align 1
@_ZTISt12out_of_range = external dso_local constant i8*
@_ZTIN5boost9gregorian8bad_yearE = linkonce_odr dso_local constant { i8*, i8*, i8* } { i8* bitcast (i8** getelementptr inbounds (i8*, i8** @_ZTVN10__cxxabiv120__si_class_type_infoE, i64 2) to i8*), i8* getelementptr inbounds ([28 x i8], [28 x i8]* @_ZTSN5boost9gregorian8bad_yearE, i32 0, i32 0), i8* bitcast (i8** @_ZTISt12out_of_range to i8*) }, comdat, align 8
@.str.44 = private unnamed_addr constant [42 x i8] c"basic_string::_M_construct null not valid\00", align 1
@.str.45 = private unnamed_addr constant [35 x i8] c"Month number is out of range 1..12\00", align 1
@_ZTVN5boost9gregorian9bad_monthE = linkonce_odr dso_local unnamed_addr constant { [5 x i8*] } { [5 x i8*] [i8* null, i8* bitcast ({ i8*, i8*, i8* }* @_ZTIN5boost9gregorian9bad_monthE to i8*), i8* bitcast (void (%"class.std::out_of_range"*)* @_ZNSt12out_of_rangeD2Ev to i8*), i8* bitcast (void (%"struct.boost::gregorian::bad_month"*)* @_ZN5boost9gregorian9bad_monthD0Ev to i8*), i8* bitcast (i8* (%"class.std::logic_error"*)* @_ZNKSt11logic_error4whatEv to i8*)] }, comdat, align 8
@_ZTSN5boost9gregorian9bad_monthE = linkonce_odr dso_local constant [29 x i8] c"N5boost9gregorian9bad_monthE\00", comdat, align 1
@_ZTIN5boost9gregorian9bad_monthE = linkonce_odr dso_local constant { i8*, i8*, i8* } { i8* bitcast (i8** getelementptr inbounds (i8*, i8** @_ZTVN10__cxxabiv120__si_class_type_infoE, i64 2) to i8*), i8* getelementptr inbounds ([29 x i8], [29 x i8]* @_ZTSN5boost9gregorian9bad_monthE, i32 0, i32 0), i8* bitcast (i8** @_ZTISt12out_of_range to i8*) }, comdat, align 8
@.str.46 = private unnamed_addr constant [41 x i8] c"Day of month value is out of range 1..31\00", align 1
@_ZTVN5boost9gregorian16bad_day_of_monthE = linkonce_odr dso_local unnamed_addr constant { [5 x i8*] } { [5 x i8*] [i8* null, i8* bitcast ({ i8*, i8*, i8* }* @_ZTIN5boost9gregorian16bad_day_of_monthE to i8*), i8* bitcast (void (%"class.std::out_of_range"*)* @_ZNSt12out_of_rangeD2Ev to i8*), i8* bitcast (void (%"struct.boost::gregorian::bad_day_of_month"*)* @_ZN5boost9gregorian16bad_day_of_monthD0Ev to i8*), i8* bitcast (i8* (%"class.std::logic_error"*)* @_ZNKSt11logic_error4whatEv to i8*)] }, comdat, align 8
@_ZTSN5boost9gregorian16bad_day_of_monthE = linkonce_odr dso_local constant [37 x i8] c"N5boost9gregorian16bad_day_of_monthE\00", comdat, align 1
@_ZTIN5boost9gregorian16bad_day_of_monthE = linkonce_odr dso_local constant { i8*, i8*, i8* } { i8* bitcast (i8** getelementptr inbounds (i8*, i8** @_ZTVN10__cxxabiv120__si_class_type_infoE, i64 2) to i8*), i8* getelementptr inbounds ([37 x i8], [37 x i8]* @_ZTSN5boost9gregorian16bad_day_of_monthE, i32 0, i32 0), i8* bitcast (i8** @_ZTISt12out_of_range to i8*) }, comdat, align 8
@.str.47 = private unnamed_addr constant [35 x i8] c"Day of month is not valid for year\00", align 1
@.str.48 = private unnamed_addr constant [46 x i8] c"could not convert calendar time to local time\00", align 1
@_ZTVN5boost6detail11thread_dataINS_3_bi6bind_tIvPFvRKN2cv11_InputArrayERKNS4_12_OutputArrayEENS2_5list2INS_17reference_wrapperIKNS4_3MatEEENSE_ISF_EEEEEEEE = linkonce_odr dso_local unnamed_addr constant { [6 x i8*] } { [6 x i8*] [i8* null, i8* bitcast ({ i8*, i8*, i8* }* @_ZTIN5boost6detail11thread_dataINS_3_bi6bind_tIvPFvRKN2cv11_InputArrayERKNS4_12_OutputArrayEENS2_5list2INS_17reference_wrapperIKNS4_3MatEEENSE_ISF_EEEEEEEE to i8*), i8* bitcast (void (%"struct.boost::detail::thread_data_base"*)* @_ZN5boost6detail16thread_data_baseD2Ev to i8*), i8* bitcast (void (%"class.boost::detail::thread_data"*)* @_ZN5boost6detail11thread_dataINS_3_bi6bind_tIvPFvRKN2cv11_InputArrayERKNS4_12_OutputArrayEENS2_5list2INS_17reference_wrapperIKNS4_3MatEEENSE_ISF_EEEEEEED0Ev to i8*), i8* bitcast (void (%"class.boost::detail::thread_data"*)* @_ZN5boost6detail11thread_dataINS_3_bi6bind_tIvPFvRKN2cv11_InputArrayERKNS4_12_OutputArrayEENS2_5list2INS_17reference_wrapperIKNS4_3MatEEENSE_ISF_EEEEEEE3runEv to i8*), i8* bitcast (void (%"struct.boost::detail::thread_data_base"*, %"class.boost::condition_variable"*, %"class.boost::mutex"*)* @_ZN5boost6detail16thread_data_base25notify_all_at_thread_exitEPNS_18condition_variableEPNS_5mutexE to i8*)] }, comdat, align 8
@_ZTSN5boost6detail11thread_dataINS_3_bi6bind_tIvPFvRKN2cv11_InputArrayERKNS4_12_OutputArrayEENS2_5list2INS_17reference_wrapperIKNS4_3MatEEENSE_ISF_EEEEEEEE = linkonce_odr dso_local constant [152 x i8] c"N5boost6detail11thread_dataINS_3_bi6bind_tIvPFvRKN2cv11_InputArrayERKNS4_12_OutputArrayEENS2_5list2INS_17reference_wrapperIKNS4_3MatEEENSE_ISF_EEEEEEEE\00", comdat, align 1
@_ZTIN5boost6detail16thread_data_baseE = external dso_local constant i8*
@_ZTIN5boost6detail11thread_dataINS_3_bi6bind_tIvPFvRKN2cv11_InputArrayERKNS4_12_OutputArrayEENS2_5list2INS_17reference_wrapperIKNS4_3MatEEENSE_ISF_EEEEEEEE = linkonce_odr dso_local constant { i8*, i8*, i8* } { i8* bitcast (i8** getelementptr inbounds (i8*, i8** @_ZTVN10__cxxabiv120__si_class_type_infoE, i64 2) to i8*), i8* getelementptr inbounds ([152 x i8], [152 x i8]* @_ZTSN5boost6detail11thread_dataINS_3_bi6bind_tIvPFvRKN2cv11_InputArrayERKNS4_12_OutputArrayEENS2_5list2INS_17reference_wrapperIKNS4_3MatEEENSE_ISF_EEEEEEEE, i32 0, i32 0), i8* bitcast (i8** @_ZTIN5boost6detail16thread_data_baseE to i8*) }, comdat, align 8
@_ZTVN5boost6detail16thread_data_baseE = available_externally dso_local unnamed_addr constant { [6 x i8*] } { [6 x i8*] [i8* null, i8* bitcast (i8** @_ZTIN5boost6detail16thread_data_baseE to i8*), i8* bitcast (void (%"struct.boost::detail::thread_data_base"*)* @_ZN5boost6detail16thread_data_baseD1Ev to i8*), i8* bitcast (void (%"struct.boost::detail::thread_data_base"*)* @_ZN5boost6detail16thread_data_baseD0Ev to i8*), i8* bitcast (void ()* @__cxa_pure_virtual to i8*), i8* bitcast (void (%"struct.boost::detail::thread_data_base"*, %"class.boost::condition_variable"*, %"class.boost::mutex"*)* @_ZN5boost6detail16thread_data_base25notify_all_at_thread_exitEPNS_18condition_variableEPNS_5mutexE to i8*)] }, align 8
@.str.49 = private unnamed_addr constant [55 x i8] c"boost:: mutex constructor failed in pthread_mutex_init\00", align 1
@.str.50 = private unnamed_addr constant [89 x i8] c"boost::condition_variable::condition_variable() constructor failed in pthread_mutex_init\00", align 1
@.str.51 = private unnamed_addr constant [40 x i8] c"!pthread_mutex_destroy(&internal_mutex)\00", align 1
@.str.52 = private unnamed_addr constant [61 x i8] c"/usr/include/boost/thread/pthread/condition_variable_fwd.hpp\00", align 1
@__PRETTY_FUNCTION__._ZN5boost18condition_variableC2Ev = private unnamed_addr constant [48 x i8] c"boost::condition_variable::condition_variable()\00", align 1
@.str.53 = private unnamed_addr constant [88 x i8] c"boost::condition_variable::condition_variable() constructor failed in pthread_cond_init\00", align 1
@_ZTVN5boost6detail17sp_counted_impl_pINS0_11thread_dataINS_3_bi6bind_tIvPFvRKN2cv11_InputArrayERKNS5_12_OutputArrayEENS3_5list2INS_17reference_wrapperIKNS5_3MatEEENSF_ISG_EEEEEEEEEE = linkonce_odr dso_local unnamed_addr constant { [8 x i8*] } { [8 x i8*] [i8* null, i8* bitcast ({ i8*, i8*, i8* }* @_ZTIN5boost6detail17sp_counted_impl_pINS0_11thread_dataINS_3_bi6bind_tIvPFvRKN2cv11_InputArrayERKNS5_12_OutputArrayEENS3_5list2INS_17reference_wrapperIKNS5_3MatEEENSF_ISG_EEEEEEEEEE to i8*), i8* bitcast (void (%"class.boost::detail::sp_counted_base"*)* @_ZN5boost6detail15sp_counted_baseD2Ev to i8*), i8* bitcast (void (%"class.boost::detail::sp_counted_impl_p"*)* @_ZN5boost6detail17sp_counted_impl_pINS0_11thread_dataINS_3_bi6bind_tIvPFvRKN2cv11_InputArrayERKNS5_12_OutputArrayEENS3_5list2INS_17reference_wrapperIKNS5_3MatEEENSF_ISG_EEEEEEEEED0Ev to i8*), i8* bitcast (void (%"class.boost::detail::sp_counted_impl_p"*)* @_ZN5boost6detail17sp_counted_impl_pINS0_11thread_dataINS_3_bi6bind_tIvPFvRKN2cv11_InputArrayERKNS5_12_OutputArrayEENS3_5list2INS_17reference_wrapperIKNS5_3MatEEENSF_ISG_EEEEEEEEE7disposeEv to i8*), i8* bitcast (void (%"class.boost::detail::sp_counted_base"*)* @_ZN5boost6detail15sp_counted_base7destroyEv to i8*), i8* bitcast (i8* (%"class.boost::detail::sp_counted_impl_p"*, %"class.std::type_info"*)* @_ZN5boost6detail17sp_counted_impl_pINS0_11thread_dataINS_3_bi6bind_tIvPFvRKN2cv11_InputArrayERKNS5_12_OutputArrayEENS3_5list2INS_17reference_wrapperIKNS5_3MatEEENSF_ISG_EEEEEEEEE11get_deleterERKSt9type_info to i8*), i8* bitcast (i8* (%"class.boost::detail::sp_counted_impl_p"*)* @_ZN5boost6detail17sp_counted_impl_pINS0_11thread_dataINS_3_bi6bind_tIvPFvRKN2cv11_InputArrayERKNS5_12_OutputArrayEENS3_5list2INS_17reference_wrapperIKNS5_3MatEEENSF_ISG_EEEEEEEEE19get_untyped_deleterEv to i8*)] }, comdat, align 8
@_ZTSN5boost6detail17sp_counted_impl_pINS0_11thread_dataINS_3_bi6bind_tIvPFvRKN2cv11_InputArrayERKNS5_12_OutputArrayEENS3_5list2INS_17reference_wrapperIKNS5_3MatEEENSF_ISG_EEEEEEEEEE = linkonce_odr dso_local constant [178 x i8] c"N5boost6detail17sp_counted_impl_pINS0_11thread_dataINS_3_bi6bind_tIvPFvRKN2cv11_InputArrayERKNS5_12_OutputArrayEENS3_5list2INS_17reference_wrapperIKNS5_3MatEEENSF_ISG_EEEEEEEEEE\00", comdat, align 1
@_ZTSN5boost6detail15sp_counted_baseE = linkonce_odr dso_local constant [33 x i8] c"N5boost6detail15sp_counted_baseE\00", comdat, align 1
@_ZTIN5boost6detail15sp_counted_baseE = linkonce_odr dso_local constant { i8*, i8* } { i8* bitcast (i8** getelementptr inbounds (i8*, i8** @_ZTVN10__cxxabiv117__class_type_infoE, i64 2) to i8*), i8* getelementptr inbounds ([33 x i8], [33 x i8]* @_ZTSN5boost6detail15sp_counted_baseE, i32 0, i32 0) }, comdat, align 8
@_ZTIN5boost6detail17sp_counted_impl_pINS0_11thread_dataINS_3_bi6bind_tIvPFvRKN2cv11_InputArrayERKNS5_12_OutputArrayEENS3_5list2INS_17reference_wrapperIKNS5_3MatEEENSF_ISG_EEEEEEEEEE = linkonce_odr dso_local constant { i8*, i8*, i8* } { i8* bitcast (i8** getelementptr inbounds (i8*, i8** @_ZTVN10__cxxabiv120__si_class_type_infoE, i64 2) to i8*), i8* getelementptr inbounds ([178 x i8], [178 x i8]* @_ZTSN5boost6detail17sp_counted_impl_pINS0_11thread_dataINS_3_bi6bind_tIvPFvRKN2cv11_InputArrayERKNS5_12_OutputArrayEENS3_5list2INS_17reference_wrapperIKNS5_3MatEEENSF_ISG_EEEEEEEEEE, i32 0, i32 0), i8* bitcast ({ i8*, i8* }* @_ZTIN5boost6detail15sp_counted_baseE to i8*) }, comdat, align 8
@_ZTVN5boost6detail15sp_counted_baseE = linkonce_odr dso_local unnamed_addr constant { [8 x i8*] } { [8 x i8*] [i8* null, i8* bitcast ({ i8*, i8* }* @_ZTIN5boost6detail15sp_counted_baseE to i8*), i8* bitcast (void (%"class.boost::detail::sp_counted_base"*)* @_ZN5boost6detail15sp_counted_baseD2Ev to i8*), i8* bitcast (void (%"class.boost::detail::sp_counted_base"*)* @_ZN5boost6detail15sp_counted_baseD0Ev to i8*), i8* bitcast (void ()* @__cxa_pure_virtual to i8*), i8* bitcast (void (%"class.boost::detail::sp_counted_base"*)* @_ZN5boost6detail15sp_counted_base7destroyEv to i8*), i8* bitcast (void ()* @__cxa_pure_virtual to i8*), i8* bitcast (void ()* @__cxa_pure_virtual to i8*)] }, comdat, align 8
@.str.54 = private unnamed_addr constant [29 x i8] c"boost::thread_resource_error\00", align 1
@_ZTVN5boost6detail11thread_dataINS_3_bi6bind_tIvPFiRKN2cv11_InputArrayERKNS4_12_OutputArrayENS4_5Size_IiEEibiibENS2_5list8INS_17reference_wrapperIKNS4_3MatEEENSG_ISt6vectorISH_SaISH_EEEENSG_ISC_EENSG_IiEENS2_5valueIbEENSQ_INS4_11BorderTypesEEEST_SR_EEEEEE = linkonce_odr dso_local unnamed_addr constant { [6 x i8*] } { [6 x i8*] [i8* null, i8* bitcast ({ i8*, i8*, i8* }* @_ZTIN5boost6detail11thread_dataINS_3_bi6bind_tIvPFiRKN2cv11_InputArrayERKNS4_12_OutputArrayENS4_5Size_IiEEibiibENS2_5list8INS_17reference_wrapperIKNS4_3MatEEENSG_ISt6vectorISH_SaISH_EEEENSG_ISC_EENSG_IiEENS2_5valueIbEENSQ_INS4_11BorderTypesEEEST_SR_EEEEEE to i8*), i8* bitcast (void (%"struct.boost::detail::thread_data_base"*)* @_ZN5boost6detail16thread_data_baseD2Ev to i8*), i8* bitcast (void (%"class.boost::detail::thread_data.332"*)* @_ZN5boost6detail11thread_dataINS_3_bi6bind_tIvPFiRKN2cv11_InputArrayERKNS4_12_OutputArrayENS4_5Size_IiEEibiibENS2_5list8INS_17reference_wrapperIKNS4_3MatEEENSG_ISt6vectorISH_SaISH_EEEENSG_ISC_EENSG_IiEENS2_5valueIbEENSQ_INS4_11BorderTypesEEEST_SR_EEEEED0Ev to i8*), i8* bitcast (void (%"class.boost::detail::thread_data.332"*)* @_ZN5boost6detail11thread_dataINS_3_bi6bind_tIvPFiRKN2cv11_InputArrayERKNS4_12_OutputArrayENS4_5Size_IiEEibiibENS2_5list8INS_17reference_wrapperIKNS4_3MatEEENSG_ISt6vectorISH_SaISH_EEEENSG_ISC_EENSG_IiEENS2_5valueIbEENSQ_INS4_11BorderTypesEEEST_SR_EEEEE3runEv to i8*), i8* bitcast (void (%"struct.boost::detail::thread_data_base"*, %"class.boost::condition_variable"*, %"class.boost::mutex"*)* @_ZN5boost6detail16thread_data_base25notify_all_at_thread_exitEPNS_18condition_variableEPNS_5mutexE to i8*)] }, comdat, align 8
@_ZTSN5boost6detail11thread_dataINS_3_bi6bind_tIvPFiRKN2cv11_InputArrayERKNS4_12_OutputArrayENS4_5Size_IiEEibiibENS2_5list8INS_17reference_wrapperIKNS4_3MatEEENSG_ISt6vectorISH_SaISH_EEEENSG_ISC_EENSG_IiEENS2_5valueIbEENSQ_INS4_11BorderTypesEEEST_SR_EEEEEE = linkonce_odr dso_local constant [252 x i8] c"N5boost6detail11thread_dataINS_3_bi6bind_tIvPFiRKN2cv11_InputArrayERKNS4_12_OutputArrayENS4_5Size_IiEEibiibENS2_5list8INS_17reference_wrapperIKNS4_3MatEEENSG_ISt6vectorISH_SaISH_EEEENSG_ISC_EENSG_IiEENS2_5valueIbEENSQ_INS4_11BorderTypesEEEST_SR_EEEEEE\00", comdat, align 1
@_ZTIN5boost6detail11thread_dataINS_3_bi6bind_tIvPFiRKN2cv11_InputArrayERKNS4_12_OutputArrayENS4_5Size_IiEEibiibENS2_5list8INS_17reference_wrapperIKNS4_3MatEEENSG_ISt6vectorISH_SaISH_EEEENSG_ISC_EENSG_IiEENS2_5valueIbEENSQ_INS4_11BorderTypesEEEST_SR_EEEEEE = linkonce_odr dso_local constant { i8*, i8*, i8* } { i8* bitcast (i8** getelementptr inbounds (i8*, i8** @_ZTVN10__cxxabiv120__si_class_type_infoE, i64 2) to i8*), i8* getelementptr inbounds ([252 x i8], [252 x i8]* @_ZTSN5boost6detail11thread_dataINS_3_bi6bind_tIvPFiRKN2cv11_InputArrayERKNS4_12_OutputArrayENS4_5Size_IiEEibiibENS2_5list8INS_17reference_wrapperIKNS4_3MatEEENSG_ISt6vectorISH_SaISH_EEEENSG_ISC_EENSG_IiEENS2_5valueIbEENSQ_INS4_11BorderTypesEEEST_SR_EEEEEE, i32 0, i32 0), i8* bitcast (i8** @_ZTIN5boost6detail16thread_data_baseE to i8*) }, comdat, align 8
@_ZTVN5boost6detail17sp_counted_impl_pINS0_11thread_dataINS_3_bi6bind_tIvPFiRKN2cv11_InputArrayERKNS5_12_OutputArrayENS5_5Size_IiEEibiibENS3_5list8INS_17reference_wrapperIKNS5_3MatEEENSH_ISt6vectorISI_SaISI_EEEENSH_ISD_EENSH_IiEENS3_5valueIbEENSR_INS5_11BorderTypesEEESU_SS_EEEEEEEE = linkonce_odr dso_local unnamed_addr constant { [8 x i8*] } { [8 x i8*] [i8* null, i8* bitcast ({ i8*, i8*, i8* }* @_ZTIN5boost6detail17sp_counted_impl_pINS0_11thread_dataINS_3_bi6bind_tIvPFiRKN2cv11_InputArrayERKNS5_12_OutputArrayENS5_5Size_IiEEibiibENS3_5list8INS_17reference_wrapperIKNS5_3MatEEENSH_ISt6vectorISI_SaISI_EEEENSH_ISD_EENSH_IiEENS3_5valueIbEENSR_INS5_11BorderTypesEEESU_SS_EEEEEEEE to i8*), i8* bitcast (void (%"class.boost::detail::sp_counted_base"*)* @_ZN5boost6detail15sp_counted_baseD2Ev to i8*), i8* bitcast (void (%"class.boost::detail::sp_counted_impl_p.333"*)* @_ZN5boost6detail17sp_counted_impl_pINS0_11thread_dataINS_3_bi6bind_tIvPFiRKN2cv11_InputArrayERKNS5_12_OutputArrayENS5_5Size_IiEEibiibENS3_5list8INS_17reference_wrapperIKNS5_3MatEEENSH_ISt6vectorISI_SaISI_EEEENSH_ISD_EENSH_IiEENS3_5valueIbEENSR_INS5_11BorderTypesEEESU_SS_EEEEEEED0Ev to i8*), i8* bitcast (void (%"class.boost::detail::sp_counted_impl_p.333"*)* @_ZN5boost6detail17sp_counted_impl_pINS0_11thread_dataINS_3_bi6bind_tIvPFiRKN2cv11_InputArrayERKNS5_12_OutputArrayENS5_5Size_IiEEibiibENS3_5list8INS_17reference_wrapperIKNS5_3MatEEENSH_ISt6vectorISI_SaISI_EEEENSH_ISD_EENSH_IiEENS3_5valueIbEENSR_INS5_11BorderTypesEEESU_SS_EEEEEEE7disposeEv to i8*), i8* bitcast (void (%"class.boost::detail::sp_counted_base"*)* @_ZN5boost6detail15sp_counted_base7destroyEv to i8*), i8* bitcast (i8* (%"class.boost::detail::sp_counted_impl_p.333"*, %"class.std::type_info"*)* @_ZN5boost6detail17sp_counted_impl_pINS0_11thread_dataINS_3_bi6bind_tIvPFiRKN2cv11_InputArrayERKNS5_12_OutputArrayENS5_5Size_IiEEibiibENS3_5list8INS_17reference_wrapperIKNS5_3MatEEENSH_ISt6vectorISI_SaISI_EEEENSH_ISD_EENSH_IiEENS3_5valueIbEENSR_INS5_11BorderTypesEEESU_SS_EEEEEEE11get_deleterERKSt9type_info to i8*), i8* bitcast (i8* (%"class.boost::detail::sp_counted_impl_p.333"*)* @_ZN5boost6detail17sp_counted_impl_pINS0_11thread_dataINS_3_bi6bind_tIvPFiRKN2cv11_InputArrayERKNS5_12_OutputArrayENS5_5Size_IiEEibiibENS3_5list8INS_17reference_wrapperIKNS5_3MatEEENSH_ISt6vectorISI_SaISI_EEEENSH_ISD_EENSH_IiEENS3_5valueIbEENSR_INS5_11BorderTypesEEESU_SS_EEEEEEE19get_untyped_deleterEv to i8*)] }, comdat, align 8
@_ZTSN5boost6detail17sp_counted_impl_pINS0_11thread_dataINS_3_bi6bind_tIvPFiRKN2cv11_InputArrayERKNS5_12_OutputArrayENS5_5Size_IiEEibiibENS3_5list8INS_17reference_wrapperIKNS5_3MatEEENSH_ISt6vectorISI_SaISI_EEEENSH_ISD_EENSH_IiEENS3_5valueIbEENSR_INS5_11BorderTypesEEESU_SS_EEEEEEEE = linkonce_odr dso_local constant [278 x i8] c"N5boost6detail17sp_counted_impl_pINS0_11thread_dataINS_3_bi6bind_tIvPFiRKN2cv11_InputArrayERKNS5_12_OutputArrayENS5_5Size_IiEEibiibENS3_5list8INS_17reference_wrapperIKNS5_3MatEEENSH_ISt6vectorISI_SaISI_EEEENSH_ISD_EENSH_IiEENS3_5valueIbEENSR_INS5_11BorderTypesEEESU_SS_EEEEEEEE\00", comdat, align 1
@_ZTIN5boost6detail17sp_counted_impl_pINS0_11thread_dataINS_3_bi6bind_tIvPFiRKN2cv11_InputArrayERKNS5_12_OutputArrayENS5_5Size_IiEEibiibENS3_5list8INS_17reference_wrapperIKNS5_3MatEEENSH_ISt6vectorISI_SaISI_EEEENSH_ISD_EENSH_IiEENS3_5valueIbEENSR_INS5_11BorderTypesEEESU_SS_EEEEEEEE = linkonce_odr dso_local constant { i8*, i8*, i8* } { i8* bitcast (i8** getelementptr inbounds (i8*, i8** @_ZTVN10__cxxabiv120__si_class_type_infoE, i64 2) to i8*), i8* getelementptr inbounds ([278 x i8], [278 x i8]* @_ZTSN5boost6detail17sp_counted_impl_pINS0_11thread_dataINS_3_bi6bind_tIvPFiRKN2cv11_InputArrayERKNS5_12_OutputArrayENS5_5Size_IiEEibiibENS3_5list8INS_17reference_wrapperIKNS5_3MatEEENSH_ISt6vectorISI_SaISI_EEEENSH_ISD_EENSH_IiEENS3_5valueIbEENSR_INS5_11BorderTypesEEESU_SS_EEEEEEEE, i32 0, i32 0), i8* bitcast ({ i8*, i8* }* @_ZTIN5boost6detail15sp_counted_baseE to i8*) }, comdat, align 8
@_ZTVN5boost6detail11thread_dataINS_3_bi6bind_tIvNS_4_mfi3mf7IvN7ov_core8TrackKLTERKSt6vectorIN2cv3MatESaISA_EESE_RS8_INS9_8KeyPointESaISF_EESI_mmRS8_IhSaIhEEEENS2_5list8INS2_5valueIPS7_EENS_17reference_wrapperISD_EESS_NSR_ISH_EEST_NSO_ImEESU_NSR_ISK_EEEEEEEE = linkonce_odr dso_local unnamed_addr constant { [6 x i8*] } { [6 x i8*] [i8* null, i8* bitcast ({ i8*, i8*, i8* }* @_ZTIN5boost6detail11thread_dataINS_3_bi6bind_tIvNS_4_mfi3mf7IvN7ov_core8TrackKLTERKSt6vectorIN2cv3MatESaISA_EESE_RS8_INS9_8KeyPointESaISF_EESI_mmRS8_IhSaIhEEEENS2_5list8INS2_5valueIPS7_EENS_17reference_wrapperISD_EESS_NSR_ISH_EEST_NSO_ImEESU_NSR_ISK_EEEEEEEE to i8*), i8* bitcast (void (%"struct.boost::detail::thread_data_base"*)* @_ZN5boost6detail16thread_data_baseD2Ev to i8*), i8* bitcast (void (%"class.boost::detail::thread_data.349"*)* @_ZN5boost6detail11thread_dataINS_3_bi6bind_tIvNS_4_mfi3mf7IvN7ov_core8TrackKLTERKSt6vectorIN2cv3MatESaISA_EESE_RS8_INS9_8KeyPointESaISF_EESI_mmRS8_IhSaIhEEEENS2_5list8INS2_5valueIPS7_EENS_17reference_wrapperISD_EESS_NSR_ISH_EEST_NSO_ImEESU_NSR_ISK_EEEEEEED0Ev to i8*), i8* bitcast (void (%"class.boost::detail::thread_data.349"*)* @_ZN5boost6detail11thread_dataINS_3_bi6bind_tIvNS_4_mfi3mf7IvN7ov_core8TrackKLTERKSt6vectorIN2cv3MatESaISA_EESE_RS8_INS9_8KeyPointESaISF_EESI_mmRS8_IhSaIhEEEENS2_5list8INS2_5valueIPS7_EENS_17reference_wrapperISD_EESS_NSR_ISH_EEST_NSO_ImEESU_NSR_ISK_EEEEEEE3runEv to i8*), i8* bitcast (void (%"struct.boost::detail::thread_data_base"*, %"class.boost::condition_variable"*, %"class.boost::mutex"*)* @_ZN5boost6detail16thread_data_base25notify_all_at_thread_exitEPNS_18condition_variableEPNS_5mutexE to i8*)] }, comdat, align 8
@_ZTSN5boost6detail11thread_dataINS_3_bi6bind_tIvNS_4_mfi3mf7IvN7ov_core8TrackKLTERKSt6vectorIN2cv3MatESaISA_EESE_RS8_INS9_8KeyPointESaISF_EESI_mmRS8_IhSaIhEEEENS2_5list8INS2_5valueIPS7_EENS_17reference_wrapperISD_EESS_NSR_ISH_EEST_NSO_ImEESU_NSR_ISK_EEEEEEEE = linkonce_odr dso_local constant [255 x i8] c"N5boost6detail11thread_dataINS_3_bi6bind_tIvNS_4_mfi3mf7IvN7ov_core8TrackKLTERKSt6vectorIN2cv3MatESaISA_EESE_RS8_INS9_8KeyPointESaISF_EESI_mmRS8_IhSaIhEEEENS2_5list8INS2_5valueIPS7_EENS_17reference_wrapperISD_EESS_NSR_ISH_EEST_NSO_ImEESU_NSR_ISK_EEEEEEEE\00", comdat, align 1
@_ZTIN5boost6detail11thread_dataINS_3_bi6bind_tIvNS_4_mfi3mf7IvN7ov_core8TrackKLTERKSt6vectorIN2cv3MatESaISA_EESE_RS8_INS9_8KeyPointESaISF_EESI_mmRS8_IhSaIhEEEENS2_5list8INS2_5valueIPS7_EENS_17reference_wrapperISD_EESS_NSR_ISH_EEST_NSO_ImEESU_NSR_ISK_EEEEEEEE = linkonce_odr dso_local constant { i8*, i8*, i8* } { i8* bitcast (i8** getelementptr inbounds (i8*, i8** @_ZTVN10__cxxabiv120__si_class_type_infoE, i64 2) to i8*), i8* getelementptr inbounds ([255 x i8], [255 x i8]* @_ZTSN5boost6detail11thread_dataINS_3_bi6bind_tIvNS_4_mfi3mf7IvN7ov_core8TrackKLTERKSt6vectorIN2cv3MatESaISA_EESE_RS8_INS9_8KeyPointESaISF_EESI_mmRS8_IhSaIhEEEENS2_5list8INS2_5valueIPS7_EENS_17reference_wrapperISD_EESS_NSR_ISH_EEST_NSO_ImEESU_NSR_ISK_EEEEEEEE, i32 0, i32 0), i8* bitcast (i8** @_ZTIN5boost6detail16thread_data_baseE to i8*) }, comdat, align 8
@_ZTVN5boost6detail17sp_counted_impl_pINS0_11thread_dataINS_3_bi6bind_tIvNS_4_mfi3mf7IvN7ov_core8TrackKLTERKSt6vectorIN2cv3MatESaISB_EESF_RS9_INSA_8KeyPointESaISG_EESJ_mmRS9_IhSaIhEEEENS3_5list8INS3_5valueIPS8_EENS_17reference_wrapperISE_EEST_NSS_ISI_EESU_NSP_ImEESV_NSS_ISL_EEEEEEEEEE = linkonce_odr dso_local unnamed_addr constant { [8 x i8*] } { [8 x i8*] [i8* null, i8* bitcast ({ i8*, i8*, i8* }* @_ZTIN5boost6detail17sp_counted_impl_pINS0_11thread_dataINS_3_bi6bind_tIvNS_4_mfi3mf7IvN7ov_core8TrackKLTERKSt6vectorIN2cv3MatESaISB_EESF_RS9_INSA_8KeyPointESaISG_EESJ_mmRS9_IhSaIhEEEENS3_5list8INS3_5valueIPS8_EENS_17reference_wrapperISE_EEST_NSS_ISI_EESU_NSP_ImEESV_NSS_ISL_EEEEEEEEEE to i8*), i8* bitcast (void (%"class.boost::detail::sp_counted_base"*)* @_ZN5boost6detail15sp_counted_baseD2Ev to i8*), i8* bitcast (void (%"class.boost::detail::sp_counted_impl_p.350"*)* @_ZN5boost6detail17sp_counted_impl_pINS0_11thread_dataINS_3_bi6bind_tIvNS_4_mfi3mf7IvN7ov_core8TrackKLTERKSt6vectorIN2cv3MatESaISB_EESF_RS9_INSA_8KeyPointESaISG_EESJ_mmRS9_IhSaIhEEEENS3_5list8INS3_5valueIPS8_EENS_17reference_wrapperISE_EEST_NSS_ISI_EESU_NSP_ImEESV_NSS_ISL_EEEEEEEEED0Ev to i8*), i8* bitcast (void (%"class.boost::detail::sp_counted_impl_p.350"*)* @_ZN5boost6detail17sp_counted_impl_pINS0_11thread_dataINS_3_bi6bind_tIvNS_4_mfi3mf7IvN7ov_core8TrackKLTERKSt6vectorIN2cv3MatESaISB_EESF_RS9_INSA_8KeyPointESaISG_EESJ_mmRS9_IhSaIhEEEENS3_5list8INS3_5valueIPS8_EENS_17reference_wrapperISE_EEST_NSS_ISI_EESU_NSP_ImEESV_NSS_ISL_EEEEEEEEE7disposeEv to i8*), i8* bitcast (void (%"class.boost::detail::sp_counted_base"*)* @_ZN5boost6detail15sp_counted_base7destroyEv to i8*), i8* bitcast (i8* (%"class.boost::detail::sp_counted_impl_p.350"*, %"class.std::type_info"*)* @_ZN5boost6detail17sp_counted_impl_pINS0_11thread_dataINS_3_bi6bind_tIvNS_4_mfi3mf7IvN7ov_core8TrackKLTERKSt6vectorIN2cv3MatESaISB_EESF_RS9_INSA_8KeyPointESaISG_EESJ_mmRS9_IhSaIhEEEENS3_5list8INS3_5valueIPS8_EENS_17reference_wrapperISE_EEST_NSS_ISI_EESU_NSP_ImEESV_NSS_ISL_EEEEEEEEE11get_deleterERKSt9type_info to i8*), i8* bitcast (i8* (%"class.boost::detail::sp_counted_impl_p.350"*)* @_ZN5boost6detail17sp_counted_impl_pINS0_11thread_dataINS_3_bi6bind_tIvNS_4_mfi3mf7IvN7ov_core8TrackKLTERKSt6vectorIN2cv3MatESaISB_EESF_RS9_INSA_8KeyPointESaISG_EESJ_mmRS9_IhSaIhEEEENS3_5list8INS3_5valueIPS8_EENS_17reference_wrapperISE_EEST_NSS_ISI_EESU_NSP_ImEESV_NSS_ISL_EEEEEEEEE19get_untyped_deleterEv to i8*)] }, comdat, align 8
@_ZTSN5boost6detail17sp_counted_impl_pINS0_11thread_dataINS_3_bi6bind_tIvNS_4_mfi3mf7IvN7ov_core8TrackKLTERKSt6vectorIN2cv3MatESaISB_EESF_RS9_INSA_8KeyPointESaISG_EESJ_mmRS9_IhSaIhEEEENS3_5list8INS3_5valueIPS8_EENS_17reference_wrapperISE_EEST_NSS_ISI_EESU_NSP_ImEESV_NSS_ISL_EEEEEEEEEE = linkonce_odr dso_local constant [281 x i8] c"N5boost6detail17sp_counted_impl_pINS0_11thread_dataINS_3_bi6bind_tIvNS_4_mfi3mf7IvN7ov_core8TrackKLTERKSt6vectorIN2cv3MatESaISB_EESF_RS9_INSA_8KeyPointESaISG_EESJ_mmRS9_IhSaIhEEEENS3_5list8INS3_5valueIPS8_EENS_17reference_wrapperISE_EEST_NSS_ISI_EESU_NSP_ImEESV_NSS_ISL_EEEEEEEEEE\00", comdat, align 1
@_ZTIN5boost6detail17sp_counted_impl_pINS0_11thread_dataINS_3_bi6bind_tIvNS_4_mfi3mf7IvN7ov_core8TrackKLTERKSt6vectorIN2cv3MatESaISB_EESF_RS9_INSA_8KeyPointESaISG_EESJ_mmRS9_IhSaIhEEEENS3_5list8INS3_5valueIPS8_EENS_17reference_wrapperISE_EEST_NSS_ISI_EESU_NSP_ImEESV_NSS_ISL_EEEEEEEEEE = linkonce_odr dso_local constant { i8*, i8*, i8* } { i8* bitcast (i8** getelementptr inbounds (i8*, i8** @_ZTVN10__cxxabiv120__si_class_type_infoE, i64 2) to i8*), i8* getelementptr inbounds ([281 x i8], [281 x i8]* @_ZTSN5boost6detail17sp_counted_impl_pINS0_11thread_dataINS_3_bi6bind_tIvNS_4_mfi3mf7IvN7ov_core8TrackKLTERKSt6vectorIN2cv3MatESaISB_EESF_RS9_INSA_8KeyPointESaISG_EESJ_mmRS9_IhSaIhEEEENS3_5list8INS3_5valueIPS8_EENS_17reference_wrapperISE_EEST_NSS_ISI_EESU_NSP_ImEESV_NSS_ISL_EEEEEEEEEE, i32 0, i32 0), i8* bitcast ({ i8*, i8* }* @_ZTIN5boost6detail15sp_counted_baseE to i8*) }, comdat, align 8
@.str.55 = private unnamed_addr constant [149 x i8] c"rows >= 0 && (RowsAtCompileTime == Dynamic || RowsAtCompileTime == rows) && cols >= 0 && (ColsAtCompileTime == Dynamic || ColsAtCompileTime == cols)\00", align 1
@.str.56 = private unnamed_addr constant [52 x i8] c"/usr/include/eigen3/Eigen/src/Core/CwiseNullaryOp.h\00", align 1
@__PRETTY_FUNCTION__._ZN5Eigen14CwiseNullaryOpINS_8internal18scalar_constant_opIiEENS_6MatrixIiLin1ELin1ELi0ELin1ELin1EEEEC2EllRKS3_ = private unnamed_addr constant [274 x i8] c"Eigen::CwiseNullaryOp<Eigen::internal::scalar_constant_op<int>, Eigen::Matrix<int, -1, -1, 0, -1, -1> >::CwiseNullaryOp(Eigen::Index, Eigen::Index, const NullaryOp &) [NullaryOp = Eigen::internal::scalar_constant_op<int>, MatrixType = Eigen::Matrix<int, -1, -1, 0, -1, -1>]\00", align 1
@__PRETTY_FUNCTION__._ZN5Eigen15PlainObjectBaseINS_6MatrixIiLin1ELin1ELi0ELin1ELin1EEEE6resizeEll = private unnamed_addr constant [154 x i8] c"void Eigen::PlainObjectBase<Eigen::Matrix<int, -1, -1, 0, -1, -1> >::resize(Eigen::Index, Eigen::Index) [Derived = Eigen::Matrix<int, -1, -1, 0, -1, -1>]\00", align 1
@__PRETTY_FUNCTION__._ZN5Eigen8internal10AssignmentINS_6MatrixIiLin1ELin1ELi0ELin1ELin1EEENS_14CwiseNullaryOpINS0_18scalar_constant_opIiEES3_EENS0_9assign_opIiEENS0_11Dense2DenseEiE3runERS3_RKS7_RKS9_ = private unnamed_addr constant [573 x i8] c"static void Eigen::internal::Assignment<Eigen::Matrix<int, -1, -1, 0, -1, -1>, Eigen::CwiseNullaryOp<Eigen::internal::scalar_constant_op<int>, Eigen::Matrix<int, -1, -1, 0, -1, -1> >, Eigen::internal::assign_op<int>, Eigen::internal::Dense2Dense, int>::run(DstXprType &, const SrcXprType &, const Functor &) [DstXprType = Eigen::Matrix<int, -1, -1, 0, -1, -1>, SrcXprType = Eigen::CwiseNullaryOp<Eigen::internal::scalar_constant_op<int>, Eigen::Matrix<int, -1, -1, 0, -1, -1> >, Functor = Eigen::internal::assign_op<int>, Kind = Eigen::internal::Dense2Dense, Scalar = int]\00", align 1
@__PRETTY_FUNCTION__._ZN5Eigen8internal26call_dense_assignment_loopINS_6MatrixIiLin1ELin1ELi0ELin1ELin1EEENS_14CwiseNullaryOpINS0_18scalar_constant_opIiEES3_EENS0_9assign_opIiEEEEvRKT_RKT0_RKT1_ = private unnamed_addr constant [320 x i8] c"void Eigen::internal::call_dense_assignment_loop(const DstXprType &, const SrcXprType &, const Functor &) [DstXprType = Eigen::Matrix<int, -1, -1, 0, -1, -1>, SrcXprType = Eigen::CwiseNullaryOp<Eigen::internal::scalar_constant_op<int>, Eigen::Matrix<int, -1, -1, 0, -1, -1> >, Functor = Eigen::internal::assign_op<int>]\00", align 1
@.str.57 = private unnamed_addr constant [53 x i8] c"row >= 0 && row < rows() && col >= 0 && col < cols()\00", align 1
@.str.58 = private unnamed_addr constant [53 x i8] c"/usr/include/eigen3/Eigen/src/Core/DenseCoeffsBase.h\00", align 1
@__PRETTY_FUNCTION__._ZN5Eigen15DenseCoeffsBaseINS_6MatrixIiLin1ELin1ELi0ELin1ELin1EEELi1EEclEll = private unnamed_addr constant [221 x i8] c"Eigen::DenseCoeffsBase<type-parameter-0-0, 1>::Scalar &Eigen::DenseCoeffsBase<Eigen::Matrix<int, -1, -1, 0, -1, -1>, 1>::operator()(Eigen::Index, Eigen::Index) [Derived = Eigen::Matrix<int, -1, -1, 0, -1, -1>, Level = 1]\00", align 1
@llvm.global_ctors = appending global [1 x { i32, void ()*, i8* }] [{ i32, void ()*, i8* } { i32 65535, void ()* @_GLOBAL__sub_I_TrackKLT.cpp, i8* null }]

; Function Attrs: nounwind uwtable
define internal fastcc void @__cxx_global_var_init() unnamed_addr #0 section ".text.startup" {
entry:
  tail call void @_ZNSt8ios_base4InitC1Ev(%"class.std::ios_base::Init"* nonnull @_ZStL8__ioinit) #18
  %0 = tail call i32 @__cxa_atexit(void (i8*)* bitcast (void (%"class.std::ios_base::Init"*)* @_ZNSt8ios_base4InitD1Ev to void (i8*)*), i8* getelementptr inbounds (%"class.std::ios_base::Init", %"class.std::ios_base::Init"* @_ZStL8__ioinit, i64 0, i32 0), i8* nonnull @__dso_handle) #18
  ret void
}

declare dso_local void @_ZNSt8ios_base4InitC1Ev(%"class.std::ios_base::Init"*) unnamed_addr #1

; Function Attrs: nounwind
declare dso_local void @_ZNSt8ios_base4InitD1Ev(%"class.std::ios_base::Init"*) unnamed_addr #2

; Function Attrs: nofree nounwind
declare dso_local i32 @__cxa_atexit(void (i8*)*, i8*, i8*) local_unnamed_addr #3

; Function Attrs: nounwind uwtable
define internal fastcc void @__cxx_global_var_init.1() unnamed_addr #0 section ".text.startup" {
entry:
  %call = tail call dereferenceable(8) %"class.boost::system::error_category"* @_ZN5boost6system16generic_categoryEv() #18
  store %"class.boost::system::error_category"* %call, %"class.boost::system::error_category"** @_ZN5boost6systemL14posix_categoryE, align 8, !tbaa !2
  ret void
}

; Function Attrs: nounwind
declare dso_local dereferenceable(8) %"class.boost::system::error_category"* @_ZN5boost6system16generic_categoryEv() local_unnamed_addr #2

; Function Attrs: nounwind uwtable
define internal fastcc void @__cxx_global_var_init.2() unnamed_addr #0 section ".text.startup" {
entry:
  %call = tail call dereferenceable(8) %"class.boost::system::error_category"* @_ZN5boost6system16generic_categoryEv() #18
  store %"class.boost::system::error_category"* %call, %"class.boost::system::error_category"** @_ZN5boost6systemL10errno_ecatE, align 8, !tbaa !2
  ret void
}

; Function Attrs: nounwind uwtable
define internal fastcc void @__cxx_global_var_init.3() unnamed_addr #0 section ".text.startup" {
entry:
  %call = tail call dereferenceable(8) %"class.boost::system::error_category"* @_ZN5boost6system15system_categoryEv() #18
  store %"class.boost::system::error_category"* %call, %"class.boost::system::error_category"** @_ZN5boost6systemL11native_ecatE, align 8, !tbaa !2
  ret void
}

; Function Attrs: nounwind
declare dso_local dereferenceable(8) %"class.boost::system::error_category"* @_ZN5boost6system15system_categoryEv() local_unnamed_addr #2

; Function Attrs: inlinehint nounwind uwtable
define linkonce_odr dso_local i8* @_ZNK5boost6system12system_error4whatEv(%"class.boost::system::system_error"* %this) unnamed_addr #4 comdat align 2 {
entry:
  %ref.tmp = alloca %"class.std::__cxx11::basic_string", align 8
  %m_what = getelementptr inbounds %"class.boost::system::system_error", %"class.boost::system::system_error"* %this, i64 0, i32 2
  %call = tail call zeroext i1 @_ZNKSt7__cxx1112basic_stringIcSt11char_traitsIcESaIcEE5emptyEv(%"class.std::__cxx11::basic_string"* nonnull %m_what) #18
  br i1 %call, label %if.then, label %if.end12

if.then:                                          ; preds = %entry
  %0 = getelementptr inbounds %"class.boost::system::system_error", %"class.boost::system::system_error"* %this, i64 0, i32 0
  %call2 = tail call i8* @_ZNKSt13runtime_error4whatEv(%"class.std::runtime_error"* %0) #18
  %call4 = tail call dereferenceable(32) %"class.std::__cxx11::basic_string"* @_ZNSt7__cxx1112basic_stringIcSt11char_traitsIcESaIcEEaSEPKc(%"class.std::__cxx11::basic_string"* nonnull %m_what, i8* %call2)
  %call6 = tail call zeroext i1 @_ZNKSt7__cxx1112basic_stringIcSt11char_traitsIcESaIcEE5emptyEv(%"class.std::__cxx11::basic_string"* nonnull %m_what) #18
  br i1 %call6, label %if.end, label %if.then7

if.then7:                                         ; preds = %if.then
  %call9 = tail call dereferenceable(32) %"class.std::__cxx11::basic_string"* @_ZNSt7__cxx1112basic_stringIcSt11char_traitsIcESaIcEEpLEPKc(%"class.std::__cxx11::basic_string"* nonnull %m_what, i8* getelementptr inbounds ([3 x i8], [3 x i8]* @.str, i64 0, i64 0))
  br label %if.end

if.end:                                           ; preds = %if.then7, %if.then
  %1 = bitcast %"class.std::__cxx11::basic_string"* %ref.tmp to i8*
  call void @llvm.lifetime.start.p0i8(i64 32, i8* nonnull %1) #18
  %m_error_code = getelementptr inbounds %"class.boost::system::system_error", %"class.boost::system::system_error"* %this, i64 0, i32 1
  call void @_ZNK5boost6system10error_code7messageB5cxx11Ev(%"class.std::__cxx11::basic_string"* nonnull sret %ref.tmp, %"class.boost::system::error_code"* nonnull %m_error_code)
  %call11 = call dereferenceable(32) %"class.std::__cxx11::basic_string"* @_ZNSt7__cxx1112basic_stringIcSt11char_traitsIcESaIcEEpLERKS4_(%"class.std::__cxx11::basic_string"* nonnull %m_what, %"class.std::__cxx11::basic_string"* nonnull dereferenceable(32) %ref.tmp)
  call void @_ZNSt7__cxx1112basic_stringIcSt11char_traitsIcESaIcEED2Ev(%"class.std::__cxx11::basic_string"* nonnull %ref.tmp) #18
  call void @llvm.lifetime.end.p0i8(i64 32, i8* nonnull %1) #18
  br label %if.end12

if.end12:                                         ; preds = %if.end, %entry
  %call14 = call i8* @_ZNKSt7__cxx1112basic_stringIcSt11char_traitsIcESaIcEE5c_strEv(%"class.std::__cxx11::basic_string"* nonnull %m_what) #18
  ret i8* %call14
}

; Function Attrs: nounwind uwtable
define available_externally dso_local zeroext i1 @_ZNKSt7__cxx1112basic_stringIcSt11char_traitsIcESaIcEE5emptyEv(%"class.std::__cxx11::basic_string"* %this) local_unnamed_addr #0 align 2 {
entry:
  %call = tail call i64 @_ZNKSt7__cxx1112basic_stringIcSt11char_traitsIcESaIcEE4sizeEv(%"class.std::__cxx11::basic_string"* %this) #18
  %cmp = icmp eq i64 %call, 0
  ret i1 %cmp
}

; Function Attrs: nounwind
declare dso_local i8* @_ZNKSt13runtime_error4whatEv(%"class.std::runtime_error"*) unnamed_addr #2

; Function Attrs: nounwind uwtable
define available_externally dso_local dereferenceable(32) %"class.std::__cxx11::basic_string"* @_ZNSt7__cxx1112basic_stringIcSt11char_traitsIcESaIcEEaSEPKc(%"class.std::__cxx11::basic_string"* %this, i8* %__s) local_unnamed_addr #0 align 2 {
entry:
  %call = tail call dereferenceable(32) %"class.std::__cxx11::basic_string"* @_ZNSt7__cxx1112basic_stringIcSt11char_traitsIcESaIcEE6assignEPKc(%"class.std::__cxx11::basic_string"* %this, i8* %__s)
  ret %"class.std::__cxx11::basic_string"* %call
}

; Function Attrs: nounwind uwtable
define available_externally dso_local dereferenceable(32) %"class.std::__cxx11::basic_string"* @_ZNSt7__cxx1112basic_stringIcSt11char_traitsIcESaIcEEpLEPKc(%"class.std::__cxx11::basic_string"* %this, i8* %__s) local_unnamed_addr #0 align 2 {
entry:
  %call = tail call dereferenceable(32) %"class.std::__cxx11::basic_string"* @_ZNSt7__cxx1112basic_stringIcSt11char_traitsIcESaIcEE6appendEPKc(%"class.std::__cxx11::basic_string"* %this, i8* %__s)
  ret %"class.std::__cxx11::basic_string"* %call
}

; Function Attrs: argmemonly nounwind
declare void @llvm.lifetime.start.p0i8(i64 immarg, i8* nocapture) #5

; Function Attrs: nounwind uwtable
define linkonce_odr dso_local void @_ZNK5boost6system10error_code7messageB5cxx11Ev(%"class.std::__cxx11::basic_string"* noalias sret %agg.result, %"class.boost::system::error_code"* %this) local_unnamed_addr #0 comdat align 2 {
entry:
  %m_cat = getelementptr inbounds %"class.boost::system::error_code", %"class.boost::system::error_code"* %this, i64 0, i32 1
  %0 = load %"class.boost::system::error_category"*, %"class.boost::system::error_category"** %m_cat, align 8, !tbaa !6
  %call = tail call i32 @_ZNK5boost6system10error_code5valueEv(%"class.boost::system::error_code"* %this) #18
  %1 = bitcast %"class.boost::system::error_category"* %0 to void (%"class.std::__cxx11::basic_string"*, %"class.boost::system::error_category"*, i32)***
  %vtable = load void (%"class.std::__cxx11::basic_string"*, %"class.boost::system::error_category"*, i32)**, void (%"class.std::__cxx11::basic_string"*, %"class.boost::system::error_category"*, i32)*** %1, align 8, !tbaa !9
  %vfn = getelementptr inbounds void (%"class.std::__cxx11::basic_string"*, %"class.boost::system::error_category"*, i32)*, void (%"class.std::__cxx11::basic_string"*, %"class.boost::system::error_category"*, i32)** %vtable, i64 3
  %2 = load void (%"class.std::__cxx11::basic_string"*, %"class.boost::system::error_category"*, i32)*, void (%"class.std::__cxx11::basic_string"*, %"class.boost::system::error_category"*, i32)** %vfn, align 8
  tail call void %2(%"class.std::__cxx11::basic_string"* sret %agg.result, %"class.boost::system::error_category"* %0, i32 %call) #18
  ret void
}

; Function Attrs: nounwind uwtable
define available_externally dso_local dereferenceable(32) %"class.std::__cxx11::basic_string"* @_ZNSt7__cxx1112basic_stringIcSt11char_traitsIcESaIcEEpLERKS4_(%"class.std::__cxx11::basic_string"* %this, %"class.std::__cxx11::basic_string"* dereferenceable(32) %__str) local_unnamed_addr #0 align 2 {
entry:
  %call = tail call dereferenceable(32) %"class.std::__cxx11::basic_string"* @_ZNSt7__cxx1112basic_stringIcSt11char_traitsIcESaIcEE6appendERKS4_(%"class.std::__cxx11::basic_string"* %this, %"class.std::__cxx11::basic_string"* nonnull dereferenceable(32) %__str)
  ret %"class.std::__cxx11::basic_string"* %call
}

; Function Attrs: nounwind uwtable
define available_externally dso_local void @_ZNSt7__cxx1112basic_stringIcSt11char_traitsIcESaIcEED2Ev(%"class.std::__cxx11::basic_string"* %this) unnamed_addr #0 align 2 {
entry:
  tail call void @_ZNSt7__cxx1112basic_stringIcSt11char_traitsIcESaIcEE10_M_disposeEv(%"class.std::__cxx11::basic_string"* %this)
  %0 = bitcast %"class.std::__cxx11::basic_string"* %this to %"class.std::allocator"*
  tail call void @_ZNSaIcED2Ev(%"class.std::allocator"* %0) #18
  ret void
}

; Function Attrs: argmemonly nounwind
declare void @llvm.lifetime.end.p0i8(i64 immarg, i8* nocapture) #5

; Function Attrs: nounwind uwtable
define available_externally dso_local i8* @_ZNKSt7__cxx1112basic_stringIcSt11char_traitsIcESaIcEE5c_strEv(%"class.std::__cxx11::basic_string"* %this) local_unnamed_addr #0 align 2 {
entry:
  %call = tail call i8* @_ZNKSt7__cxx1112basic_stringIcSt11char_traitsIcESaIcEE7_M_dataEv(%"class.std::__cxx11::basic_string"* %this)
  ret i8* %call
}

; Function Attrs: nounwind uwtable
define internal fastcc void @__cxx_global_var_init.4() unnamed_addr #0 section ".text.startup" {
entry:
  tail call void @_ZN5boost3argILi1EEC2Ev(%"struct.boost::arg"* nonnull @_ZN12_GLOBAL__N_12_1E)
  ret void
}

; Function Attrs: nounwind uwtable
define linkonce_odr dso_local void @_ZN5boost3argILi1EEC2Ev(%"struct.boost::arg"* %this) unnamed_addr #0 comdat align 2 {
entry:
  ret void
}

; Function Attrs: nounwind uwtable
define internal fastcc void @__cxx_global_var_init.5() unnamed_addr #0 section ".text.startup" {
entry:
  tail call void @_ZN5boost3argILi2EEC2Ev(%"struct.boost::arg.1"* nonnull @_ZN12_GLOBAL__N_12_2E)
  ret void
}

; Function Attrs: nounwind uwtable
define linkonce_odr dso_local void @_ZN5boost3argILi2EEC2Ev(%"struct.boost::arg.1"* %this) unnamed_addr #0 comdat align 2 {
entry:
  ret void
}

; Function Attrs: nounwind uwtable
define internal fastcc void @__cxx_global_var_init.6() unnamed_addr #0 section ".text.startup" {
entry:
  tail call void @_ZN5boost3argILi3EEC2Ev(%"struct.boost::arg.3"* nonnull @_ZN12_GLOBAL__N_12_3E)
  ret void
}

; Function Attrs: nounwind uwtable
define linkonce_odr dso_local void @_ZN5boost3argILi3EEC2Ev(%"struct.boost::arg.3"* %this) unnamed_addr #0 comdat align 2 {
entry:
  ret void
}

; Function Attrs: nounwind uwtable
define internal fastcc void @__cxx_global_var_init.7() unnamed_addr #0 section ".text.startup" {
entry:
  tail call void @_ZN5boost3argILi4EEC2Ev(%"struct.boost::arg.5"* nonnull @_ZN12_GLOBAL__N_12_4E)
  ret void
}

; Function Attrs: nounwind uwtable
define linkonce_odr dso_local void @_ZN5boost3argILi4EEC2Ev(%"struct.boost::arg.5"* %this) unnamed_addr #0 comdat align 2 {
entry:
  ret void
}

; Function Attrs: nounwind uwtable
define internal fastcc void @__cxx_global_var_init.8() unnamed_addr #0 section ".text.startup" {
entry:
  tail call void @_ZN5boost3argILi5EEC2Ev(%"struct.boost::arg.7"* nonnull @_ZN12_GLOBAL__N_12_5E)
  ret void
}

; Function Attrs: nounwind uwtable
define linkonce_odr dso_local void @_ZN5boost3argILi5EEC2Ev(%"struct.boost::arg.7"* %this) unnamed_addr #0 comdat align 2 {
entry:
  ret void
}

; Function Attrs: nounwind uwtable
define internal fastcc void @__cxx_global_var_init.9() unnamed_addr #0 section ".text.startup" {
entry:
  tail call void @_ZN5boost3argILi6EEC2Ev(%"struct.boost::arg.9"* nonnull @_ZN12_GLOBAL__N_12_6E)
  ret void
}

; Function Attrs: nounwind uwtable
define linkonce_odr dso_local void @_ZN5boost3argILi6EEC2Ev(%"struct.boost::arg.9"* %this) unnamed_addr #0 comdat align 2 {
entry:
  ret void
}

; Function Attrs: nounwind uwtable
define internal fastcc void @__cxx_global_var_init.10() unnamed_addr #0 section ".text.startup" {
entry:
  tail call void @_ZN5boost3argILi7EEC2Ev(%"struct.boost::arg.11"* nonnull @_ZN12_GLOBAL__N_12_7E)
  ret void
}

; Function Attrs: nounwind uwtable
define linkonce_odr dso_local void @_ZN5boost3argILi7EEC2Ev(%"struct.boost::arg.11"* %this) unnamed_addr #0 comdat align 2 {
entry:
  ret void
}

; Function Attrs: nounwind uwtable
define internal fastcc void @__cxx_global_var_init.11() unnamed_addr #0 section ".text.startup" {
entry:
  tail call void @_ZN5boost3argILi8EEC2Ev(%"struct.boost::arg.13"* nonnull @_ZN12_GLOBAL__N_12_8E)
  ret void
}

; Function Attrs: nounwind uwtable
define linkonce_odr dso_local void @_ZN5boost3argILi8EEC2Ev(%"struct.boost::arg.13"* %this) unnamed_addr #0 comdat align 2 {
entry:
  ret void
}

; Function Attrs: nounwind uwtable
define internal fastcc void @__cxx_global_var_init.12() unnamed_addr #0 section ".text.startup" {
entry:
  tail call void @_ZN5boost3argILi9EEC2Ev(%"struct.boost::arg.15"* nonnull @_ZN12_GLOBAL__N_12_9E)
  ret void
}

; Function Attrs: nounwind uwtable
define linkonce_odr dso_local void @_ZN5boost3argILi9EEC2Ev(%"struct.boost::arg.15"* %this) unnamed_addr #0 comdat align 2 {
entry:
  ret void
}

; Function Attrs: nounwind uwtable
define dso_local void @_ZN7ov_core8TrackKLT14feed_monocularEdRN2cv3MatEm(%"class.ov_core::TrackKLT"* %this, double %timestamp, %"class.cv::Mat"* dereferenceable(96) %img, i64 %cam_id) unnamed_addr #0 align 2 {
entry:
  %cam_id.addr = alloca i64, align 8
  %lck = alloca %"class.std::unique_lock", align 8
  %ref.tmp6 = alloca %"class.cv::_InputArray", align 8
  %ref.tmp7 = alloca %"class.cv::_OutputArray", align 8
  %imgpyr = alloca %"class.std::vector.78", align 8
  %ref.tmp8 = alloca %"class.cv::_InputArray", align 8
  %ref.tmp9 = alloca %"class.cv::_OutputArray", align 8
  %agg.tmp = alloca %"class.cv::Size_", align 4
  %ref.tmp22 = alloca %"class.cv::Mat", align 8
  %mask_ll = alloca %"class.std::vector.93", align 8
  %pts_left_new = alloca %"class.std::vector.83", align 8
  %ref.tmp53 = alloca %"class.cv::Mat", align 8
  %good_left = alloca %"class.std::vector.83", align 8
  %good_ids_left = alloca %"class.std::vector.88", align 8
  %npt_l = alloca %"class.cv::Point_", align 4
  %agg.tmp87 = alloca %"class.cv::Point_", align 4
  %ref.tmp102 = alloca %"class.cv::Mat", align 8
  store i64 %cam_id, i64* %cam_id.addr, align 8, !tbaa !11
  %call = tail call i64 @_ZN5boost9date_time14microsec_clockINS_10posix_time5ptimeEE10local_timeEv()
  %ref.tmp.sroa.0.0..sroa_idx = getelementptr inbounds %"class.ov_core::TrackKLT", %"class.ov_core::TrackKLT"* %this, i64 0, i32 1, i32 0, i32 0, i32 0, i32 0
  store i64 %call, i64* %ref.tmp.sroa.0.0..sroa_idx, align 8
  %0 = bitcast %"class.std::unique_lock"* %lck to i8*
  call void @llvm.lifetime.start.p0i8(i64 16, i8* nonnull %0) #18
  %1 = getelementptr inbounds %"class.ov_core::TrackKLT", %"class.ov_core::TrackKLT"* %this, i64 0, i32 0
  %mtx_feeds = getelementptr inbounds %"class.ov_core::TrackKLT", %"class.ov_core::TrackKLT"* %this, i64 0, i32 0, i32 6
  %2 = load i64, i64* %cam_id.addr, align 8, !tbaa !11
  %call5 = tail call dereferenceable(40) %"class.std::mutex"* @_ZNSt6vectorISt5mutexSaIS0_EE2atEm(%"class.std::vector"* nonnull %mtx_feeds, i64 %2)
  call void @_ZNSt11unique_lockISt5mutexEC2ERS0_(%"class.std::unique_lock"* nonnull %lck, %"class.std::mutex"* nonnull dereferenceable(40) %call5)
  %3 = bitcast %"class.cv::_InputArray"* %ref.tmp6 to i8*
  call void @llvm.lifetime.start.p0i8(i64 24, i8* nonnull %3) #18
  call void @_ZN2cv11_InputArrayC2ERKNS_3MatE(%"class.cv::_InputArray"* nonnull %ref.tmp6, %"class.cv::Mat"* nonnull dereferenceable(96) %img)
  %4 = bitcast %"class.cv::_OutputArray"* %ref.tmp7 to i8*
  call void @llvm.lifetime.start.p0i8(i64 24, i8* nonnull %4) #18
  call void @_ZN2cv12_OutputArrayC2ERNS_3MatE(%"class.cv::_OutputArray"* nonnull %ref.tmp7, %"class.cv::Mat"* nonnull dereferenceable(96) %img)
  call void @_ZN2cv12equalizeHistERKNS_11_InputArrayERKNS_12_OutputArrayE(%"class.cv::_InputArray"* nonnull dereferenceable(24) %ref.tmp6, %"class.cv::_OutputArray"* nonnull dereferenceable(24) %ref.tmp7) #18
  %5 = getelementptr inbounds %"class.cv::_OutputArray", %"class.cv::_OutputArray"* %ref.tmp7, i64 0, i32 0
  call void @_ZN2cv11_InputArrayD2Ev(%"class.cv::_InputArray"* nonnull %5) #18
  call void @llvm.lifetime.end.p0i8(i64 24, i8* nonnull %4) #18
  call void @_ZN2cv11_InputArrayD2Ev(%"class.cv::_InputArray"* nonnull %ref.tmp6) #18
  call void @llvm.lifetime.end.p0i8(i64 24, i8* nonnull %3) #18
  %6 = bitcast %"class.std::vector.78"* %imgpyr to i8*
  call void @llvm.lifetime.start.p0i8(i64 24, i8* nonnull %6) #18
  call void @_ZNSt6vectorIN2cv3MatESaIS1_EEC2Ev(%"class.std::vector.78"* nonnull %imgpyr) #18
  %7 = bitcast %"class.cv::_InputArray"* %ref.tmp8 to i8*
  call void @llvm.lifetime.start.p0i8(i64 24, i8* nonnull %7) #18
  call void @_ZN2cv11_InputArrayC2ERKNS_3MatE(%"class.cv::_InputArray"* nonnull %ref.tmp8, %"class.cv::Mat"* nonnull dereferenceable(96) %img)
  %8 = bitcast %"class.cv::_OutputArray"* %ref.tmp9 to i8*
  call void @llvm.lifetime.start.p0i8(i64 24, i8* nonnull %8) #18
  call void @_ZN2cv12_OutputArrayC2ERSt6vectorINS_3MatESaIS2_EE(%"class.cv::_OutputArray"* nonnull %ref.tmp9, %"class.std::vector.78"* nonnull dereferenceable(24) %imgpyr)
  %win_size = getelementptr inbounds %"class.ov_core::TrackKLT", %"class.ov_core::TrackKLT"* %this, i64 0, i32 19
  call void @_ZN2cv5Size_IiEC2ERKS1_(%"class.cv::Size_"* nonnull %agg.tmp, %"class.cv::Size_"* nonnull dereferenceable(8) %win_size)
  %pyr_levels = getelementptr inbounds %"class.ov_core::TrackKLT", %"class.ov_core::TrackKLT"* %this, i64 0, i32 18
  %9 = load i32, i32* %pyr_levels, align 8, !tbaa !13
  %call10 = call i32 @_ZN2cv23buildOpticalFlowPyramidERKNS_11_InputArrayERKNS_12_OutputArrayENS_5Size_IiEEibiib(%"class.cv::_InputArray"* nonnull dereferenceable(24) %ref.tmp8, %"class.cv::_OutputArray"* nonnull dereferenceable(24) %ref.tmp9, %"class.cv::Size_"* nonnull %agg.tmp, i32 %9, i1 zeroext true, i32 4, i32 0, i1 zeroext true) #18
  %10 = getelementptr inbounds %"class.cv::_OutputArray", %"class.cv::_OutputArray"* %ref.tmp9, i64 0, i32 0
  call void @_ZN2cv11_InputArrayD2Ev(%"class.cv::_InputArray"* nonnull %10) #18
  call void @llvm.lifetime.end.p0i8(i64 24, i8* nonnull %8) #18
  call void @_ZN2cv11_InputArrayD2Ev(%"class.cv::_InputArray"* nonnull %ref.tmp8) #18
  call void @llvm.lifetime.end.p0i8(i64 24, i8* nonnull %7) #18
  %call12 = call i64 @_ZN5boost9date_time14microsec_clockINS_10posix_time5ptimeEE10local_timeEv()
  %ref.tmp11.sroa.0.0..sroa_idx = getelementptr inbounds %"class.ov_core::TrackKLT", %"class.ov_core::TrackKLT"* %this, i64 0, i32 2, i32 0, i32 0, i32 0, i32 0
  store i64 %call12, i64* %ref.tmp11.sroa.0.0..sroa_idx, align 8
  %pts_last = getelementptr inbounds %"class.ov_core::TrackKLT", %"class.ov_core::TrackKLT"* %this, i64 0, i32 0, i32 8
  %call17 = call dereferenceable(24) %"class.std::vector.83"* @_ZNSt13unordered_mapImSt6vectorIN2cv8KeyPointESaIS2_EESt4hashImESt8equal_toImESaISt4pairIKmS4_EEEixERSA_(%"class.std::unordered_map.45"* nonnull %pts_last, i64* nonnull dereferenceable(8) %cam_id.addr)
  %call18 = call zeroext i1 @_ZNKSt6vectorIN2cv8KeyPointESaIS1_EE5emptyEv(%"class.std::vector.83"* nonnull %call17) #18
  br i1 %call18, label %if.then, label %if.end

if.then:                                          ; preds = %entry
  %call20 = call dereferenceable(24) %"class.std::vector.83"* @_ZNSt13unordered_mapImSt6vectorIN2cv8KeyPointESaIS2_EESt4hashImESt8equal_toImESaISt4pairIKmS4_EEEixERSA_(%"class.std::unordered_map.45"* nonnull %pts_last, i64* nonnull dereferenceable(8) %cam_id.addr)
  %ids_last = getelementptr inbounds %"class.ov_core::TrackKLT", %"class.ov_core::TrackKLT"* %this, i64 0, i32 0, i32 9
  %call21 = call dereferenceable(24) %"class.std::vector.88"* @_ZNSt13unordered_mapImSt6vectorImSaImEESt4hashImESt8equal_toImESaISt4pairIKmS2_EEEixERS8_(%"class.std::unordered_map.59"* nonnull %ids_last, i64* nonnull dereferenceable(8) %cam_id.addr)
  call void @_ZN7ov_core8TrackKLT27perform_detection_monocularERKSt6vectorIN2cv3MatESaIS3_EERS1_INS2_8KeyPointESaIS8_EERS1_ImSaImEE(%"class.ov_core::TrackKLT"* nonnull %this, %"class.std::vector.78"* nonnull dereferenceable(24) %imgpyr, %"class.std::vector.83"* nonnull dereferenceable(24) %call20, %"class.std::vector.88"* nonnull dereferenceable(24) %call21)
  %11 = bitcast %"class.cv::Mat"* %ref.tmp22 to i8*
  call void @llvm.lifetime.start.p0i8(i64 96, i8* nonnull %11) #18
  call void @_ZNK2cv3Mat5cloneEv(%"class.cv::Mat"* nonnull sret %ref.tmp22, %"class.cv::Mat"* nonnull %img)
  %img_last = getelementptr inbounds %"class.ov_core::TrackKLT", %"class.ov_core::TrackKLT"* %this, i64 0, i32 0, i32 7
  %call23 = call dereferenceable(96) %"class.cv::Mat"* @_ZNSt3mapImN2cv3MatESt4lessImESaISt4pairIKmS1_EEEixERS5_(%"class.std::map.40"* nonnull %img_last, i64* nonnull dereferenceable(8) %cam_id.addr)
  %call24 = call dereferenceable(96) %"class.cv::Mat"* @_ZN2cv3MataSEOS0_(%"class.cv::Mat"* nonnull %call23, %"class.cv::Mat"* nonnull dereferenceable(96) %ref.tmp22)
  call void @_ZN2cv3MatD2Ev(%"class.cv::Mat"* nonnull %ref.tmp22) #18
  call void @llvm.lifetime.end.p0i8(i64 96, i8* nonnull %11) #18
  %img_pyramid_last = getelementptr inbounds %"class.ov_core::TrackKLT", %"class.ov_core::TrackKLT"* %this, i64 0, i32 20
  %call25 = call dereferenceable(24) %"class.std::vector.78"* @_ZNSt3mapImSt6vectorIN2cv3MatESaIS2_EESt4lessImESaISt4pairIKmS4_EEEixERS8_(%"class.std::map.73"* nonnull %img_pyramid_last, i64* nonnull dereferenceable(8) %cam_id.addr)
  %call26 = call dereferenceable(24) %"class.std::vector.78"* @_ZNSt6vectorIN2cv3MatESaIS1_EEaSERKS3_(%"class.std::vector.78"* nonnull %call25, %"class.std::vector.78"* nonnull dereferenceable(24) %imgpyr)
  br label %cleanup124

if.end:                                           ; preds = %entry
  %img_pyramid_last27 = getelementptr inbounds %"class.ov_core::TrackKLT", %"class.ov_core::TrackKLT"* %this, i64 0, i32 20
  %call28 = call dereferenceable(24) %"class.std::vector.78"* @_ZNSt3mapImSt6vectorIN2cv3MatESaIS2_EESt4lessImESaISt4pairIKmS4_EEEixERS8_(%"class.std::map.73"* nonnull %img_pyramid_last27, i64* nonnull dereferenceable(8) %cam_id.addr)
  %call30 = call dereferenceable(24) %"class.std::vector.83"* @_ZNSt13unordered_mapImSt6vectorIN2cv8KeyPointESaIS2_EESt4hashImESt8equal_toImESaISt4pairIKmS4_EEEixERSA_(%"class.std::unordered_map.45"* nonnull %pts_last, i64* nonnull dereferenceable(8) %cam_id.addr)
  %ids_last31 = getelementptr inbounds %"class.ov_core::TrackKLT", %"class.ov_core::TrackKLT"* %this, i64 0, i32 0, i32 9
  %call32 = call dereferenceable(24) %"class.std::vector.88"* @_ZNSt13unordered_mapImSt6vectorImSaImEESt4hashImESt8equal_toImESaISt4pairIKmS2_EEEixERS8_(%"class.std::unordered_map.59"* nonnull %ids_last31, i64* nonnull dereferenceable(8) %cam_id.addr)
  call void @_ZN7ov_core8TrackKLT27perform_detection_monocularERKSt6vectorIN2cv3MatESaIS3_EERS1_INS2_8KeyPointESaIS8_EERS1_ImSaImEE(%"class.ov_core::TrackKLT"* nonnull %this, %"class.std::vector.78"* nonnull dereferenceable(24) %call28, %"class.std::vector.83"* nonnull dereferenceable(24) %call30, %"class.std::vector.88"* nonnull dereferenceable(24) %call32)
  %call34 = call i64 @_ZN5boost9date_time14microsec_clockINS_10posix_time5ptimeEE10local_timeEv()
  %ref.tmp33.sroa.0.0..sroa_idx = getelementptr inbounds %"class.ov_core::TrackKLT", %"class.ov_core::TrackKLT"* %this, i64 0, i32 3, i32 0, i32 0, i32 0, i32 0
  store i64 %call34, i64* %ref.tmp33.sroa.0.0..sroa_idx, align 8
  %12 = bitcast %"class.std::vector.93"* %mask_ll to i8*
  call void @llvm.lifetime.start.p0i8(i64 24, i8* nonnull %12) #18
  call void @_ZNSt6vectorIhSaIhEEC2Ev(%"class.std::vector.93"* nonnull %mask_ll) #18
  %13 = bitcast %"class.std::vector.83"* %pts_left_new to i8*
  call void @llvm.lifetime.start.p0i8(i64 24, i8* nonnull %13) #18
  %call40 = call dereferenceable(24) %"class.std::vector.83"* @_ZNSt13unordered_mapImSt6vectorIN2cv8KeyPointESaIS2_EESt4hashImESt8equal_toImESaISt4pairIKmS4_EEEixERSA_(%"class.std::unordered_map.45"* nonnull %pts_last, i64* nonnull dereferenceable(8) %cam_id.addr)
  call void @_ZNSt6vectorIN2cv8KeyPointESaIS1_EEC2ERKS3_(%"class.std::vector.83"* nonnull %pts_left_new, %"class.std::vector.83"* nonnull dereferenceable(24) %call40)
  %call42 = call dereferenceable(24) %"class.std::vector.78"* @_ZNSt3mapImSt6vectorIN2cv3MatESaIS2_EESt4lessImESaISt4pairIKmS4_EEEixERS8_(%"class.std::map.73"* nonnull %img_pyramid_last27, i64* nonnull dereferenceable(8) %cam_id.addr)
  %call44 = call dereferenceable(24) %"class.std::vector.83"* @_ZNSt13unordered_mapImSt6vectorIN2cv8KeyPointESaIS2_EESt4hashImESt8equal_toImESaISt4pairIKmS4_EEEixERSA_(%"class.std::unordered_map.45"* nonnull %pts_last, i64* nonnull dereferenceable(8) %cam_id.addr)
  %14 = load i64, i64* %cam_id.addr, align 8, !tbaa !11
  call void @_ZN7ov_core8TrackKLT16perform_matchingERKSt6vectorIN2cv3MatESaIS3_EES7_RS1_INS2_8KeyPointESaIS8_EESB_mmRS1_IhSaIhEE(%"class.ov_core::TrackKLT"* nonnull %this, %"class.std::vector.78"* nonnull dereferenceable(24) %call42, %"class.std::vector.78"* nonnull dereferenceable(24) %imgpyr, %"class.std::vector.83"* nonnull dereferenceable(24) %call44, %"class.std::vector.83"* nonnull dereferenceable(24) %pts_left_new, i64 %14, i64 %14, %"class.std::vector.93"* nonnull dereferenceable(24) %mask_ll)
  %call46 = call i64 @_ZN5boost9date_time14microsec_clockINS_10posix_time5ptimeEE10local_timeEv()
  %ref.tmp45.sroa.0.0..sroa_idx = getelementptr inbounds %"class.ov_core::TrackKLT", %"class.ov_core::TrackKLT"* %this, i64 0, i32 4, i32 0, i32 0, i32 0, i32 0
  store i64 %call46, i64* %ref.tmp45.sroa.0.0..sroa_idx, align 8
  %call51 = call zeroext i1 @_ZNKSt6vectorIhSaIhEE5emptyEv(%"class.std::vector.93"* nonnull %mask_ll) #18
  br i1 %call51, label %if.then52, label %if.end65

if.then52:                                        ; preds = %if.end
  %15 = bitcast %"class.cv::Mat"* %ref.tmp53 to i8*
  call void @llvm.lifetime.start.p0i8(i64 96, i8* nonnull %15) #18
  call void @_ZNK2cv3Mat5cloneEv(%"class.cv::Mat"* nonnull sret %ref.tmp53, %"class.cv::Mat"* nonnull %img)
  %img_last54 = getelementptr inbounds %"class.ov_core::TrackKLT", %"class.ov_core::TrackKLT"* %this, i64 0, i32 0, i32 7
  %call55 = call dereferenceable(96) %"class.cv::Mat"* @_ZNSt3mapImN2cv3MatESt4lessImESaISt4pairIKmS1_EEEixERS5_(%"class.std::map.40"* nonnull %img_last54, i64* nonnull dereferenceable(8) %cam_id.addr)
  %call56 = call dereferenceable(96) %"class.cv::Mat"* @_ZN2cv3MataSEOS0_(%"class.cv::Mat"* nonnull %call55, %"class.cv::Mat"* nonnull dereferenceable(96) %ref.tmp53)
  call void @_ZN2cv3MatD2Ev(%"class.cv::Mat"* nonnull %ref.tmp53) #18
  call void @llvm.lifetime.end.p0i8(i64 96, i8* nonnull %15) #18
  %call58 = call dereferenceable(24) %"class.std::vector.78"* @_ZNSt3mapImSt6vectorIN2cv3MatESaIS2_EESt4lessImESaISt4pairIKmS4_EEEixERS8_(%"class.std::map.73"* nonnull %img_pyramid_last27, i64* nonnull dereferenceable(8) %cam_id.addr)
  %call59 = call dereferenceable(24) %"class.std::vector.78"* @_ZNSt6vectorIN2cv3MatESaIS1_EEaSERKS3_(%"class.std::vector.78"* nonnull %call58, %"class.std::vector.78"* nonnull dereferenceable(24) %imgpyr)
  %call61 = call dereferenceable(24) %"class.std::vector.83"* @_ZNSt13unordered_mapImSt6vectorIN2cv8KeyPointESaIS2_EESt4hashImESt8equal_toImESaISt4pairIKmS4_EEEixERSA_(%"class.std::unordered_map.45"* nonnull %pts_last, i64* nonnull dereferenceable(8) %cam_id.addr)
  call void @_ZNSt6vectorIN2cv8KeyPointESaIS1_EE5clearEv(%"class.std::vector.83"* nonnull %call61) #18
  %call63 = call dereferenceable(24) %"class.std::vector.88"* @_ZNSt13unordered_mapImSt6vectorImSaImEESt4hashImESt8equal_toImESaISt4pairIKmS2_EEEixERS8_(%"class.std::unordered_map.59"* nonnull %ids_last31, i64* nonnull dereferenceable(8) %cam_id.addr)
  call void @_ZNSt6vectorImSaImEE5clearEv(%"class.std::vector.88"* nonnull %call63) #18
  %call64 = call i32 (i8*, ...) @printf(i8* getelementptr inbounds ([84 x i8], [84 x i8]* @.str.13, i64 0, i64 0))
  br label %cleanup

if.end65:                                         ; preds = %if.end
  %16 = bitcast %"class.std::vector.83"* %good_left to i8*
  call void @llvm.lifetime.start.p0i8(i64 24, i8* nonnull %16) #18
  call void @_ZNSt6vectorIN2cv8KeyPointESaIS1_EEC2Ev(%"class.std::vector.83"* nonnull %good_left) #18
  %17 = bitcast %"class.std::vector.88"* %good_ids_left to i8*
  call void @llvm.lifetime.start.p0i8(i64 24, i8* nonnull %17) #18
  call void @_ZNSt6vectorImSaImEEC2Ev(%"class.std::vector.88"* nonnull %good_ids_left) #18
  %call66154 = call i64 @_ZNKSt6vectorIN2cv8KeyPointESaIS1_EE4sizeEv(%"class.std::vector.83"* nonnull %pts_left_new) #18
  %cmp155 = icmp eq i64 %call66154, 0
  br i1 %cmp155, label %for.cond82.preheader, label %for.body

for.cond82.preheader:                             ; preds = %for.inc, %if.end65
  %call83151 = call i64 @_ZNKSt6vectorIN2cv8KeyPointESaIS1_EE4sizeEv(%"class.std::vector.83"* nonnull %good_left) #18
  %cmp84152 = icmp eq i64 %call83151, 0
  br i1 %cmp84152, label %for.cond.cleanup85, label %for.body86.lr.ph

for.body86.lr.ph:                                 ; preds = %for.cond82.preheader
  %18 = bitcast %"class.cv::Point_"* %npt_l to i8*
  %database = getelementptr inbounds %"class.ov_core::TrackKLT", %"class.ov_core::TrackKLT"* %this, i64 0, i32 0, i32 1
  %x97 = getelementptr inbounds %"class.cv::Point_", %"class.cv::Point_"* %npt_l, i64 0, i32 0
  %y98 = getelementptr inbounds %"class.cv::Point_", %"class.cv::Point_"* %npt_l, i64 0, i32 1
  br label %for.body86

for.body:                                         ; preds = %if.end65, %for.inc
  %i.0156 = phi i64 [ %inc, %for.inc ], [ 0, %if.end65 ]
  %call67 = call dereferenceable(28) %"class.cv::KeyPoint"* @_ZNSt6vectorIN2cv8KeyPointESaIS1_EEixEm(%"class.std::vector.83"* nonnull %pts_left_new, i64 %i.0156) #18
  %x = getelementptr inbounds %"class.cv::KeyPoint", %"class.cv::KeyPoint"* %call67, i64 0, i32 0, i32 0
  %19 = load float, float* %x, align 4, !tbaa !24
  %cmp68 = fcmp olt float %19, 0.000000e+00
  br i1 %cmp68, label %for.inc, label %lor.lhs.false

lor.lhs.false:                                    ; preds = %for.body
  %call69 = call dereferenceable(28) %"class.cv::KeyPoint"* @_ZNSt6vectorIN2cv8KeyPointESaIS1_EEixEm(%"class.std::vector.83"* nonnull %pts_left_new, i64 %i.0156) #18
  %y = getelementptr inbounds %"class.cv::KeyPoint", %"class.cv::KeyPoint"* %call69, i64 0, i32 0, i32 1
  %20 = load float, float* %y, align 4, !tbaa !28
  %cmp71 = fcmp olt float %20, 0.000000e+00
  br i1 %cmp71, label %for.inc, label %if.end73

if.end73:                                         ; preds = %lor.lhs.false
  %call74 = call dereferenceable(1) i8* @_ZNSt6vectorIhSaIhEEixEm(%"class.std::vector.93"* nonnull %mask_ll, i64 %i.0156) #18
  %21 = load i8, i8* %call74, align 1, !tbaa !29
  %tobool = icmp eq i8 %21, 0
  br i1 %tobool, label %for.inc, label %if.then75

if.then75:                                        ; preds = %if.end73
  %call76 = call dereferenceable(28) %"class.cv::KeyPoint"* @_ZNSt6vectorIN2cv8KeyPointESaIS1_EEixEm(%"class.std::vector.83"* nonnull %pts_left_new, i64 %i.0156) #18
  call void @_ZNSt6vectorIN2cv8KeyPointESaIS1_EE9push_backERKS1_(%"class.std::vector.83"* nonnull %good_left, %"class.cv::KeyPoint"* nonnull dereferenceable(28) %call76)
  %call78 = call dereferenceable(24) %"class.std::vector.88"* @_ZNSt13unordered_mapImSt6vectorImSaImEESt4hashImESt8equal_toImESaISt4pairIKmS2_EEEixERS8_(%"class.std::unordered_map.59"* nonnull %ids_last31, i64* nonnull dereferenceable(8) %cam_id.addr)
  %call79 = call dereferenceable(8) i64* @_ZNSt6vectorImSaImEEixEm(%"class.std::vector.88"* nonnull %call78, i64 %i.0156) #18
  call void @_ZNSt6vectorImSaImEE9push_backERKm(%"class.std::vector.88"* nonnull %good_ids_left, i64* nonnull dereferenceable(8) %call79)
  br label %for.inc

for.inc:                                          ; preds = %if.end73, %if.then75, %for.body, %lor.lhs.false
  %inc = add nuw i64 %i.0156, 1
  %call66 = call i64 @_ZNKSt6vectorIN2cv8KeyPointESaIS1_EE4sizeEv(%"class.std::vector.83"* nonnull %pts_left_new) #18
  %cmp = icmp ult i64 %inc, %call66
  br i1 %cmp, label %for.body, label %for.cond82.preheader

for.cond.cleanup85:                               ; preds = %for.body86, %for.cond82.preheader
  %22 = bitcast %"class.cv::Mat"* %ref.tmp102 to i8*
  call void @llvm.lifetime.start.p0i8(i64 96, i8* nonnull %22) #18
  call void @_ZNK2cv3Mat5cloneEv(%"class.cv::Mat"* nonnull sret %ref.tmp102, %"class.cv::Mat"* nonnull %img)
  %img_last103 = getelementptr inbounds %"class.ov_core::TrackKLT", %"class.ov_core::TrackKLT"* %this, i64 0, i32 0, i32 7
  %call104 = call dereferenceable(96) %"class.cv::Mat"* @_ZNSt3mapImN2cv3MatESt4lessImESaISt4pairIKmS1_EEEixERS5_(%"class.std::map.40"* nonnull %img_last103, i64* nonnull dereferenceable(8) %cam_id.addr)
  %call105 = call dereferenceable(96) %"class.cv::Mat"* @_ZN2cv3MataSEOS0_(%"class.cv::Mat"* nonnull %call104, %"class.cv::Mat"* nonnull dereferenceable(96) %ref.tmp102)
  call void @_ZN2cv3MatD2Ev(%"class.cv::Mat"* nonnull %ref.tmp102) #18
  call void @llvm.lifetime.end.p0i8(i64 96, i8* nonnull %22) #18
  %call107 = call dereferenceable(24) %"class.std::vector.78"* @_ZNSt3mapImSt6vectorIN2cv3MatESaIS2_EESt4lessImESaISt4pairIKmS4_EEEixERS8_(%"class.std::map.73"* nonnull %img_pyramid_last27, i64* nonnull dereferenceable(8) %cam_id.addr)
  %call108 = call dereferenceable(24) %"class.std::vector.78"* @_ZNSt6vectorIN2cv3MatESaIS1_EEaSERKS3_(%"class.std::vector.78"* nonnull %call107, %"class.std::vector.78"* nonnull dereferenceable(24) %imgpyr)
  %call110 = call dereferenceable(24) %"class.std::vector.83"* @_ZNSt13unordered_mapImSt6vectorIN2cv8KeyPointESaIS2_EESt4hashImESt8equal_toImESaISt4pairIKmS4_EEEixERSA_(%"class.std::unordered_map.45"* nonnull %pts_last, i64* nonnull dereferenceable(8) %cam_id.addr)
  %call111 = call dereferenceable(24) %"class.std::vector.83"* @_ZNSt6vectorIN2cv8KeyPointESaIS1_EEaSERKS3_(%"class.std::vector.83"* nonnull %call110, %"class.std::vector.83"* nonnull dereferenceable(24) %good_left)
  %call113 = call dereferenceable(24) %"class.std::vector.88"* @_ZNSt13unordered_mapImSt6vectorImSaImEESt4hashImESt8equal_toImESaISt4pairIKmS2_EEEixERS8_(%"class.std::unordered_map.59"* nonnull %ids_last31, i64* nonnull dereferenceable(8) %cam_id.addr)
  %call114 = call dereferenceable(24) %"class.std::vector.88"* @_ZNSt6vectorImSaImEEaSERKS1_(%"class.std::vector.88"* nonnull %call113, %"class.std::vector.88"* nonnull dereferenceable(24) %good_ids_left)
  %call116 = call i64 @_ZN5boost9date_time14microsec_clockINS_10posix_time5ptimeEE10local_timeEv()
  %ref.tmp115.sroa.0.0..sroa_idx = getelementptr inbounds %"class.ov_core::TrackKLT", %"class.ov_core::TrackKLT"* %this, i64 0, i32 5, i32 0, i32 0, i32 0, i32 0
  store i64 %call116, i64* %ref.tmp115.sroa.0.0..sroa_idx, align 8
  call void @_ZNSt6vectorImSaImEED2Ev(%"class.std::vector.88"* nonnull %good_ids_left) #18
  call void @llvm.lifetime.end.p0i8(i64 24, i8* nonnull %17) #18
  call void @_ZNSt6vectorIN2cv8KeyPointESaIS1_EED2Ev(%"class.std::vector.83"* nonnull %good_left) #18
  call void @llvm.lifetime.end.p0i8(i64 24, i8* nonnull %16) #18
  br label %cleanup

for.body86:                                       ; preds = %for.body86.lr.ph, %for.body86
  %i81.0153 = phi i64 [ 0, %for.body86.lr.ph ], [ %inc100, %for.body86 ]
  call void @llvm.lifetime.start.p0i8(i64 8, i8* nonnull %18) #18
  %call88 = call dereferenceable(28) %"class.cv::KeyPoint"* @_ZNSt6vectorIN2cv8KeyPointESaIS1_EE2atEm(%"class.std::vector.83"* nonnull %good_left, i64 %i81.0153)
  %pt89 = getelementptr inbounds %"class.cv::KeyPoint", %"class.cv::KeyPoint"* %call88, i64 0, i32 0
  call void @_ZN2cv6Point_IfEC2ERKS1_(%"class.cv::Point_"* nonnull %agg.tmp87, %"class.cv::Point_"* nonnull dereferenceable(8) %pt89)
  %23 = load i64, i64* %cam_id.addr, align 8, !tbaa !11
  call void @_ZN7ov_core9TrackBase15undistort_pointEN2cv6Point_IfEEm(%"class.cv::Point_"* nonnull sret %npt_l, %"class.ov_core::TrackBase"* %1, %"class.cv::Point_"* nonnull %agg.tmp87, i64 %23)
  %24 = load %"class.ov_core::FeatureDatabase"*, %"class.ov_core::FeatureDatabase"** %database, align 8, !tbaa !30
  %call90 = call dereferenceable(8) i64* @_ZNSt6vectorImSaImEE2atEm(%"class.std::vector.88"* nonnull %good_ids_left, i64 %i81.0153)
  %25 = load i64, i64* %call90, align 8, !tbaa !11
  %26 = load i64, i64* %cam_id.addr, align 8, !tbaa !11
  %call91 = call dereferenceable(28) %"class.cv::KeyPoint"* @_ZNSt6vectorIN2cv8KeyPointESaIS1_EE2atEm(%"class.std::vector.83"* nonnull %good_left, i64 %i81.0153)
  %x93 = getelementptr inbounds %"class.cv::KeyPoint", %"class.cv::KeyPoint"* %call91, i64 0, i32 0, i32 0
  %27 = load float, float* %x93, align 4, !tbaa !24
  %call94 = call dereferenceable(28) %"class.cv::KeyPoint"* @_ZNSt6vectorIN2cv8KeyPointESaIS1_EE2atEm(%"class.std::vector.83"* nonnull %good_left, i64 %i81.0153)
  %y96 = getelementptr inbounds %"class.cv::KeyPoint", %"class.cv::KeyPoint"* %call94, i64 0, i32 0, i32 1
  %28 = load float, float* %y96, align 4, !tbaa !28
  %29 = load float, float* %x97, align 4, !tbaa !52
  %30 = load float, float* %y98, align 4, !tbaa !53
  call void @_ZN7ov_core15FeatureDatabase14update_featureEmdmffff(%"class.ov_core::FeatureDatabase"* %24, i64 %25, double %timestamp, i64 %26, float %27, float %28, float %29, float %30)
  call void @llvm.lifetime.end.p0i8(i64 8, i8* nonnull %18) #18
  %inc100 = add nuw i64 %i81.0153, 1
  %call83 = call i64 @_ZNKSt6vectorIN2cv8KeyPointESaIS1_EE4sizeEv(%"class.std::vector.83"* nonnull %good_left) #18
  %cmp84 = icmp ult i64 %inc100, %call83
  br i1 %cmp84, label %for.body86, label %for.cond.cleanup85

cleanup:                                          ; preds = %for.cond.cleanup85, %if.then52
  call void @_ZNSt6vectorIN2cv8KeyPointESaIS1_EED2Ev(%"class.std::vector.83"* nonnull %pts_left_new) #18
  call void @llvm.lifetime.end.p0i8(i64 24, i8* nonnull %13) #18
  call void @_ZNSt6vectorIhSaIhEED2Ev(%"class.std::vector.93"* nonnull %mask_ll) #18
  call void @llvm.lifetime.end.p0i8(i64 24, i8* nonnull %12) #18
  br label %cleanup124

cleanup124:                                       ; preds = %cleanup, %if.then
  call void @_ZNSt6vectorIN2cv3MatESaIS1_EED2Ev(%"class.std::vector.78"* nonnull %imgpyr) #18
  call void @llvm.lifetime.end.p0i8(i64 24, i8* nonnull %6) #18
  call void @_ZNSt11unique_lockISt5mutexED2Ev(%"class.std::unique_lock"* nonnull %lck) #18
  call void @llvm.lifetime.end.p0i8(i64 16, i8* nonnull %0) #18
  ret void
}

; Function Attrs: nounwind uwtable
define linkonce_odr dso_local i64 @_ZN5boost9date_time14microsec_clockINS_10posix_time5ptimeEE10local_timeEv() local_unnamed_addr #0 comdat align 2 {
entry:
  %call = tail call i64 @_ZN5boost9date_time14microsec_clockINS_10posix_time5ptimeEE11create_timeEPFP2tmPKlS6_E(%struct.tm* (i64*, %struct.tm*)* nonnull @_ZN5boost9date_time6c_time9localtimeEPKlP2tm)
  ret i64 %call
}

; Function Attrs: argmemonly nounwind
declare void @llvm.memcpy.p0i8.p0i8.i64(i8* nocapture writeonly, i8* nocapture readonly, i64, i1 immarg) #5

; Function Attrs: nounwind uwtable
define linkonce_odr dso_local dereferenceable(40) %"class.std::mutex"* @_ZNSt6vectorISt5mutexSaIS0_EE2atEm(%"class.std::vector"* %this, i64 %__n) local_unnamed_addr #0 comdat align 2 {
entry:
  tail call void @_ZNKSt6vectorISt5mutexSaIS0_EE14_M_range_checkEm(%"class.std::vector"* %this, i64 %__n)
  %call = tail call dereferenceable(40) %"class.std::mutex"* @_ZNSt6vectorISt5mutexSaIS0_EEixEm(%"class.std::vector"* %this, i64 %__n) #18
  ret %"class.std::mutex"* %call
}

; Function Attrs: nounwind uwtable
define linkonce_odr dso_local void @_ZNSt11unique_lockISt5mutexEC2ERS0_(%"class.std::unique_lock"* %this, %"class.std::mutex"* dereferenceable(40) %__m) unnamed_addr #0 comdat align 2 {
entry:
  %_M_device = getelementptr inbounds %"class.std::unique_lock", %"class.std::unique_lock"* %this, i64 0, i32 0
  %call = tail call %"class.std::mutex"* @_ZSt11__addressofISt5mutexEPT_RS1_(%"class.std::mutex"* nonnull dereferenceable(40) %__m) #18
  store %"class.std::mutex"* %call, %"class.std::mutex"** %_M_device, align 8, !tbaa !54
  %_M_owns = getelementptr inbounds %"class.std::unique_lock", %"class.std::unique_lock"* %this, i64 0, i32 1
  store i8 0, i8* %_M_owns, align 8, !tbaa !57
  tail call void @_ZNSt11unique_lockISt5mutexE4lockEv(%"class.std::unique_lock"* %this)
  store i8 1, i8* %_M_owns, align 8, !tbaa !57
  ret void
}

declare dso_local void @_ZN2cv12equalizeHistERKNS_11_InputArrayERKNS_12_OutputArrayE(%"class.cv::_InputArray"* dereferenceable(24), %"class.cv::_OutputArray"* dereferenceable(24)) #1

; Function Attrs: inlinehint nounwind uwtable
define linkonce_odr dso_local void @_ZN2cv11_InputArrayC2ERKNS_3MatE(%"class.cv::_InputArray"* %this, %"class.cv::Mat"* dereferenceable(96) %m) unnamed_addr #4 comdat align 2 {
entry:
  %sz = getelementptr inbounds %"class.cv::_InputArray", %"class.cv::_InputArray"* %this, i64 0, i32 2
  tail call void @_ZN2cv5Size_IiEC2Ev(%"class.cv::Size_"* nonnull %sz)
  %0 = bitcast %"class.cv::Mat"* %m to i8*
  tail call void @_ZN2cv11_InputArray4initEiPKv(%"class.cv::_InputArray"* %this, i32 16842752, i8* nonnull %0)
  ret void
}

; Function Attrs: inlinehint nounwind uwtable
define linkonce_odr dso_local void @_ZN2cv12_OutputArrayC2ERNS_3MatE(%"class.cv::_OutputArray"* %this, %"class.cv::Mat"* dereferenceable(96) %m) unnamed_addr #4 comdat align 2 {
entry:
  %0 = getelementptr inbounds %"class.cv::_OutputArray", %"class.cv::_OutputArray"* %this, i64 0, i32 0
  tail call void @_ZN2cv11_InputArrayC2Ev(%"class.cv::_InputArray"* %0)
  %1 = bitcast %"class.cv::Mat"* %m to i8*
  tail call void @_ZN2cv11_InputArray4initEiPKv(%"class.cv::_InputArray"* %0, i32 33619968, i8* nonnull %1)
  ret void
}

; Function Attrs: inlinehint nounwind uwtable
define linkonce_odr dso_local void @_ZN2cv11_InputArrayD2Ev(%"class.cv::_InputArray"* %this) unnamed_addr #4 comdat align 2 {
entry:
  ret void
}

; Function Attrs: nounwind uwtable
define linkonce_odr dso_local void @_ZNSt6vectorIN2cv3MatESaIS1_EEC2Ev(%"class.std::vector.78"* %this) unnamed_addr #0 comdat align 2 {
entry:
  %0 = getelementptr inbounds %"class.std::vector.78", %"class.std::vector.78"* %this, i64 0, i32 0
  tail call void @_ZNSt12_Vector_baseIN2cv3MatESaIS1_EEC2Ev(%"struct.std::_Vector_base.79"* %0)
  ret void
}

declare dso_local i32 @_ZN2cv23buildOpticalFlowPyramidERKNS_11_InputArrayERKNS_12_OutputArrayENS_5Size_IiEEibiib(%"class.cv::_InputArray"* dereferenceable(24), %"class.cv::_OutputArray"* dereferenceable(24), %"class.cv::Size_"*, i32, i1 zeroext, i32, i32, i1 zeroext) #1

; Function Attrs: inlinehint nounwind uwtable
define linkonce_odr dso_local void @_ZN2cv12_OutputArrayC2ERSt6vectorINS_3MatESaIS2_EE(%"class.cv::_OutputArray"* %this, %"class.std::vector.78"* dereferenceable(24) %vec) unnamed_addr #4 comdat align 2 {
entry:
  %0 = getelementptr inbounds %"class.cv::_OutputArray", %"class.cv::_OutputArray"* %this, i64 0, i32 0
  tail call void @_ZN2cv11_InputArrayC2Ev(%"class.cv::_InputArray"* %0)
  %1 = bitcast %"class.std::vector.78"* %vec to i8*
  tail call void @_ZN2cv11_InputArray4initEiPKv(%"class.cv::_InputArray"* %0, i32 33882112, i8* nonnull %1)
  ret void
}

; Function Attrs: inlinehint nounwind uwtable
define linkonce_odr dso_local void @_ZN2cv5Size_IiEC2ERKS1_(%"class.cv::Size_"* %this, %"class.cv::Size_"* dereferenceable(8) %sz) unnamed_addr #4 comdat align 2 {
entry:
  %width = getelementptr inbounds %"class.cv::Size_", %"class.cv::Size_"* %this, i64 0, i32 0
  %width2 = getelementptr inbounds %"class.cv::Size_", %"class.cv::Size_"* %sz, i64 0, i32 0
  %0 = load i32, i32* %width2, align 4, !tbaa !58
  store i32 %0, i32* %width, align 4, !tbaa !58
  %height = getelementptr inbounds %"class.cv::Size_", %"class.cv::Size_"* %this, i64 0, i32 1
  %height3 = getelementptr inbounds %"class.cv::Size_", %"class.cv::Size_"* %sz, i64 0, i32 1
  %1 = load i32, i32* %height3, align 4, !tbaa !59
  store i32 %1, i32* %height, align 4, !tbaa !59
  ret void
}

; Function Attrs: nounwind uwtable
define linkonce_odr dso_local dereferenceable(24) %"class.std::vector.83"* @_ZNSt13unordered_mapImSt6vectorIN2cv8KeyPointESaIS2_EESt4hashImESt8equal_toImESaISt4pairIKmS4_EEEixERSA_(%"class.std::unordered_map.45"* %this, i64* dereferenceable(8) %__k) local_unnamed_addr #0 comdat align 2 {
entry:
  %0 = bitcast %"class.std::unordered_map.45"* %this to %"struct.std::__detail::_Map_base.49"*
  %call = tail call dereferenceable(24) %"class.std::vector.83"* @_ZNSt8__detail9_Map_baseImSt4pairIKmSt6vectorIN2cv8KeyPointESaIS5_EEESaIS8_ENS_10_Select1stESt8equal_toImESt4hashImENS_18_Mod_range_hashingENS_20_Default_ranged_hashENS_20_Prime_rehash_policyENS_17_Hashtable_traitsILb0ELb0ELb1EEELb1EEixERS2_(%"struct.std::__detail::_Map_base.49"* %0, i64* nonnull dereferenceable(8) %__k)
  ret %"class.std::vector.83"* %call
}

; Function Attrs: nounwind uwtable
define linkonce_odr dso_local zeroext i1 @_ZNKSt6vectorIN2cv8KeyPointESaIS1_EE5emptyEv(%"class.std::vector.83"* %this) local_unnamed_addr #0 comdat align 2 {
entry:
  %ref.tmp = alloca %"class.__gnu_cxx::__normal_iterator.136", align 8
  %ref.tmp2 = alloca %"class.__gnu_cxx::__normal_iterator.136", align 8
  %0 = bitcast %"class.__gnu_cxx::__normal_iterator.136"* %ref.tmp to i8*
  call void @llvm.lifetime.start.p0i8(i64 8, i8* nonnull %0) #18
  %call = tail call %"class.cv::KeyPoint"* @_ZNKSt6vectorIN2cv8KeyPointESaIS1_EE5beginEv(%"class.std::vector.83"* %this) #18
  %coerce.dive = getelementptr inbounds %"class.__gnu_cxx::__normal_iterator.136", %"class.__gnu_cxx::__normal_iterator.136"* %ref.tmp, i64 0, i32 0
  store %"class.cv::KeyPoint"* %call, %"class.cv::KeyPoint"** %coerce.dive, align 8
  %1 = bitcast %"class.__gnu_cxx::__normal_iterator.136"* %ref.tmp2 to i8*
  call void @llvm.lifetime.start.p0i8(i64 8, i8* nonnull %1) #18
  %call3 = tail call %"class.cv::KeyPoint"* @_ZNKSt6vectorIN2cv8KeyPointESaIS1_EE3endEv(%"class.std::vector.83"* %this) #18
  %coerce.dive4 = getelementptr inbounds %"class.__gnu_cxx::__normal_iterator.136", %"class.__gnu_cxx::__normal_iterator.136"* %ref.tmp2, i64 0, i32 0
  store %"class.cv::KeyPoint"* %call3, %"class.cv::KeyPoint"** %coerce.dive4, align 8
  %call5 = call zeroext i1 @_ZN9__gnu_cxxeqIPKN2cv8KeyPointESt6vectorIS2_SaIS2_EEEEbRKNS_17__normal_iteratorIT_T0_EESD_(%"class.__gnu_cxx::__normal_iterator.136"* nonnull dereferenceable(8) %ref.tmp, %"class.__gnu_cxx::__normal_iterator.136"* nonnull dereferenceable(8) %ref.tmp2) #18
  call void @llvm.lifetime.end.p0i8(i64 8, i8* nonnull %1) #18
  call void @llvm.lifetime.end.p0i8(i64 8, i8* nonnull %0) #18
  ret i1 %call5
}

; Function Attrs: nounwind uwtable
define dso_local void @_ZN7ov_core8TrackKLT27perform_detection_monocularERKSt6vectorIN2cv3MatESaIS3_EERS1_INS2_8KeyPointESaIS8_EERS1_ImSaImEE(%"class.ov_core::TrackKLT"* %this, %"class.std::vector.78"* dereferenceable(24) %img0pyr, %"class.std::vector.83"* dereferenceable(24) %pts0, %"class.std::vector.88"* dereferenceable(24) %ids0) local_unnamed_addr #0 align 2 {
entry:
  %grid_2d = alloca %"class.Eigen::Matrix", align 8
  %ref.tmp = alloca %"class.Eigen::CwiseNullaryOp", align 8
  %it0 = alloca %"class.__gnu_cxx::__normal_iterator.135", align 8
  %it2 = alloca %"class.__gnu_cxx::__normal_iterator", align 8
  %ref.tmp10 = alloca %"class.__gnu_cxx::__normal_iterator.135", align 8
  %kpt = alloca %"class.cv::KeyPoint", align 4
  %agg.tmp = alloca %"class.__gnu_cxx::__normal_iterator.136", align 8
  %agg.tmp32 = alloca %"class.__gnu_cxx::__normal_iterator.137", align 8
  %pts0_ext = alloca %"class.std::vector.83", align 8
  %kpts0_new = alloca %"class.std::vector.83", align 8
  %pts0_new = alloca %"class.std::vector.138", align 8
  %__begin1 = alloca %"class.__gnu_cxx::__normal_iterator.135", align 8
  %__end1 = alloca %"class.__gnu_cxx::__normal_iterator.135", align 8
  %temp = alloca i64, align 8
  %0 = bitcast %"class.Eigen::Matrix"* %grid_2d to i8*
  call void @llvm.lifetime.start.p0i8(i64 24, i8* nonnull %0) #18
  %1 = bitcast %"class.Eigen::CwiseNullaryOp"* %ref.tmp to i8*
  call void @llvm.lifetime.start.p0i8(i64 24, i8* nonnull %1) #18
  %call = tail call dereferenceable(96) %"class.cv::Mat"* @_ZNKSt6vectorIN2cv3MatESaIS1_EE2atEm(%"class.std::vector.78"* nonnull %img0pyr, i64 0)
  %rows = getelementptr inbounds %"class.cv::Mat", %"class.cv::Mat"* %call, i64 0, i32 2
  %2 = load i32, i32* %rows, align 8, !tbaa !60
  %min_px_dist = getelementptr inbounds %"class.ov_core::TrackKLT", %"class.ov_core::TrackKLT"* %this, i64 0, i32 17
  %3 = load i32, i32* %min_px_dist, align 4, !tbaa !64
  %div = sdiv i32 %2, %3
  %add = add nsw i32 %div, 2
  %conv = sext i32 %add to i64
  %call2 = tail call dereferenceable(96) %"class.cv::Mat"* @_ZNKSt6vectorIN2cv3MatESaIS1_EE2atEm(%"class.std::vector.78"* nonnull %img0pyr, i64 0)
  %cols = getelementptr inbounds %"class.cv::Mat", %"class.cv::Mat"* %call2, i64 0, i32 3
  %4 = load i32, i32* %cols, align 4, !tbaa !65
  %5 = load i32, i32* %min_px_dist, align 4, !tbaa !64
  %div4 = sdiv i32 %4, %5
  %add5 = add nsw i32 %div4, 2
  %conv6 = sext i32 %add5 to i64
  call void @_ZN5Eigen9DenseBaseINS_6MatrixIiLin1ELin1ELi0ELin1ELin1EEEE4ZeroEll(%"class.Eigen::CwiseNullaryOp"* nonnull sret %ref.tmp, i64 %conv, i64 %conv6)
  %6 = bitcast %"class.Eigen::CwiseNullaryOp"* %ref.tmp to %"struct.Eigen::EigenBase.134"*
  call void @_ZN5Eigen6MatrixIiLin1ELin1ELi0ELin1ELin1EEC2INS_14CwiseNullaryOpINS_8internal18scalar_constant_opIiEES1_EEEERKNS_9EigenBaseIT_EE(%"class.Eigen::Matrix"* nonnull %grid_2d, %"struct.Eigen::EigenBase.134"* nonnull dereferenceable(1) %6)
  call void @llvm.lifetime.end.p0i8(i64 24, i8* nonnull %1) #18
  %7 = bitcast %"class.__gnu_cxx::__normal_iterator.135"* %it0 to i8*
  call void @llvm.lifetime.start.p0i8(i64 8, i8* nonnull %7) #18
  %call7 = call %"class.cv::KeyPoint"* @_ZNSt6vectorIN2cv8KeyPointESaIS1_EE5beginEv(%"class.std::vector.83"* nonnull %pts0) #18
  %coerce.dive = getelementptr inbounds %"class.__gnu_cxx::__normal_iterator.135", %"class.__gnu_cxx::__normal_iterator.135"* %it0, i64 0, i32 0
  store %"class.cv::KeyPoint"* %call7, %"class.cv::KeyPoint"** %coerce.dive, align 8
  %8 = bitcast %"class.__gnu_cxx::__normal_iterator"* %it2 to i8*
  call void @llvm.lifetime.start.p0i8(i64 8, i8* nonnull %8) #18
  %call8 = call i64* @_ZNSt6vectorImSaImEE5beginEv(%"class.std::vector.88"* nonnull %ids0) #18
  %coerce.dive9 = getelementptr inbounds %"class.__gnu_cxx::__normal_iterator", %"class.__gnu_cxx::__normal_iterator"* %it2, i64 0, i32 0
  store i64* %call8, i64** %coerce.dive9, align 8
  %9 = bitcast %"class.__gnu_cxx::__normal_iterator.135"* %ref.tmp10 to i8*
  call void @llvm.lifetime.start.p0i8(i64 8, i8* nonnull %9) #18
  %call11161 = call %"class.cv::KeyPoint"* @_ZNSt6vectorIN2cv8KeyPointESaIS1_EE3endEv(%"class.std::vector.83"* nonnull %pts0) #18
  %coerce.dive12 = getelementptr inbounds %"class.__gnu_cxx::__normal_iterator.135", %"class.__gnu_cxx::__normal_iterator.135"* %ref.tmp10, i64 0, i32 0
  store %"class.cv::KeyPoint"* %call11161, %"class.cv::KeyPoint"** %coerce.dive12, align 8
  %call13162 = call zeroext i1 @_ZN9__gnu_cxxneIPN2cv8KeyPointESt6vectorIS2_SaIS2_EEEEbRKNS_17__normal_iteratorIT_T0_EESC_(%"class.__gnu_cxx::__normal_iterator.135"* nonnull dereferenceable(8) %it0, %"class.__gnu_cxx::__normal_iterator.135"* nonnull dereferenceable(8) %ref.tmp10) #18
  call void @llvm.lifetime.end.p0i8(i64 8, i8* nonnull %9) #18
  br i1 %call13162, label %while.body.lr.ph, label %while.end

while.body.lr.ph:                                 ; preds = %entry
  %10 = bitcast %"class.cv::KeyPoint"* %kpt to i8*
  %11 = bitcast %"class.Eigen::Matrix"* %grid_2d to %"class.Eigen::DenseCoeffsBase.128"*
  %y = getelementptr inbounds %"class.cv::KeyPoint", %"class.cv::KeyPoint"* %kpt, i64 0, i32 0, i32 1
  %x = getelementptr inbounds %"class.cv::KeyPoint", %"class.cv::KeyPoint"* %kpt, i64 0, i32 0, i32 0
  %coerce.dive28 = getelementptr inbounds %"class.__gnu_cxx::__normal_iterator.136", %"class.__gnu_cxx::__normal_iterator.136"* %agg.tmp, i64 0, i32 0
  %coerce.dive33 = getelementptr inbounds %"class.__gnu_cxx::__normal_iterator.137", %"class.__gnu_cxx::__normal_iterator.137"* %agg.tmp32, i64 0, i32 0
  br label %while.body

while.body:                                       ; preds = %while.body.lr.ph, %cleanup
  call void @llvm.lifetime.start.p0i8(i64 28, i8* nonnull %10) #18
  %call14 = call dereferenceable(28) %"class.cv::KeyPoint"* @_ZNK9__gnu_cxx17__normal_iteratorIPN2cv8KeyPointESt6vectorIS2_SaIS2_EEEdeEv(%"class.__gnu_cxx::__normal_iterator.135"* nonnull %it0) #18
  call void @_ZN2cv8KeyPointC2ERKS0_(%"class.cv::KeyPoint"* nonnull %kpt, %"class.cv::KeyPoint"* nonnull dereferenceable(28) %call14)
  %12 = load float, float* %y, align 4, !tbaa !28
  %13 = load i32, i32* %min_px_dist, align 4, !tbaa !64
  %conv16 = sitofp i32 %13 to float
  %div17 = fdiv float %12, %conv16
  %conv18 = fptosi float %div17 to i32
  %conv19 = sext i32 %conv18 to i64
  %14 = load float, float* %x, align 4, !tbaa !24
  %div23 = fdiv float %14, %conv16
  %conv24 = fptosi float %div23 to i32
  %conv25 = sext i32 %conv24 to i64
  %call26 = call dereferenceable(4) i32* @_ZN5Eigen15DenseCoeffsBaseINS_6MatrixIiLin1ELin1ELi0ELin1ELin1EEELi1EEclEll(%"class.Eigen::DenseCoeffsBase.128"* nonnull %11, i64 %conv19, i64 %conv25)
  %15 = load i32, i32* %call26, align 4, !tbaa !66
  %cmp = icmp eq i32 %15, 1
  br i1 %cmp, label %if.then, label %if.end

if.then:                                          ; preds = %while.body
  call void @_ZN9__gnu_cxx17__normal_iteratorIPKN2cv8KeyPointESt6vectorIS2_SaIS2_EEEC2IPS2_EERKNS0_IT_NS_11__enable_ifIXsr3std10__are_sameISB_SA_EE7__valueES7_E6__typeEEE(%"class.__gnu_cxx::__normal_iterator.136"* nonnull %agg.tmp, %"class.__gnu_cxx::__normal_iterator.135"* nonnull dereferenceable(8) %it0) #18
  %16 = load %"class.cv::KeyPoint"*, %"class.cv::KeyPoint"** %coerce.dive28, align 8
  %call29 = call %"class.cv::KeyPoint"* @_ZNSt6vectorIN2cv8KeyPointESaIS1_EE5eraseEN9__gnu_cxx17__normal_iteratorIPKS1_S3_EE(%"class.std::vector.83"* nonnull %pts0, %"class.cv::KeyPoint"* %16)
  store %"class.cv::KeyPoint"* %call29, %"class.cv::KeyPoint"** %coerce.dive, align 8
  call void @_ZN9__gnu_cxx17__normal_iteratorIPKmSt6vectorImSaImEEEC2IPmEERKNS0_IT_NS_11__enable_ifIXsr3std10__are_sameIS9_S8_EE7__valueES5_E6__typeEEE(%"class.__gnu_cxx::__normal_iterator.137"* nonnull %agg.tmp32, %"class.__gnu_cxx::__normal_iterator"* nonnull dereferenceable(8) %it2) #18
  %17 = load i64*, i64** %coerce.dive33, align 8
  %call34 = call i64* @_ZNSt6vectorImSaImEE5eraseEN9__gnu_cxx17__normal_iteratorIPKmS1_EE(%"class.std::vector.88"* nonnull %ids0, i64* %17)
  store i64* %call34, i64** %coerce.dive9, align 8
  br label %cleanup

if.end:                                           ; preds = %while.body
  %18 = load float, float* %y, align 4, !tbaa !28
  %19 = load i32, i32* %min_px_dist, align 4, !tbaa !64
  %conv39 = sitofp i32 %19 to float
  %div40 = fdiv float %18, %conv39
  %conv41 = fptosi float %div40 to i32
  %conv42 = sext i32 %conv41 to i64
  %20 = load float, float* %x, align 4, !tbaa !24
  %div47 = fdiv float %20, %conv39
  %conv48 = fptosi float %div47 to i32
  %conv49 = sext i32 %conv48 to i64
  %call50 = call dereferenceable(4) i32* @_ZN5Eigen15DenseCoeffsBaseINS_6MatrixIiLin1ELin1ELi0ELin1ELin1EEELi1EEclEll(%"class.Eigen::DenseCoeffsBase.128"* nonnull %11, i64 %conv42, i64 %conv49)
  store i32 1, i32* %call50, align 4, !tbaa !66
  %call51 = call %"class.cv::KeyPoint"* @_ZN9__gnu_cxx17__normal_iteratorIPN2cv8KeyPointESt6vectorIS2_SaIS2_EEEppEi(%"class.__gnu_cxx::__normal_iterator.135"* nonnull %it0, i32 0) #18
  %call53 = call i64* @_ZN9__gnu_cxx17__normal_iteratorIPmSt6vectorImSaImEEEppEi(%"class.__gnu_cxx::__normal_iterator"* nonnull %it2, i32 0) #18
  br label %cleanup

cleanup:                                          ; preds = %if.end, %if.then
  call void @llvm.lifetime.end.p0i8(i64 28, i8* nonnull %10) #18
  call void @llvm.lifetime.start.p0i8(i64 8, i8* nonnull %9) #18
  %call11 = call %"class.cv::KeyPoint"* @_ZNSt6vectorIN2cv8KeyPointESaIS1_EE3endEv(%"class.std::vector.83"* nonnull %pts0) #18
  store %"class.cv::KeyPoint"* %call11, %"class.cv::KeyPoint"** %coerce.dive12, align 8
  %call13 = call zeroext i1 @_ZN9__gnu_cxxneIPN2cv8KeyPointESt6vectorIS2_SaIS2_EEEEbRKNS_17__normal_iteratorIT_T0_EESC_(%"class.__gnu_cxx::__normal_iterator.135"* nonnull dereferenceable(8) %it0, %"class.__gnu_cxx::__normal_iterator.135"* nonnull dereferenceable(8) %ref.tmp10) #18
  call void @llvm.lifetime.end.p0i8(i64 8, i8* nonnull %9) #18
  br i1 %call13, label %while.body, label %while.end

while.end:                                        ; preds = %cleanup, %entry
  %num_features = getelementptr inbounds %"class.ov_core::TrackKLT", %"class.ov_core::TrackKLT"* %this, i64 0, i32 0, i32 5
  %21 = load i32, i32* %num_features, align 8, !tbaa !67
  %call56 = call i64 @_ZNKSt6vectorIN2cv8KeyPointESaIS1_EE4sizeEv(%"class.std::vector.83"* nonnull %pts0) #18
  %conv57 = trunc i64 %call56 to i32
  %sub = sub nsw i32 %21, %conv57
  %cmp58 = icmp slt i32 %sub, 1
  br i1 %cmp58, label %cleanup124, label %if.end60

if.end60:                                         ; preds = %while.end
  %22 = bitcast %"class.std::vector.83"* %pts0_ext to i8*
  call void @llvm.lifetime.start.p0i8(i64 24, i8* nonnull %22) #18
  call void @_ZNSt6vectorIN2cv8KeyPointESaIS1_EEC2Ev(%"class.std::vector.83"* nonnull %pts0_ext) #18
  %call61 = call dereferenceable(96) %"class.cv::Mat"* @_ZNKSt6vectorIN2cv3MatESaIS1_EE2atEm(%"class.std::vector.78"* nonnull %img0pyr, i64 0)
  %grid_x = getelementptr inbounds %"class.ov_core::TrackKLT", %"class.ov_core::TrackKLT"* %this, i64 0, i32 15
  %23 = load i32, i32* %grid_x, align 4, !tbaa !68
  %grid_y = getelementptr inbounds %"class.ov_core::TrackKLT", %"class.ov_core::TrackKLT"* %this, i64 0, i32 16
  %24 = load i32, i32* %grid_y, align 8, !tbaa !69
  %threshold = getelementptr inbounds %"class.ov_core::TrackKLT", %"class.ov_core::TrackKLT"* %this, i64 0, i32 14
  %25 = load i32, i32* %threshold, align 8, !tbaa !70
  call void @_ZN7ov_core11Grider_FAST15perform_gridingERKN2cv3MatERSt6vectorINS1_8KeyPointESaIS6_EEiiiib(%"class.cv::Mat"* nonnull dereferenceable(96) %call61, %"class.std::vector.83"* nonnull dereferenceable(24) %pts0_ext, i32 %sub, i32 %23, i32 %24, i32 %25, i1 zeroext true)
  %26 = bitcast %"class.std::vector.83"* %kpts0_new to i8*
  call void @llvm.lifetime.start.p0i8(i64 24, i8* nonnull %26) #18
  call void @_ZNSt6vectorIN2cv8KeyPointESaIS1_EEC2Ev(%"class.std::vector.83"* nonnull %kpts0_new) #18
  %27 = bitcast %"class.std::vector.138"* %pts0_new to i8*
  call void @llvm.lifetime.start.p0i8(i64 24, i8* nonnull %27) #18
  call void @_ZNSt6vectorIN2cv6Point_IfEESaIS2_EEC2Ev(%"class.std::vector.138"* nonnull %pts0_new) #18
  %28 = bitcast %"class.__gnu_cxx::__normal_iterator.135"* %__begin1 to i8*
  call void @llvm.lifetime.start.p0i8(i64 8, i8* nonnull %28) #18
  %call62 = call %"class.cv::KeyPoint"* @_ZNSt6vectorIN2cv8KeyPointESaIS1_EE5beginEv(%"class.std::vector.83"* nonnull %pts0_ext) #18
  %coerce.dive63 = getelementptr inbounds %"class.__gnu_cxx::__normal_iterator.135", %"class.__gnu_cxx::__normal_iterator.135"* %__begin1, i64 0, i32 0
  store %"class.cv::KeyPoint"* %call62, %"class.cv::KeyPoint"** %coerce.dive63, align 8
  %29 = bitcast %"class.__gnu_cxx::__normal_iterator.135"* %__end1 to i8*
  call void @llvm.lifetime.start.p0i8(i64 8, i8* nonnull %29) #18
  %call64 = call %"class.cv::KeyPoint"* @_ZNSt6vectorIN2cv8KeyPointESaIS1_EE3endEv(%"class.std::vector.83"* nonnull %pts0_ext) #18
  %coerce.dive65 = getelementptr inbounds %"class.__gnu_cxx::__normal_iterator.135", %"class.__gnu_cxx::__normal_iterator.135"* %__end1, i64 0, i32 0
  store %"class.cv::KeyPoint"* %call64, %"class.cv::KeyPoint"** %coerce.dive65, align 8
  %call66160 = call zeroext i1 @_ZN9__gnu_cxxneIPN2cv8KeyPointESt6vectorIS2_SaIS2_EEEEbRKNS_17__normal_iteratorIT_T0_EESC_(%"class.__gnu_cxx::__normal_iterator.135"* nonnull dereferenceable(8) %__begin1, %"class.__gnu_cxx::__normal_iterator.135"* nonnull dereferenceable(8) %__end1) #18
  br i1 %call66160, label %for.body.lr.ph, label %for.cond.cleanup

for.body.lr.ph:                                   ; preds = %if.end60
  %30 = bitcast %"class.Eigen::Matrix"* %grid_2d to %"class.Eigen::DenseCoeffsBase.128"*
  br label %for.body

for.cond.cleanup:                                 ; preds = %cleanup103, %if.end60
  call void @llvm.lifetime.end.p0i8(i64 8, i8* nonnull %29) #18
  call void @llvm.lifetime.end.p0i8(i64 8, i8* nonnull %28) #18
  %call111157 = call i64 @_ZNKSt6vectorIN2cv6Point_IfEESaIS2_EE4sizeEv(%"class.std::vector.138"* nonnull %pts0_new) #18
  %cmp112158 = icmp eq i64 %call111157, 0
  br i1 %cmp112158, label %for.cond.cleanup113, label %for.body114.lr.ph

for.body114.lr.ph:                                ; preds = %for.cond.cleanup
  %31 = bitcast i64* %temp to i8*
  %32 = getelementptr inbounds %"class.ov_core::TrackKLT", %"class.ov_core::TrackKLT"* %this, i64 0, i32 0, i32 10, i32 0
  br label %for.body114

for.body:                                         ; preds = %for.body.lr.ph, %cleanup103
  %call68 = call dereferenceable(28) %"class.cv::KeyPoint"* @_ZNK9__gnu_cxx17__normal_iteratorIPN2cv8KeyPointESt6vectorIS2_SaIS2_EEEdeEv(%"class.__gnu_cxx::__normal_iterator.135"* nonnull %__begin1) #18
  %y70 = getelementptr inbounds %"class.cv::KeyPoint", %"class.cv::KeyPoint"* %call68, i64 0, i32 0, i32 1
  %33 = load float, float* %y70, align 4, !tbaa !28
  %34 = load i32, i32* %min_px_dist, align 4, !tbaa !64
  %conv72 = sitofp i32 %34 to float
  %div73 = fdiv float %33, %conv72
  %conv74 = fptosi float %div73 to i32
  %conv75 = sext i32 %conv74 to i64
  %x77 = getelementptr inbounds %"class.cv::KeyPoint", %"class.cv::KeyPoint"* %call68, i64 0, i32 0, i32 0
  %35 = load float, float* %x77, align 4, !tbaa !24
  %div80 = fdiv float %35, %conv72
  %conv81 = fptosi float %div80 to i32
  %conv82 = sext i32 %conv81 to i64
  %call83 = call dereferenceable(4) i32* @_ZN5Eigen15DenseCoeffsBaseINS_6MatrixIiLin1ELin1ELi0ELin1ELin1EEELi1EEclEll(%"class.Eigen::DenseCoeffsBase.128"* nonnull %30, i64 %conv75, i64 %conv82)
  %36 = load i32, i32* %call83, align 4, !tbaa !66
  %cmp84 = icmp eq i32 %36, 1
  br i1 %cmp84, label %cleanup103, label %if.end86

if.end86:                                         ; preds = %for.body
  %pt69 = getelementptr inbounds %"class.cv::KeyPoint", %"class.cv::KeyPoint"* %call68, i64 0, i32 0
  call void @_ZNSt6vectorIN2cv8KeyPointESaIS1_EE9push_backERKS1_(%"class.std::vector.83"* nonnull %kpts0_new, %"class.cv::KeyPoint"* nonnull dereferenceable(28) %call68)
  call void @_ZNSt6vectorIN2cv6Point_IfEESaIS2_EE9push_backERKS2_(%"class.std::vector.138"* nonnull %pts0_new, %"class.cv::Point_"* nonnull dereferenceable(8) %pt69)
  %37 = load float, float* %y70, align 4, !tbaa !28
  %38 = load i32, i32* %min_px_dist, align 4, !tbaa !64
  %conv91 = sitofp i32 %38 to float
  %div92 = fdiv float %37, %conv91
  %conv93 = fptosi float %div92 to i32
  %conv94 = sext i32 %conv93 to i64
  %39 = load float, float* %x77, align 4, !tbaa !24
  %div99 = fdiv float %39, %conv91
  %conv100 = fptosi float %div99 to i32
  %conv101 = sext i32 %conv100 to i64
  %call102 = call dereferenceable(4) i32* @_ZN5Eigen15DenseCoeffsBaseINS_6MatrixIiLin1ELin1ELi0ELin1ELin1EEELi1EEclEll(%"class.Eigen::DenseCoeffsBase.128"* nonnull %30, i64 %conv94, i64 %conv101)
  store i32 1, i32* %call102, align 4, !tbaa !66
  br label %cleanup103

cleanup103:                                       ; preds = %for.body, %if.end86
  %call106 = call dereferenceable(8) %"class.__gnu_cxx::__normal_iterator.135"* @_ZN9__gnu_cxx17__normal_iteratorIPN2cv8KeyPointESt6vectorIS2_SaIS2_EEEppEv(%"class.__gnu_cxx::__normal_iterator.135"* nonnull %__begin1) #18
  %call66 = call zeroext i1 @_ZN9__gnu_cxxneIPN2cv8KeyPointESt6vectorIS2_SaIS2_EEEEbRKNS_17__normal_iteratorIT_T0_EESC_(%"class.__gnu_cxx::__normal_iterator.135"* nonnull dereferenceable(8) %__begin1, %"class.__gnu_cxx::__normal_iterator.135"* nonnull dereferenceable(8) %__end1) #18
  br i1 %call66, label %for.body, label %for.cond.cleanup

for.cond.cleanup113:                              ; preds = %for.body114, %for.cond.cleanup
  call void @_ZNSt6vectorIN2cv6Point_IfEESaIS2_EED2Ev(%"class.std::vector.138"* nonnull %pts0_new) #18
  call void @llvm.lifetime.end.p0i8(i64 24, i8* nonnull %27) #18
  call void @_ZNSt6vectorIN2cv8KeyPointESaIS1_EED2Ev(%"class.std::vector.83"* nonnull %kpts0_new) #18
  call void @llvm.lifetime.end.p0i8(i64 24, i8* nonnull %26) #18
  call void @_ZNSt6vectorIN2cv8KeyPointESaIS1_EED2Ev(%"class.std::vector.83"* nonnull %pts0_ext) #18
  call void @llvm.lifetime.end.p0i8(i64 24, i8* nonnull %22) #18
  br label %cleanup124

for.body114:                                      ; preds = %for.body114.lr.ph, %for.body114
  %i.0159 = phi i64 [ 0, %for.body114.lr.ph ], [ %inc, %for.body114 ]
  %call115 = call dereferenceable(8) %"class.cv::Point_"* @_ZNSt6vectorIN2cv6Point_IfEESaIS2_EE2atEm(%"class.std::vector.138"* nonnull %pts0_new, i64 %i.0159)
  %call116 = call dereferenceable(28) %"class.cv::KeyPoint"* @_ZNSt6vectorIN2cv8KeyPointESaIS1_EE2atEm(%"class.std::vector.83"* nonnull %kpts0_new, i64 %i.0159)
  %pt117 = getelementptr inbounds %"class.cv::KeyPoint", %"class.cv::KeyPoint"* %call116, i64 0, i32 0
  %call118 = call dereferenceable(8) %"class.cv::Point_"* @_ZN2cv6Point_IfEaSERKS1_(%"class.cv::Point_"* nonnull %pt117, %"class.cv::Point_"* nonnull dereferenceable(8) %call115)
  %call119 = call dereferenceable(28) %"class.cv::KeyPoint"* @_ZNSt6vectorIN2cv8KeyPointESaIS1_EE2atEm(%"class.std::vector.83"* nonnull %kpts0_new, i64 %i.0159)
  call void @_ZNSt6vectorIN2cv8KeyPointESaIS1_EE9push_backERKS1_(%"class.std::vector.83"* nonnull %pts0, %"class.cv::KeyPoint"* nonnull dereferenceable(28) %call119)
  call void @llvm.lifetime.start.p0i8(i64 8, i8* nonnull %31) #18
  %call120 = call i64 @_ZNSt13__atomic_baseImEppEv(%"struct.std::__atomic_base"* nonnull %32) #18
  store i64 %call120, i64* %temp, align 8, !tbaa !11
  call void @_ZNSt6vectorImSaImEE9push_backERKm(%"class.std::vector.88"* nonnull %ids0, i64* nonnull dereferenceable(8) %temp)
  call void @llvm.lifetime.end.p0i8(i64 8, i8* nonnull %31) #18
  %inc = add nuw i64 %i.0159, 1
  %call111 = call i64 @_ZNKSt6vectorIN2cv6Point_IfEESaIS2_EE4sizeEv(%"class.std::vector.138"* nonnull %pts0_new) #18
  %cmp112 = icmp ult i64 %inc, %call111
  br i1 %cmp112, label %for.body114, label %for.cond.cleanup113

cleanup124:                                       ; preds = %while.end, %for.cond.cleanup113
  call void @llvm.lifetime.end.p0i8(i64 8, i8* nonnull %8) #18
  call void @llvm.lifetime.end.p0i8(i64 8, i8* nonnull %7) #18
  %40 = getelementptr inbounds %"class.Eigen::Matrix", %"class.Eigen::Matrix"* %grid_2d, i64 0, i32 0
  call void @_ZN5Eigen15PlainObjectBaseINS_6MatrixIiLin1ELin1ELi0ELin1ELin1EEEED2Ev(%"class.Eigen::PlainObjectBase"* nonnull %40) #18
  call void @llvm.lifetime.end.p0i8(i64 24, i8* nonnull %0) #18
  ret void
}

; Function Attrs: nounwind uwtable
define linkonce_odr dso_local dereferenceable(24) %"class.std::vector.88"* @_ZNSt13unordered_mapImSt6vectorImSaImEESt4hashImESt8equal_toImESaISt4pairIKmS2_EEEixERS8_(%"class.std::unordered_map.59"* %this, i64* dereferenceable(8) %__k) local_unnamed_addr #0 comdat align 2 {
entry:
  %0 = bitcast %"class.std::unordered_map.59"* %this to %"struct.std::__detail::_Map_base.63"*
  %call = tail call dereferenceable(24) %"class.std::vector.88"* @_ZNSt8__detail9_Map_baseImSt4pairIKmSt6vectorImSaImEEESaIS6_ENS_10_Select1stESt8equal_toImESt4hashImENS_18_Mod_range_hashingENS_20_Default_ranged_hashENS_20_Prime_rehash_policyENS_17_Hashtable_traitsILb0ELb0ELb1EEELb1EEixERS2_(%"struct.std::__detail::_Map_base.63"* %0, i64* nonnull dereferenceable(8) %__k)
  ret %"class.std::vector.88"* %call
}

; Function Attrs: inlinehint nounwind uwtable
define linkonce_odr dso_local void @_ZNK2cv3Mat5cloneEv(%"class.cv::Mat"* noalias sret %agg.result, %"class.cv::Mat"* %this) local_unnamed_addr #4 comdat align 2 {
entry:
  %ref.tmp = alloca %"class.cv::_OutputArray", align 8
  tail call void @_ZN2cv3MatC2Ev(%"class.cv::Mat"* %agg.result)
  %0 = bitcast %"class.cv::_OutputArray"* %ref.tmp to i8*
  call void @llvm.lifetime.start.p0i8(i64 24, i8* nonnull %0) #18
  call void @_ZN2cv12_OutputArrayC2ERNS_3MatE(%"class.cv::_OutputArray"* nonnull %ref.tmp, %"class.cv::Mat"* dereferenceable(96) %agg.result)
  call void @_ZNK2cv3Mat6copyToERKNS_12_OutputArrayE(%"class.cv::Mat"* %this, %"class.cv::_OutputArray"* nonnull dereferenceable(24) %ref.tmp) #18
  %1 = getelementptr inbounds %"class.cv::_OutputArray", %"class.cv::_OutputArray"* %ref.tmp, i64 0, i32 0
  call void @_ZN2cv11_InputArrayD2Ev(%"class.cv::_InputArray"* nonnull %1) #18
  call void @llvm.lifetime.end.p0i8(i64 24, i8* nonnull %0) #18
  ret void
}

; Function Attrs: nounwind uwtable
define linkonce_odr dso_local dereferenceable(96) %"class.cv::Mat"* @_ZNSt3mapImN2cv3MatESt4lessImESaISt4pairIKmS1_EEEixERS5_(%"class.std::map.40"* %this, i64* dereferenceable(8) %__k) local_unnamed_addr #0 comdat align 2 {
entry:
  %__i = alloca %"struct.std::_Rb_tree_iterator.306", align 8
  %ref.tmp = alloca %"struct.std::_Rb_tree_iterator.306", align 8
  %ref.tmp5 = alloca %"struct.std::less", align 1
  %agg.tmp = alloca %"struct.std::_Rb_tree_const_iterator", align 8
  %ref.tmp9 = alloca %"class.std::tuple", align 8
  %ref.tmp10 = alloca %"class.std::tuple.229", align 1
  %0 = bitcast %"struct.std::_Rb_tree_iterator.306"* %__i to i8*
  call void @llvm.lifetime.start.p0i8(i64 8, i8* nonnull %0) #18
  %call = tail call %"struct.std::_Rb_tree_node_base"* @_ZNSt3mapImN2cv3MatESt4lessImESaISt4pairIKmS1_EEE11lower_boundERS5_(%"class.std::map.40"* %this, i64* nonnull dereferenceable(8) %__k)
  %coerce.dive = getelementptr inbounds %"struct.std::_Rb_tree_iterator.306", %"struct.std::_Rb_tree_iterator.306"* %__i, i64 0, i32 0
  store %"struct.std::_Rb_tree_node_base"* %call, %"struct.std::_Rb_tree_node_base"** %coerce.dive, align 8
  %1 = bitcast %"struct.std::_Rb_tree_iterator.306"* %ref.tmp to i8*
  call void @llvm.lifetime.start.p0i8(i64 8, i8* nonnull %1) #18
  %call2 = tail call %"struct.std::_Rb_tree_node_base"* @_ZNSt3mapImN2cv3MatESt4lessImESaISt4pairIKmS1_EEE3endEv(%"class.std::map.40"* %this) #18
  %coerce.dive3 = getelementptr inbounds %"struct.std::_Rb_tree_iterator.306", %"struct.std::_Rb_tree_iterator.306"* %ref.tmp, i64 0, i32 0
  store %"struct.std::_Rb_tree_node_base"* %call2, %"struct.std::_Rb_tree_node_base"** %coerce.dive3, align 8
  %call4 = call zeroext i1 @_ZNKSt17_Rb_tree_iteratorISt4pairIKmN2cv3MatEEEeqERKS5_(%"struct.std::_Rb_tree_iterator.306"* nonnull %__i, %"struct.std::_Rb_tree_iterator.306"* nonnull dereferenceable(8) %ref.tmp) #18
  %2 = getelementptr inbounds %"struct.std::less", %"struct.std::less"* %ref.tmp5, i64 0, i32 0
  call void @llvm.lifetime.start.p0i8(i64 1, i8* nonnull %2) #18
  br i1 %call4, label %if.then.critedge, label %lor.rhs

lor.rhs:                                          ; preds = %entry
  call void @_ZNKSt3mapImN2cv3MatESt4lessImESaISt4pairIKmS1_EEE8key_compEv(%"class.std::map.40"* %this)
  %call6 = call dereferenceable(104) %"struct.std::pair.307"* @_ZNKSt17_Rb_tree_iteratorISt4pairIKmN2cv3MatEEEdeEv(%"struct.std::_Rb_tree_iterator.306"* nonnull %__i) #18
  %first = getelementptr inbounds %"struct.std::pair.307", %"struct.std::pair.307"* %call6, i64 0, i32 0
  %call7 = call zeroext i1 @_ZNKSt4lessImEclERKmS2_(%"struct.std::less"* nonnull %ref.tmp5, i64* nonnull dereferenceable(8) %__k, i64* nonnull dereferenceable(8) %first)
  call void @llvm.lifetime.end.p0i8(i64 1, i8* nonnull %2) #18
  call void @llvm.lifetime.end.p0i8(i64 8, i8* nonnull %1) #18
  br i1 %call7, label %if.then, label %if.end

if.then.critedge:                                 ; preds = %entry
  call void @llvm.lifetime.end.p0i8(i64 1, i8* nonnull %2) #18
  call void @llvm.lifetime.end.p0i8(i64 8, i8* nonnull %1) #18
  br label %if.then

if.then:                                          ; preds = %if.then.critedge, %lor.rhs
  %_M_t = getelementptr inbounds %"class.std::map.40", %"class.std::map.40"* %this, i64 0, i32 0
  call void @_ZNSt23_Rb_tree_const_iteratorISt4pairIKmN2cv3MatEEEC2ERKSt17_Rb_tree_iteratorIS4_E(%"struct.std::_Rb_tree_const_iterator"* nonnull %agg.tmp, %"struct.std::_Rb_tree_iterator.306"* nonnull dereferenceable(8) %__i) #18
  %3 = bitcast %"class.std::tuple"* %ref.tmp9 to i8*
  call void @llvm.lifetime.start.p0i8(i64 8, i8* nonnull %3) #18
  call void @_ZNSt5tupleIJRKmEEC2ES1_(%"class.std::tuple"* nonnull %ref.tmp9, i64* nonnull dereferenceable(8) %__k)
  %4 = getelementptr inbounds %"class.std::tuple.229", %"class.std::tuple.229"* %ref.tmp10, i64 0, i32 0
  call void @llvm.lifetime.start.p0i8(i64 1, i8* nonnull %4) #18
  %coerce.dive11 = getelementptr inbounds %"struct.std::_Rb_tree_const_iterator", %"struct.std::_Rb_tree_const_iterator"* %agg.tmp, i64 0, i32 0
  %5 = load %"struct.std::_Rb_tree_node_base"*, %"struct.std::_Rb_tree_node_base"** %coerce.dive11, align 8
  %call12 = call %"struct.std::_Rb_tree_node_base"* @_ZNSt8_Rb_treeImSt4pairIKmN2cv3MatEESt10_Select1stIS4_ESt4lessImESaIS4_EE22_M_emplace_hint_uniqueIJRKSt21piecewise_construct_tSt5tupleIJRS1_EESF_IJEEEEESt17_Rb_tree_iteratorIS4_ESt23_Rb_tree_const_iteratorIS4_EDpOT_(%"class.std::_Rb_tree.41"* %_M_t, %"struct.std::_Rb_tree_node_base"* %5, %"struct.std::piecewise_construct_t"* nonnull dereferenceable(1) @_ZStL19piecewise_construct, %"class.std::tuple"* nonnull dereferenceable(8) %ref.tmp9, %"class.std::tuple.229"* nonnull dereferenceable(1) %ref.tmp10)
  store %"struct.std::_Rb_tree_node_base"* %call12, %"struct.std::_Rb_tree_node_base"** %coerce.dive, align 8
  call void @llvm.lifetime.end.p0i8(i64 1, i8* nonnull %4) #18
  call void @llvm.lifetime.end.p0i8(i64 8, i8* nonnull %3) #18
  br label %if.end

if.end:                                           ; preds = %if.then, %lor.rhs
  %call14 = call dereferenceable(104) %"struct.std::pair.307"* @_ZNKSt17_Rb_tree_iteratorISt4pairIKmN2cv3MatEEEdeEv(%"struct.std::_Rb_tree_iterator.306"* nonnull %__i) #18
  %second = getelementptr inbounds %"struct.std::pair.307", %"struct.std::pair.307"* %call14, i64 0, i32 1
  call void @llvm.lifetime.end.p0i8(i64 8, i8* nonnull %0) #18
  ret %"class.cv::Mat"* %second
}

; Function Attrs: inlinehint nounwind uwtable
define linkonce_odr dso_local dereferenceable(96) %"class.cv::Mat"* @_ZN2cv3MataSEOS0_(%"class.cv::Mat"* %this, %"class.cv::Mat"* dereferenceable(96) %m) local_unnamed_addr #4 comdat align 2 {
entry:
  %cmp = icmp eq %"class.cv::Mat"* %this, %m
  br i1 %cmp, label %return, label %if.end

if.end:                                           ; preds = %entry
  tail call void @_ZN2cv3Mat7releaseEv(%"class.cv::Mat"* %this)
  %flags = getelementptr inbounds %"class.cv::Mat", %"class.cv::Mat"* %m, i64 0, i32 0
  %0 = load i32, i32* %flags, align 8, !tbaa !71
  %flags2 = getelementptr inbounds %"class.cv::Mat", %"class.cv::Mat"* %this, i64 0, i32 0
  store i32 %0, i32* %flags2, align 8, !tbaa !71
  %dims = getelementptr inbounds %"class.cv::Mat", %"class.cv::Mat"* %m, i64 0, i32 1
  %1 = load i32, i32* %dims, align 4, !tbaa !72
  %dims3 = getelementptr inbounds %"class.cv::Mat", %"class.cv::Mat"* %this, i64 0, i32 1
  store i32 %1, i32* %dims3, align 4, !tbaa !72
  %rows = getelementptr inbounds %"class.cv::Mat", %"class.cv::Mat"* %m, i64 0, i32 2
  %2 = load i32, i32* %rows, align 8, !tbaa !60
  %rows4 = getelementptr inbounds %"class.cv::Mat", %"class.cv::Mat"* %this, i64 0, i32 2
  store i32 %2, i32* %rows4, align 8, !tbaa !60
  %cols = getelementptr inbounds %"class.cv::Mat", %"class.cv::Mat"* %m, i64 0, i32 3
  %3 = load i32, i32* %cols, align 4, !tbaa !65
  %cols5 = getelementptr inbounds %"class.cv::Mat", %"class.cv::Mat"* %this, i64 0, i32 3
  store i32 %3, i32* %cols5, align 4, !tbaa !65
  %data = getelementptr inbounds %"class.cv::Mat", %"class.cv::Mat"* %m, i64 0, i32 4
  %4 = bitcast i8** %data to i64*
  %5 = load i64, i64* %4, align 8, !tbaa !73
  %data6 = getelementptr inbounds %"class.cv::Mat", %"class.cv::Mat"* %this, i64 0, i32 4
  %6 = bitcast i8** %data6 to i64*
  store i64 %5, i64* %6, align 8, !tbaa !73
  %datastart = getelementptr inbounds %"class.cv::Mat", %"class.cv::Mat"* %m, i64 0, i32 5
  %7 = bitcast i8** %datastart to i64*
  %8 = load i64, i64* %7, align 8, !tbaa !74
  %datastart7 = getelementptr inbounds %"class.cv::Mat", %"class.cv::Mat"* %this, i64 0, i32 5
  %9 = bitcast i8** %datastart7 to i64*
  store i64 %8, i64* %9, align 8, !tbaa !74
  %dataend = getelementptr inbounds %"class.cv::Mat", %"class.cv::Mat"* %m, i64 0, i32 6
  %10 = bitcast i8** %dataend to i64*
  %11 = load i64, i64* %10, align 8, !tbaa !75
  %dataend8 = getelementptr inbounds %"class.cv::Mat", %"class.cv::Mat"* %this, i64 0, i32 6
  %12 = bitcast i8** %dataend8 to i64*
  store i64 %11, i64* %12, align 8, !tbaa !75
  %datalimit = getelementptr inbounds %"class.cv::Mat", %"class.cv::Mat"* %m, i64 0, i32 7
  %13 = bitcast i8** %datalimit to i64*
  %14 = load i64, i64* %13, align 8, !tbaa !76
  %datalimit9 = getelementptr inbounds %"class.cv::Mat", %"class.cv::Mat"* %this, i64 0, i32 7
  %15 = bitcast i8** %datalimit9 to i64*
  store i64 %14, i64* %15, align 8, !tbaa !76
  %allocator = getelementptr inbounds %"class.cv::Mat", %"class.cv::Mat"* %m, i64 0, i32 8
  %16 = bitcast %"class.cv::MatAllocator"** %allocator to i64*
  %17 = load i64, i64* %16, align 8, !tbaa !77
  %allocator10 = getelementptr inbounds %"class.cv::Mat", %"class.cv::Mat"* %this, i64 0, i32 8
  %18 = bitcast %"class.cv::MatAllocator"** %allocator10 to i64*
  store i64 %17, i64* %18, align 8, !tbaa !77
  %u = getelementptr inbounds %"class.cv::Mat", %"class.cv::Mat"* %m, i64 0, i32 9
  %19 = bitcast %"struct.cv::UMatData"** %u to i64*
  %20 = load i64, i64* %19, align 8, !tbaa !78
  %u11 = getelementptr inbounds %"class.cv::Mat", %"class.cv::Mat"* %this, i64 0, i32 9
  %21 = bitcast %"struct.cv::UMatData"** %u11 to i64*
  store i64 %20, i64* %21, align 8, !tbaa !78
  %step = getelementptr inbounds %"class.cv::Mat", %"class.cv::Mat"* %this, i64 0, i32 11
  %p = getelementptr inbounds %"struct.cv::MatStep", %"struct.cv::MatStep"* %step, i64 0, i32 0
  %22 = load i64*, i64** %p, align 8, !tbaa !79
  %arraydecay = getelementptr inbounds %"class.cv::Mat", %"class.cv::Mat"* %this, i64 0, i32 11, i32 1, i64 0
  %cmp13 = icmp eq i64* %22, %arraydecay
  br i1 %cmp13, label %if.end24, label %if.then14

if.then14:                                        ; preds = %if.end
  %23 = bitcast i64* %22 to i8*
  tail call void @_ZN2cv8fastFreeEPv(i8* %23) #18
  store i64* %arraydecay, i64** %p, align 8, !tbaa !79
  %p23 = getelementptr inbounds %"class.cv::Mat", %"class.cv::Mat"* %this, i64 0, i32 10, i32 0
  store i32* %rows4, i32** %p23, align 8, !tbaa !80
  br label %if.end24

if.end24:                                         ; preds = %if.end, %if.then14
  %24 = load i32, i32* %dims, align 4, !tbaa !72
  %cmp26 = icmp slt i32 %24, 3
  %step28 = getelementptr inbounds %"class.cv::Mat", %"class.cv::Mat"* %m, i64 0, i32 11
  br i1 %cmp26, label %if.then27, label %if.else

if.then27:                                        ; preds = %if.end24
  %call = tail call dereferenceable(8) i64* @_ZN2cv7MatStepixEi(%"struct.cv::MatStep"* nonnull %step28, i32 0)
  %25 = load i64, i64* %call, align 8, !tbaa !11
  %call30 = tail call dereferenceable(8) i64* @_ZN2cv7MatStepixEi(%"struct.cv::MatStep"* nonnull %step, i32 0)
  store i64 %25, i64* %call30, align 8, !tbaa !11
  %call32 = tail call dereferenceable(8) i64* @_ZN2cv7MatStepixEi(%"struct.cv::MatStep"* nonnull %step28, i32 1)
  %26 = load i64, i64* %call32, align 8, !tbaa !11
  %call34 = tail call dereferenceable(8) i64* @_ZN2cv7MatStepixEi(%"struct.cv::MatStep"* nonnull %step, i32 1)
  store i64 %26, i64* %call34, align 8, !tbaa !11
  br label %if.end51

if.else:                                          ; preds = %if.end24
  %p36 = getelementptr inbounds %"struct.cv::MatStep", %"struct.cv::MatStep"* %step28, i64 0, i32 0
  %27 = bitcast %"struct.cv::MatStep"* %step28 to i64*
  %28 = load i64, i64* %27, align 8, !tbaa !79
  %29 = bitcast %"struct.cv::MatStep"* %step to i64*
  store i64 %28, i64* %29, align 8, !tbaa !79
  %p40 = getelementptr inbounds %"class.cv::Mat", %"class.cv::Mat"* %m, i64 0, i32 10, i32 0
  %30 = bitcast i32** %p40 to i64*
  %31 = load i64, i64* %30, align 8, !tbaa !80
  %size41 = getelementptr inbounds %"class.cv::Mat", %"class.cv::Mat"* %this, i64 0, i32 10
  %32 = bitcast %"struct.cv::MatSize"* %size41 to i64*
  store i64 %31, i64* %32, align 8, !tbaa !80
  %arraydecay45 = getelementptr inbounds %"class.cv::Mat", %"class.cv::Mat"* %m, i64 0, i32 11, i32 1, i64 0
  store i64* %arraydecay45, i64** %p36, align 8, !tbaa !79
  store i32* %rows, i32** %p40, align 8, !tbaa !80
  br label %if.end51

if.end51:                                         ; preds = %if.else, %if.then27
  store i32 1124007936, i32* %flags, align 8, !tbaa !71
  %33 = bitcast i32* %dims to i8*
  call void @llvm.memset.p0i8.i64(i8* nonnull align 4 %33, i8 0, i64 60, i1 false)
  br label %return

return:                                           ; preds = %entry, %if.end51
  ret %"class.cv::Mat"* %this
}

; Function Attrs: inlinehint nounwind uwtable
define linkonce_odr dso_local void @_ZN2cv3MatD2Ev(%"class.cv::Mat"* %this) unnamed_addr #4 comdat align 2 {
entry:
  tail call void @_ZN2cv3Mat7releaseEv(%"class.cv::Mat"* %this)
  %p = getelementptr inbounds %"class.cv::Mat", %"class.cv::Mat"* %this, i64 0, i32 11, i32 0
  %0 = load i64*, i64** %p, align 8, !tbaa !79
  %arraydecay = getelementptr inbounds %"class.cv::Mat", %"class.cv::Mat"* %this, i64 0, i32 11, i32 1, i64 0
  %cmp = icmp eq i64* %0, %arraydecay
  br i1 %cmp, label %if.end, label %if.then

if.then:                                          ; preds = %entry
  %1 = bitcast i64* %0 to i8*
  tail call void @_ZN2cv8fastFreeEPv(i8* %1) #18
  br label %if.end

if.end:                                           ; preds = %entry, %if.then
  ret void
}

; Function Attrs: nounwind uwtable
define linkonce_odr dso_local dereferenceable(24) %"class.std::vector.78"* @_ZNSt3mapImSt6vectorIN2cv3MatESaIS2_EESt4lessImESaISt4pairIKmS4_EEEixERS8_(%"class.std::map.73"* %this, i64* dereferenceable(8) %__k) local_unnamed_addr #0 comdat align 2 {
entry:
  %__i = alloca %"struct.std::_Rb_tree_iterator.313", align 8
  %ref.tmp = alloca %"struct.std::_Rb_tree_iterator.313", align 8
  %ref.tmp5 = alloca %"struct.std::less", align 1
  %agg.tmp = alloca %"struct.std::_Rb_tree_const_iterator.315", align 8
  %ref.tmp9 = alloca %"class.std::tuple", align 8
  %ref.tmp10 = alloca %"class.std::tuple.229", align 1
  %0 = bitcast %"struct.std::_Rb_tree_iterator.313"* %__i to i8*
  call void @llvm.lifetime.start.p0i8(i64 8, i8* nonnull %0) #18
  %call = tail call %"struct.std::_Rb_tree_node_base"* @_ZNSt3mapImSt6vectorIN2cv3MatESaIS2_EESt4lessImESaISt4pairIKmS4_EEE11lower_boundERS8_(%"class.std::map.73"* %this, i64* nonnull dereferenceable(8) %__k)
  %coerce.dive = getelementptr inbounds %"struct.std::_Rb_tree_iterator.313", %"struct.std::_Rb_tree_iterator.313"* %__i, i64 0, i32 0
  store %"struct.std::_Rb_tree_node_base"* %call, %"struct.std::_Rb_tree_node_base"** %coerce.dive, align 8
  %1 = bitcast %"struct.std::_Rb_tree_iterator.313"* %ref.tmp to i8*
  call void @llvm.lifetime.start.p0i8(i64 8, i8* nonnull %1) #18
  %call2 = tail call %"struct.std::_Rb_tree_node_base"* @_ZNSt3mapImSt6vectorIN2cv3MatESaIS2_EESt4lessImESaISt4pairIKmS4_EEE3endEv(%"class.std::map.73"* %this) #18
  %coerce.dive3 = getelementptr inbounds %"struct.std::_Rb_tree_iterator.313", %"struct.std::_Rb_tree_iterator.313"* %ref.tmp, i64 0, i32 0
  store %"struct.std::_Rb_tree_node_base"* %call2, %"struct.std::_Rb_tree_node_base"** %coerce.dive3, align 8
  %call4 = call zeroext i1 @_ZNKSt17_Rb_tree_iteratorISt4pairIKmSt6vectorIN2cv3MatESaIS4_EEEEeqERKS8_(%"struct.std::_Rb_tree_iterator.313"* nonnull %__i, %"struct.std::_Rb_tree_iterator.313"* nonnull dereferenceable(8) %ref.tmp) #18
  %2 = getelementptr inbounds %"struct.std::less", %"struct.std::less"* %ref.tmp5, i64 0, i32 0
  call void @llvm.lifetime.start.p0i8(i64 1, i8* nonnull %2) #18
  br i1 %call4, label %if.then.critedge, label %lor.rhs

lor.rhs:                                          ; preds = %entry
  call void @_ZNKSt3mapImSt6vectorIN2cv3MatESaIS2_EESt4lessImESaISt4pairIKmS4_EEE8key_compEv(%"class.std::map.73"* %this)
  %call6 = call dereferenceable(32) %"struct.std::pair.314"* @_ZNKSt17_Rb_tree_iteratorISt4pairIKmSt6vectorIN2cv3MatESaIS4_EEEEdeEv(%"struct.std::_Rb_tree_iterator.313"* nonnull %__i) #18
  %first = getelementptr inbounds %"struct.std::pair.314", %"struct.std::pair.314"* %call6, i64 0, i32 0
  %call7 = call zeroext i1 @_ZNKSt4lessImEclERKmS2_(%"struct.std::less"* nonnull %ref.tmp5, i64* nonnull dereferenceable(8) %__k, i64* nonnull dereferenceable(8) %first)
  call void @llvm.lifetime.end.p0i8(i64 1, i8* nonnull %2) #18
  call void @llvm.lifetime.end.p0i8(i64 8, i8* nonnull %1) #18
  br i1 %call7, label %if.then, label %if.end

if.then.critedge:                                 ; preds = %entry
  call void @llvm.lifetime.end.p0i8(i64 1, i8* nonnull %2) #18
  call void @llvm.lifetime.end.p0i8(i64 8, i8* nonnull %1) #18
  br label %if.then

if.then:                                          ; preds = %if.then.critedge, %lor.rhs
  %_M_t = getelementptr inbounds %"class.std::map.73", %"class.std::map.73"* %this, i64 0, i32 0
  call void @_ZNSt23_Rb_tree_const_iteratorISt4pairIKmSt6vectorIN2cv3MatESaIS4_EEEEC2ERKSt17_Rb_tree_iteratorIS7_E(%"struct.std::_Rb_tree_const_iterator.315"* nonnull %agg.tmp, %"struct.std::_Rb_tree_iterator.313"* nonnull dereferenceable(8) %__i) #18
  %3 = bitcast %"class.std::tuple"* %ref.tmp9 to i8*
  call void @llvm.lifetime.start.p0i8(i64 8, i8* nonnull %3) #18
  call void @_ZNSt5tupleIJRKmEEC2ES1_(%"class.std::tuple"* nonnull %ref.tmp9, i64* nonnull dereferenceable(8) %__k)
  %4 = getelementptr inbounds %"class.std::tuple.229", %"class.std::tuple.229"* %ref.tmp10, i64 0, i32 0
  call void @llvm.lifetime.start.p0i8(i64 1, i8* nonnull %4) #18
  %coerce.dive11 = getelementptr inbounds %"struct.std::_Rb_tree_const_iterator.315", %"struct.std::_Rb_tree_const_iterator.315"* %agg.tmp, i64 0, i32 0
  %5 = load %"struct.std::_Rb_tree_node_base"*, %"struct.std::_Rb_tree_node_base"** %coerce.dive11, align 8
  %call12 = call %"struct.std::_Rb_tree_node_base"* @_ZNSt8_Rb_treeImSt4pairIKmSt6vectorIN2cv3MatESaIS4_EEESt10_Select1stIS7_ESt4lessImESaIS7_EE22_M_emplace_hint_uniqueIJRKSt21piecewise_construct_tSt5tupleIJRS1_EESI_IJEEEEESt17_Rb_tree_iteratorIS7_ESt23_Rb_tree_const_iteratorIS7_EDpOT_(%"class.std::_Rb_tree.74"* %_M_t, %"struct.std::_Rb_tree_node_base"* %5, %"struct.std::piecewise_construct_t"* nonnull dereferenceable(1) @_ZStL19piecewise_construct, %"class.std::tuple"* nonnull dereferenceable(8) %ref.tmp9, %"class.std::tuple.229"* nonnull dereferenceable(1) %ref.tmp10)
  store %"struct.std::_Rb_tree_node_base"* %call12, %"struct.std::_Rb_tree_node_base"** %coerce.dive, align 8
  call void @llvm.lifetime.end.p0i8(i64 1, i8* nonnull %4) #18
  call void @llvm.lifetime.end.p0i8(i64 8, i8* nonnull %3) #18
  br label %if.end

if.end:                                           ; preds = %if.then, %lor.rhs
  %call14 = call dereferenceable(32) %"struct.std::pair.314"* @_ZNKSt17_Rb_tree_iteratorISt4pairIKmSt6vectorIN2cv3MatESaIS4_EEEEdeEv(%"struct.std::_Rb_tree_iterator.313"* nonnull %__i) #18
  %second = getelementptr inbounds %"struct.std::pair.314", %"struct.std::pair.314"* %call14, i64 0, i32 1
  call void @llvm.lifetime.end.p0i8(i64 8, i8* nonnull %0) #18
  ret %"class.std::vector.78"* %second
}

; Function Attrs: nounwind uwtable
define linkonce_odr dso_local dereferenceable(24) %"class.std::vector.78"* @_ZNSt6vectorIN2cv3MatESaIS1_EEaSERKS3_(%"class.std::vector.78"* %this, %"class.std::vector.78"* dereferenceable(24) %__x) local_unnamed_addr #0 comdat align 2 {
entry:
  %cmp = icmp eq %"class.std::vector.78"* %__x, %this
  br i1 %cmp, label %if.end75, label %if.then

if.then:                                          ; preds = %entry
  %call = tail call i64 @_ZNKSt6vectorIN2cv3MatESaIS1_EE4sizeEv(%"class.std::vector.78"* nonnull %__x) #18
  %call2 = tail call i64 @_ZNKSt6vectorIN2cv3MatESaIS1_EE8capacityEv(%"class.std::vector.78"* %this) #18
  %cmp3 = icmp ugt i64 %call, %call2
  br i1 %cmp3, label %if.then4, label %if.else

if.then4:                                         ; preds = %if.then
  %call5 = tail call %"class.cv::Mat"* @_ZNKSt6vectorIN2cv3MatESaIS1_EE5beginEv(%"class.std::vector.78"* nonnull %__x) #18
  %call7 = tail call %"class.cv::Mat"* @_ZNKSt6vectorIN2cv3MatESaIS1_EE3endEv(%"class.std::vector.78"* nonnull %__x) #18
  %call11 = tail call %"class.cv::Mat"* @_ZNSt6vectorIN2cv3MatESaIS1_EE20_M_allocate_and_copyIN9__gnu_cxx17__normal_iteratorIPKS1_S3_EEEEPS1_mT_SB_(%"class.std::vector.78"* %this, i64 %call, %"class.cv::Mat"* %call5, %"class.cv::Mat"* %call7)
  %0 = getelementptr inbounds %"class.std::vector.78", %"class.std::vector.78"* %this, i64 0, i32 0
  %_M_start = getelementptr inbounds %"class.std::vector.78", %"class.std::vector.78"* %this, i64 0, i32 0, i32 0, i32 0
  %1 = load %"class.cv::Mat"*, %"class.cv::Mat"** %_M_start, align 8, !tbaa !81
  %_M_finish = getelementptr inbounds %"class.std::vector.78", %"class.std::vector.78"* %this, i64 0, i32 0, i32 0, i32 1
  %2 = load %"class.cv::Mat"*, %"class.cv::Mat"** %_M_finish, align 8, !tbaa !84
  %call13 = tail call dereferenceable(1) %"class.std::allocator.80"* @_ZNSt12_Vector_baseIN2cv3MatESaIS1_EE19_M_get_Tp_allocatorEv(%"struct.std::_Vector_base.79"* %0) #18
  tail call void @_ZSt8_DestroyIPN2cv3MatES1_EvT_S3_RSaIT0_E(%"class.cv::Mat"* %1, %"class.cv::Mat"* %2, %"class.std::allocator.80"* nonnull dereferenceable(1) %call13)
  %3 = load %"class.cv::Mat"*, %"class.cv::Mat"** %_M_start, align 8, !tbaa !81
  %_M_end_of_storage = getelementptr inbounds %"class.std::vector.78", %"class.std::vector.78"* %this, i64 0, i32 0, i32 0, i32 2
  %4 = bitcast %"class.cv::Mat"** %_M_end_of_storage to i64*
  %5 = load i64, i64* %4, align 8, !tbaa !85
  %sub.ptr.rhs.cast = ptrtoint %"class.cv::Mat"* %3 to i64
  %sub.ptr.sub = sub i64 %5, %sub.ptr.rhs.cast
  %sub.ptr.div = sdiv exact i64 %sub.ptr.sub, 96
  tail call void @_ZNSt12_Vector_baseIN2cv3MatESaIS1_EE13_M_deallocateEPS1_m(%"struct.std::_Vector_base.79"* %0, %"class.cv::Mat"* %3, i64 %sub.ptr.div)
  store %"class.cv::Mat"* %call11, %"class.cv::Mat"** %_M_start, align 8, !tbaa !81
  %add.ptr = getelementptr inbounds %"class.cv::Mat", %"class.cv::Mat"* %call11, i64 %call
  store %"class.cv::Mat"* %add.ptr, %"class.cv::Mat"** %_M_end_of_storage, align 8, !tbaa !85
  br label %if.end69

if.else:                                          ; preds = %if.then
  %call25 = tail call i64 @_ZNKSt6vectorIN2cv3MatESaIS1_EE4sizeEv(%"class.std::vector.78"* %this) #18
  %cmp26 = icmp ult i64 %call25, %call
  br i1 %cmp26, label %if.else49, label %if.then27

if.then27:                                        ; preds = %if.else
  %call30 = tail call %"class.cv::Mat"* @_ZNKSt6vectorIN2cv3MatESaIS1_EE5beginEv(%"class.std::vector.78"* nonnull %__x) #18
  %call33 = tail call %"class.cv::Mat"* @_ZNKSt6vectorIN2cv3MatESaIS1_EE3endEv(%"class.std::vector.78"* nonnull %__x) #18
  %call36 = tail call %"class.cv::Mat"* @_ZNSt6vectorIN2cv3MatESaIS1_EE5beginEv(%"class.std::vector.78"* %this) #18
  %call41 = tail call %"class.cv::Mat"* @_ZSt4copyIN9__gnu_cxx17__normal_iteratorIPKN2cv3MatESt6vectorIS3_SaIS3_EEEENS1_IPS3_S8_EEET0_T_SD_SC_(%"class.cv::Mat"* %call30, %"class.cv::Mat"* %call33, %"class.cv::Mat"* %call36)
  %call44 = tail call %"class.cv::Mat"* @_ZNSt6vectorIN2cv3MatESaIS1_EE3endEv(%"class.std::vector.78"* %this) #18
  %6 = getelementptr inbounds %"class.std::vector.78", %"class.std::vector.78"* %this, i64 0, i32 0
  %call46 = tail call dereferenceable(1) %"class.std::allocator.80"* @_ZNSt12_Vector_baseIN2cv3MatESaIS1_EE19_M_get_Tp_allocatorEv(%"struct.std::_Vector_base.79"* %6) #18
  tail call void @_ZSt8_DestroyIN9__gnu_cxx17__normal_iteratorIPN2cv3MatESt6vectorIS3_SaIS3_EEEES3_EvT_S9_RSaIT0_E(%"class.cv::Mat"* %call41, %"class.cv::Mat"* %call44, %"class.std::allocator.80"* nonnull dereferenceable(1) %call46)
  br label %if.end69

if.else49:                                        ; preds = %if.else
  %_M_start51 = getelementptr inbounds %"class.std::vector.78", %"class.std::vector.78"* %__x, i64 0, i32 0, i32 0, i32 0
  %7 = load %"class.cv::Mat"*, %"class.cv::Mat"** %_M_start51, align 8, !tbaa !81
  %call54 = tail call i64 @_ZNKSt6vectorIN2cv3MatESaIS1_EE4sizeEv(%"class.std::vector.78"* %this) #18
  %add.ptr55 = getelementptr inbounds %"class.cv::Mat", %"class.cv::Mat"* %7, i64 %call54
  %8 = getelementptr inbounds %"class.std::vector.78", %"class.std::vector.78"* %this, i64 0, i32 0
  %_M_start57 = getelementptr inbounds %"class.std::vector.78", %"class.std::vector.78"* %this, i64 0, i32 0, i32 0, i32 0
  %9 = load %"class.cv::Mat"*, %"class.cv::Mat"** %_M_start57, align 8, !tbaa !81
  %call58 = tail call %"class.cv::Mat"* @_ZSt4copyIPN2cv3MatES2_ET0_T_S4_S3_(%"class.cv::Mat"* %7, %"class.cv::Mat"* %add.ptr55, %"class.cv::Mat"* %9)
  %10 = load %"class.cv::Mat"*, %"class.cv::Mat"** %_M_start51, align 8, !tbaa !81
  %call61 = tail call i64 @_ZNKSt6vectorIN2cv3MatESaIS1_EE4sizeEv(%"class.std::vector.78"* %this) #18
  %add.ptr62 = getelementptr inbounds %"class.cv::Mat", %"class.cv::Mat"* %10, i64 %call61
  %_M_finish64 = getelementptr inbounds %"class.std::vector.78", %"class.std::vector.78"* %__x, i64 0, i32 0, i32 0, i32 1
  %11 = load %"class.cv::Mat"*, %"class.cv::Mat"** %_M_finish64, align 8, !tbaa !84
  %_M_finish66 = getelementptr inbounds %"class.std::vector.78", %"class.std::vector.78"* %this, i64 0, i32 0, i32 0, i32 1
  %12 = load %"class.cv::Mat"*, %"class.cv::Mat"** %_M_finish66, align 8, !tbaa !84
  %call67 = tail call dereferenceable(1) %"class.std::allocator.80"* @_ZNSt12_Vector_baseIN2cv3MatESaIS1_EE19_M_get_Tp_allocatorEv(%"struct.std::_Vector_base.79"* %8) #18
  %call68 = tail call %"class.cv::Mat"* @_ZSt22__uninitialized_copy_aIPN2cv3MatES2_S1_ET0_T_S4_S3_RSaIT1_E(%"class.cv::Mat"* %add.ptr62, %"class.cv::Mat"* %11, %"class.cv::Mat"* %12, %"class.std::allocator.80"* nonnull dereferenceable(1) %call67)
  br label %if.end69

if.end69:                                         ; preds = %if.then27, %if.else49, %if.then4
  %_M_start71 = getelementptr inbounds %"class.std::vector.78", %"class.std::vector.78"* %this, i64 0, i32 0, i32 0, i32 0
  %13 = load %"class.cv::Mat"*, %"class.cv::Mat"** %_M_start71, align 8, !tbaa !81
  %add.ptr72 = getelementptr inbounds %"class.cv::Mat", %"class.cv::Mat"* %13, i64 %call
  %_M_finish74 = getelementptr inbounds %"class.std::vector.78", %"class.std::vector.78"* %this, i64 0, i32 0, i32 0, i32 1
  store %"class.cv::Mat"* %add.ptr72, %"class.cv::Mat"** %_M_finish74, align 8, !tbaa !84
  br label %if.end75

if.end75:                                         ; preds = %entry, %if.end69
  ret %"class.std::vector.78"* %this
}

; Function Attrs: nounwind uwtable
define linkonce_odr dso_local void @_ZNSt6vectorIhSaIhEEC2Ev(%"class.std::vector.93"* %this) unnamed_addr #0 comdat align 2 {
entry:
  %0 = getelementptr inbounds %"class.std::vector.93", %"class.std::vector.93"* %this, i64 0, i32 0
  tail call void @_ZNSt12_Vector_baseIhSaIhEEC2Ev(%"struct.std::_Vector_base.94"* %0)
  ret void
}

; Function Attrs: nounwind uwtable
define linkonce_odr dso_local void @_ZNSt6vectorIN2cv8KeyPointESaIS1_EEC2ERKS3_(%"class.std::vector.83"* %this, %"class.std::vector.83"* dereferenceable(24) %__x) unnamed_addr #0 comdat align 2 {
entry:
  %ref.tmp = alloca %"class.std::allocator.85", align 1
  %0 = getelementptr inbounds %"class.std::vector.83", %"class.std::vector.83"* %this, i64 0, i32 0
  %call = tail call i64 @_ZNKSt6vectorIN2cv8KeyPointESaIS1_EE4sizeEv(%"class.std::vector.83"* nonnull %__x) #18
  %1 = getelementptr inbounds %"class.std::allocator.85", %"class.std::allocator.85"* %ref.tmp, i64 0, i32 0
  call void @llvm.lifetime.start.p0i8(i64 1, i8* nonnull %1) #18
  %2 = getelementptr inbounds %"class.std::vector.83", %"class.std::vector.83"* %__x, i64 0, i32 0
  %call2 = tail call dereferenceable(1) %"class.std::allocator.85"* @_ZNKSt12_Vector_baseIN2cv8KeyPointESaIS1_EE19_M_get_Tp_allocatorEv(%"struct.std::_Vector_base.84"* nonnull %2) #18
  call void @_ZN9__gnu_cxx14__alloc_traitsISaIN2cv8KeyPointEEE17_S_select_on_copyERKS3_(%"class.std::allocator.85"* nonnull sret %ref.tmp, %"class.std::allocator.85"* nonnull dereferenceable(1) %call2)
  call void @_ZNSt12_Vector_baseIN2cv8KeyPointESaIS1_EEC2EmRKS2_(%"struct.std::_Vector_base.84"* %0, i64 %call, %"class.std::allocator.85"* nonnull dereferenceable(1) %ref.tmp)
  %3 = bitcast %"class.std::allocator.85"* %ref.tmp to %"class.__gnu_cxx::new_allocator.86"*
  call void @_ZN9__gnu_cxx13new_allocatorIN2cv8KeyPointEED2Ev(%"class.__gnu_cxx::new_allocator.86"* nonnull %3) #18
  call void @llvm.lifetime.end.p0i8(i64 1, i8* nonnull %1) #18
  %call3 = call %"class.cv::KeyPoint"* @_ZNKSt6vectorIN2cv8KeyPointESaIS1_EE5beginEv(%"class.std::vector.83"* nonnull %__x) #18
  %call5 = call %"class.cv::KeyPoint"* @_ZNKSt6vectorIN2cv8KeyPointESaIS1_EE3endEv(%"class.std::vector.83"* nonnull %__x) #18
  %_M_start = getelementptr inbounds %"class.std::vector.83", %"class.std::vector.83"* %this, i64 0, i32 0, i32 0, i32 0
  %4 = load %"class.cv::KeyPoint"*, %"class.cv::KeyPoint"** %_M_start, align 8, !tbaa !86
  %call7 = call dereferenceable(1) %"class.std::allocator.85"* @_ZNSt12_Vector_baseIN2cv8KeyPointESaIS1_EE19_M_get_Tp_allocatorEv(%"struct.std::_Vector_base.84"* %0) #18
  %call10 = call %"class.cv::KeyPoint"* @_ZSt22__uninitialized_copy_aIN9__gnu_cxx17__normal_iteratorIPKN2cv8KeyPointESt6vectorIS3_SaIS3_EEEEPS3_S3_ET0_T_SC_SB_RSaIT1_E(%"class.cv::KeyPoint"* %call3, %"class.cv::KeyPoint"* %call5, %"class.cv::KeyPoint"* %4, %"class.std::allocator.85"* nonnull dereferenceable(1) %call7)
  %_M_finish = getelementptr inbounds %"class.std::vector.83", %"class.std::vector.83"* %this, i64 0, i32 0, i32 0, i32 1
  store %"class.cv::KeyPoint"* %call10, %"class.cv::KeyPoint"** %_M_finish, align 8, !tbaa !89
  ret void
}

; Function Attrs: nounwind uwtable
define dso_local void @_ZN7ov_core8TrackKLT16perform_matchingERKSt6vectorIN2cv3MatESaIS3_EES7_RS1_INS2_8KeyPointESaIS8_EESB_mmRS1_IhSaIhEE(%"class.ov_core::TrackKLT"* %this, %"class.std::vector.78"* dereferenceable(24) %img0pyr, %"class.std::vector.78"* dereferenceable(24) %img1pyr, %"class.std::vector.83"* dereferenceable(24) %kpts0, %"class.std::vector.83"* dereferenceable(24) %kpts1, i64 %id0, i64 %id1, %"class.std::vector.93"* dereferenceable(24) %mask_out) #0 align 2 {
entry:
  %id0.addr = alloca i64, align 8
  %id1.addr = alloca i64, align 8
  %pts0 = alloca %"class.std::vector.138", align 8
  %pts1 = alloca %"class.std::vector.138", align 8
  %ref.tmp = alloca i8, align 1
  %mask_klt = alloca %"class.std::vector.93", align 8
  %error = alloca %"class.std::vector.143", align 8
  %term_crit = alloca %"class.cv::TermCriteria", align 8
  %ref.tmp23 = alloca %"class.cv::_InputArray", align 8
  %ref.tmp24 = alloca %"class.cv::_InputArray", align 8
  %ref.tmp25 = alloca %"class.cv::_InputArray", align 8
  %ref.tmp26 = alloca %"class.cv::_InputOutputArray", align 8
  %ref.tmp27 = alloca %"class.cv::_OutputArray", align 8
  %ref.tmp28 = alloca %"class.cv::_OutputArray", align 8
  %agg.tmp = alloca %"class.cv::Size_", align 4
  %pts0_n = alloca %"class.std::vector.138", align 8
  %pts1_n = alloca %"class.std::vector.138", align 8
  %ref.tmp36 = alloca %"class.cv::Point_", align 4
  %agg.tmp37 = alloca %"class.cv::Point_", align 4
  %ref.tmp39 = alloca %"class.cv::Point_", align 4
  %agg.tmp40 = alloca %"class.cv::Point_", align 4
  %mask_rsc = alloca %"class.std::vector.93", align 8
  %max_focallength_img0 = alloca double, align 8
  %max_focallength_img1 = alloca double, align 8
  %agg.tmp.ensured = alloca %"class.cv::Mat", align 8
  %ref.tmp59 = alloca %"class.cv::_InputArray", align 8
  %ref.tmp60 = alloca %"class.cv::_InputArray", align 8
  %ref.tmp61 = alloca %"class.cv::_OutputArray", align 8
  %mask = alloca i8, align 1
  store i64 %id0, i64* %id0.addr, align 8, !tbaa !11
  store i64 %id1, i64* %id1.addr, align 8, !tbaa !11
  %call = tail call i64 @_ZNKSt6vectorIN2cv8KeyPointESaIS1_EE4sizeEv(%"class.std::vector.83"* nonnull %kpts0) #18
  %call2 = tail call i64 @_ZNKSt6vectorIN2cv8KeyPointESaIS1_EE4sizeEv(%"class.std::vector.83"* nonnull %kpts1) #18
  %cmp = icmp eq i64 %call, %call2
  br i1 %cmp, label %cond.end, label %cond.false

cond.false:                                       ; preds = %entry
  tail call void @__assert_fail(i8* getelementptr inbounds ([29 x i8], [29 x i8]* @.str.26, i64 0, i64 0), i8* getelementptr inbounds ([13 x i8], [13 x i8]* @.str.27, i64 0, i64 0), i32 622, i8* getelementptr inbounds ([207 x i8], [207 x i8]* @__PRETTY_FUNCTION__._ZN7ov_core8TrackKLT16perform_matchingERKSt6vectorIN2cv3MatESaIS3_EES7_RS1_INS2_8KeyPointESaIS8_EESB_mmRS1_IhSaIhEE, i64 0, i64 0)) #19
  unreachable

cond.end:                                         ; preds = %entry
  %call3 = tail call zeroext i1 @_ZNKSt6vectorIN2cv8KeyPointESaIS1_EE5emptyEv(%"class.std::vector.83"* nonnull %kpts0) #18
  br i1 %call3, label %cleanup.cont, label %lor.lhs.false

lor.lhs.false:                                    ; preds = %cond.end
  %call4 = tail call zeroext i1 @_ZNKSt6vectorIN2cv8KeyPointESaIS1_EE5emptyEv(%"class.std::vector.83"* nonnull %kpts1) #18
  br i1 %call4, label %cleanup.cont, label %if.end

if.end:                                           ; preds = %lor.lhs.false
  %0 = bitcast %"class.std::vector.138"* %pts0 to i8*
  call void @llvm.lifetime.start.p0i8(i64 24, i8* nonnull %0) #18
  call void @_ZNSt6vectorIN2cv6Point_IfEESaIS2_EEC2Ev(%"class.std::vector.138"* nonnull %pts0) #18
  %1 = bitcast %"class.std::vector.138"* %pts1 to i8*
  call void @llvm.lifetime.start.p0i8(i64 24, i8* nonnull %1) #18
  call void @_ZNSt6vectorIN2cv6Point_IfEESaIS2_EEC2Ev(%"class.std::vector.138"* nonnull %pts1) #18
  %call5143 = call i64 @_ZNKSt6vectorIN2cv8KeyPointESaIS1_EE4sizeEv(%"class.std::vector.83"* nonnull %kpts0) #18
  %cmp6144 = icmp eq i64 %call5143, 0
  br i1 %cmp6144, label %for.cond.cleanup, label %for.body

for.cond.cleanup:                                 ; preds = %for.body, %if.end
  %call10 = call i64 @_ZNKSt6vectorIN2cv6Point_IfEESaIS2_EE4sizeEv(%"class.std::vector.138"* nonnull %pts0) #18
  %cmp11 = icmp ult i64 %call10, 10
  br i1 %cmp11, label %for.cond14.preheader, label %if.end22

for.cond14.preheader:                             ; preds = %for.cond.cleanup
  %call15130 = call i64 @_ZNKSt6vectorIN2cv6Point_IfEESaIS2_EE4sizeEv(%"class.std::vector.138"* nonnull %pts0) #18
  %cmp16131 = icmp eq i64 %call15130, 0
  br i1 %cmp16131, label %cleanup, label %for.body18

for.body:                                         ; preds = %if.end, %for.body
  %i.0145 = phi i64 [ %inc, %for.body ], [ 0, %if.end ]
  %call7 = call dereferenceable(28) %"class.cv::KeyPoint"* @_ZNSt6vectorIN2cv8KeyPointESaIS1_EE2atEm(%"class.std::vector.83"* nonnull %kpts0, i64 %i.0145)
  %pt = getelementptr inbounds %"class.cv::KeyPoint", %"class.cv::KeyPoint"* %call7, i64 0, i32 0
  call void @_ZNSt6vectorIN2cv6Point_IfEESaIS2_EE9push_backERKS2_(%"class.std::vector.138"* nonnull %pts0, %"class.cv::Point_"* nonnull dereferenceable(8) %pt)
  %call8 = call dereferenceable(28) %"class.cv::KeyPoint"* @_ZNSt6vectorIN2cv8KeyPointESaIS1_EE2atEm(%"class.std::vector.83"* nonnull %kpts1, i64 %i.0145)
  %pt9 = getelementptr inbounds %"class.cv::KeyPoint", %"class.cv::KeyPoint"* %call8, i64 0, i32 0
  call void @_ZNSt6vectorIN2cv6Point_IfEESaIS2_EE9push_backERKS2_(%"class.std::vector.138"* nonnull %pts1, %"class.cv::Point_"* nonnull dereferenceable(8) %pt9)
  %inc = add nuw i64 %i.0145, 1
  %call5 = call i64 @_ZNKSt6vectorIN2cv8KeyPointESaIS1_EE4sizeEv(%"class.std::vector.83"* nonnull %kpts0) #18
  %cmp6 = icmp ult i64 %inc, %call5
  br i1 %cmp6, label %for.body, label %for.cond.cleanup

for.body18:                                       ; preds = %for.cond14.preheader, %for.body18
  %i13.0132 = phi i64 [ %inc20, %for.body18 ], [ 0, %for.cond14.preheader ]
  call void @llvm.lifetime.start.p0i8(i64 1, i8* nonnull %ref.tmp) #18
  store i8 0, i8* %ref.tmp, align 1, !tbaa !29
  call void @_ZNSt6vectorIhSaIhEE9push_backEOh(%"class.std::vector.93"* nonnull %mask_out, i8* nonnull dereferenceable(1) %ref.tmp)
  call void @llvm.lifetime.end.p0i8(i64 1, i8* nonnull %ref.tmp) #18
  %inc20 = add nuw i64 %i13.0132, 1
  %call15 = call i64 @_ZNKSt6vectorIN2cv6Point_IfEESaIS2_EE4sizeEv(%"class.std::vector.138"* nonnull %pts0) #18
  %cmp16 = icmp ult i64 %inc20, %call15
  br i1 %cmp16, label %for.body18, label %cleanup

if.end22:                                         ; preds = %for.cond.cleanup
  %2 = bitcast %"class.std::vector.93"* %mask_klt to i8*
  call void @llvm.lifetime.start.p0i8(i64 24, i8* nonnull %2) #18
  call void @_ZNSt6vectorIhSaIhEEC2Ev(%"class.std::vector.93"* nonnull %mask_klt) #18
  %3 = bitcast %"class.std::vector.143"* %error to i8*
  call void @llvm.lifetime.start.p0i8(i64 24, i8* nonnull %3) #18
  call void @_ZNSt6vectorIfSaIfEEC2Ev(%"class.std::vector.143"* nonnull %error) #18
  %4 = bitcast %"class.cv::TermCriteria"* %term_crit to i8*
  call void @llvm.lifetime.start.p0i8(i64 16, i8* nonnull %4) #18
  call void @_ZN2cv12TermCriteriaC2Eiid(%"class.cv::TermCriteria"* nonnull %term_crit, i32 3, i32 15, double 1.000000e-02)
  %5 = bitcast %"class.cv::_InputArray"* %ref.tmp23 to i8*
  call void @llvm.lifetime.start.p0i8(i64 24, i8* nonnull %5) #18
  call void @_ZN2cv11_InputArrayC2ERKSt6vectorINS_3MatESaIS2_EE(%"class.cv::_InputArray"* nonnull %ref.tmp23, %"class.std::vector.78"* nonnull dereferenceable(24) %img0pyr)
  %6 = bitcast %"class.cv::_InputArray"* %ref.tmp24 to i8*
  call void @llvm.lifetime.start.p0i8(i64 24, i8* nonnull %6) #18
  call void @_ZN2cv11_InputArrayC2ERKSt6vectorINS_3MatESaIS2_EE(%"class.cv::_InputArray"* nonnull %ref.tmp24, %"class.std::vector.78"* nonnull dereferenceable(24) %img1pyr)
  %7 = bitcast %"class.cv::_InputArray"* %ref.tmp25 to i8*
  call void @llvm.lifetime.start.p0i8(i64 24, i8* nonnull %7) #18
  call void @_ZN2cv11_InputArrayC2INS_6Point_IfEEEERKSt6vectorIT_SaIS5_EE(%"class.cv::_InputArray"* nonnull %ref.tmp25, %"class.std::vector.138"* nonnull dereferenceable(24) %pts0)
  %8 = bitcast %"class.cv::_InputOutputArray"* %ref.tmp26 to i8*
  call void @llvm.lifetime.start.p0i8(i64 24, i8* nonnull %8) #18
  call void @_ZN2cv17_InputOutputArrayC2INS_6Point_IfEEEERSt6vectorIT_SaIS5_EE(%"class.cv::_InputOutputArray"* nonnull %ref.tmp26, %"class.std::vector.138"* nonnull dereferenceable(24) %pts1)
  %9 = bitcast %"class.cv::_OutputArray"* %ref.tmp27 to i8*
  call void @llvm.lifetime.start.p0i8(i64 24, i8* nonnull %9) #18
  call void @_ZN2cv12_OutputArrayC2IhEERSt6vectorIT_SaIS3_EE(%"class.cv::_OutputArray"* nonnull %ref.tmp27, %"class.std::vector.93"* nonnull dereferenceable(24) %mask_klt)
  %10 = bitcast %"class.cv::_OutputArray"* %ref.tmp28 to i8*
  call void @llvm.lifetime.start.p0i8(i64 24, i8* nonnull %10) #18
  call void @_ZN2cv12_OutputArrayC2IfEERSt6vectorIT_SaIS3_EE(%"class.cv::_OutputArray"* nonnull %ref.tmp28, %"class.std::vector.143"* nonnull dereferenceable(24) %error)
  %win_size = getelementptr inbounds %"class.ov_core::TrackKLT", %"class.ov_core::TrackKLT"* %this, i64 0, i32 19
  call void @_ZN2cv5Size_IiEC2ERKS1_(%"class.cv::Size_"* nonnull %agg.tmp, %"class.cv::Size_"* nonnull dereferenceable(8) %win_size)
  %pyr_levels = getelementptr inbounds %"class.ov_core::TrackKLT", %"class.ov_core::TrackKLT"* %this, i64 0, i32 18
  %11 = load i32, i32* %pyr_levels, align 8, !tbaa !13
  call void @_ZN2cv20calcOpticalFlowPyrLKERKNS_11_InputArrayES2_S2_RKNS_17_InputOutputArrayERKNS_12_OutputArrayES8_NS_5Size_IiEEiNS_12TermCriteriaEid(%"class.cv::_InputArray"* nonnull dereferenceable(24) %ref.tmp23, %"class.cv::_InputArray"* nonnull dereferenceable(24) %ref.tmp24, %"class.cv::_InputArray"* nonnull dereferenceable(24) %ref.tmp25, %"class.cv::_InputOutputArray"* nonnull dereferenceable(24) %ref.tmp26, %"class.cv::_OutputArray"* nonnull dereferenceable(24) %ref.tmp27, %"class.cv::_OutputArray"* nonnull dereferenceable(24) %ref.tmp28, %"class.cv::Size_"* nonnull %agg.tmp, i32 %11, %"class.cv::TermCriteria"* nonnull byval(%"class.cv::TermCriteria") align 8 %term_crit, i32 4, double 1.000000e-04) #18
  %12 = getelementptr inbounds %"class.cv::_OutputArray", %"class.cv::_OutputArray"* %ref.tmp28, i64 0, i32 0
  call void @_ZN2cv11_InputArrayD2Ev(%"class.cv::_InputArray"* nonnull %12) #18
  call void @llvm.lifetime.end.p0i8(i64 24, i8* nonnull %10) #18
  %13 = getelementptr inbounds %"class.cv::_OutputArray", %"class.cv::_OutputArray"* %ref.tmp27, i64 0, i32 0
  call void @_ZN2cv11_InputArrayD2Ev(%"class.cv::_InputArray"* nonnull %13) #18
  call void @llvm.lifetime.end.p0i8(i64 24, i8* nonnull %9) #18
  %14 = getelementptr inbounds %"class.cv::_InputOutputArray", %"class.cv::_InputOutputArray"* %ref.tmp26, i64 0, i32 0, i32 0
  call void @_ZN2cv11_InputArrayD2Ev(%"class.cv::_InputArray"* nonnull %14) #18
  call void @llvm.lifetime.end.p0i8(i64 24, i8* nonnull %8) #18
  call void @_ZN2cv11_InputArrayD2Ev(%"class.cv::_InputArray"* nonnull %ref.tmp25) #18
  call void @llvm.lifetime.end.p0i8(i64 24, i8* nonnull %7) #18
  call void @_ZN2cv11_InputArrayD2Ev(%"class.cv::_InputArray"* nonnull %ref.tmp24) #18
  call void @llvm.lifetime.end.p0i8(i64 24, i8* nonnull %6) #18
  call void @_ZN2cv11_InputArrayD2Ev(%"class.cv::_InputArray"* nonnull %ref.tmp23) #18
  call void @llvm.lifetime.end.p0i8(i64 24, i8* nonnull %5) #18
  %15 = bitcast %"class.std::vector.138"* %pts0_n to i8*
  call void @llvm.lifetime.start.p0i8(i64 24, i8* nonnull %15) #18
  call void @_ZNSt6vectorIN2cv6Point_IfEESaIS2_EEC2Ev(%"class.std::vector.138"* nonnull %pts0_n) #18
  %16 = bitcast %"class.std::vector.138"* %pts1_n to i8*
  call void @llvm.lifetime.start.p0i8(i64 24, i8* nonnull %16) #18
  call void @_ZNSt6vectorIN2cv6Point_IfEESaIS2_EEC2Ev(%"class.std::vector.138"* nonnull %pts1_n) #18
  %call32140 = call i64 @_ZNKSt6vectorIN2cv6Point_IfEESaIS2_EE4sizeEv(%"class.std::vector.138"* nonnull %pts0) #18
  %cmp33141 = icmp eq i64 %call32140, 0
  br i1 %cmp33141, label %for.cond.cleanup34, label %for.body35.lr.ph

for.body35.lr.ph:                                 ; preds = %if.end22
  %17 = bitcast %"class.cv::Point_"* %ref.tmp36 to i8*
  %18 = getelementptr inbounds %"class.ov_core::TrackKLT", %"class.ov_core::TrackKLT"* %this, i64 0, i32 0
  %19 = bitcast %"class.cv::Point_"* %ref.tmp39 to i8*
  br label %for.body35

for.cond.cleanup34:                               ; preds = %for.body35, %if.end22
  %20 = bitcast %"class.std::vector.93"* %mask_rsc to i8*
  call void @llvm.lifetime.start.p0i8(i64 24, i8* nonnull %20) #18
  call void @_ZNSt6vectorIhSaIhEEC2Ev(%"class.std::vector.93"* nonnull %mask_rsc) #18
  %21 = bitcast double* %max_focallength_img0 to i8*
  call void @llvm.lifetime.start.p0i8(i64 8, i8* nonnull %21) #18
  %camera_k_OPENCV = getelementptr inbounds %"class.ov_core::TrackKLT", %"class.ov_core::TrackKLT"* %this, i64 0, i32 0, i32 3
  %call45 = call dereferenceable(72) %"class.cv::Matx"* @_ZNSt3mapImN2cv4MatxIdLi3ELi3EEESt4lessImESaISt4pairIKmS2_EEE2atERS6_(%"class.std::map.27"* nonnull %camera_k_OPENCV, i64* nonnull dereferenceable(8) %id0.addr)
  %call46 = call dereferenceable(8) double* @_ZN2cv4MatxIdLi3ELi3EEclEii(%"class.cv::Matx"* nonnull %call45, i32 0, i32 0)
  %call48 = call dereferenceable(72) %"class.cv::Matx"* @_ZNSt3mapImN2cv4MatxIdLi3ELi3EEESt4lessImESaISt4pairIKmS2_EEE2atERS6_(%"class.std::map.27"* nonnull %camera_k_OPENCV, i64* nonnull dereferenceable(8) %id0.addr)
  %call49 = call dereferenceable(8) double* @_ZN2cv4MatxIdLi3ELi3EEclEii(%"class.cv::Matx"* nonnull %call48, i32 1, i32 1)
  %call50 = call dereferenceable(8) double* @_ZSt3maxIdERKT_S2_S2_(double* nonnull dereferenceable(8) %call46, double* nonnull dereferenceable(8) %call49)
  %22 = bitcast double* %call50 to i64*
  %23 = load i64, i64* %22, align 8, !tbaa !90
  %24 = bitcast double* %max_focallength_img0 to i64*
  store i64 %23, i64* %24, align 8, !tbaa !90
  %25 = bitcast double* %max_focallength_img1 to i8*
  call void @llvm.lifetime.start.p0i8(i64 8, i8* nonnull %25) #18
  %call52 = call dereferenceable(72) %"class.cv::Matx"* @_ZNSt3mapImN2cv4MatxIdLi3ELi3EEESt4lessImESaISt4pairIKmS2_EEE2atERS6_(%"class.std::map.27"* nonnull %camera_k_OPENCV, i64* nonnull dereferenceable(8) %id1.addr)
  %call53 = call dereferenceable(8) double* @_ZN2cv4MatxIdLi3ELi3EEclEii(%"class.cv::Matx"* nonnull %call52, i32 0, i32 0)
  %call55 = call dereferenceable(72) %"class.cv::Matx"* @_ZNSt3mapImN2cv4MatxIdLi3ELi3EEESt4lessImESaISt4pairIKmS2_EEE2atERS6_(%"class.std::map.27"* nonnull %camera_k_OPENCV, i64* nonnull dereferenceable(8) %id1.addr)
  %call56 = call dereferenceable(8) double* @_ZN2cv4MatxIdLi3ELi3EEclEii(%"class.cv::Matx"* nonnull %call55, i32 1, i32 1)
  %call57 = call dereferenceable(8) double* @_ZSt3maxIdERKT_S2_S2_(double* nonnull dereferenceable(8) %call53, double* nonnull dereferenceable(8) %call56)
  %26 = bitcast double* %call57 to i64*
  %27 = load i64, i64* %26, align 8, !tbaa !90
  %28 = bitcast double* %max_focallength_img1 to i64*
  store i64 %27, i64* %28, align 8, !tbaa !90
  %call58 = call dereferenceable(8) double* @_ZSt3maxIdERKT_S2_S2_(double* nonnull dereferenceable(8) %max_focallength_img0, double* nonnull dereferenceable(8) %max_focallength_img1)
  %29 = load double, double* %call58, align 8, !tbaa !90
  %30 = bitcast %"class.cv::_InputArray"* %ref.tmp59 to i8*
  call void @llvm.lifetime.start.p0i8(i64 24, i8* nonnull %30) #18
  call void @_ZN2cv11_InputArrayC2INS_6Point_IfEEEERKSt6vectorIT_SaIS5_EE(%"class.cv::_InputArray"* nonnull %ref.tmp59, %"class.std::vector.138"* nonnull dereferenceable(24) %pts0_n)
  %31 = bitcast %"class.cv::_InputArray"* %ref.tmp60 to i8*
  call void @llvm.lifetime.start.p0i8(i64 24, i8* nonnull %31) #18
  call void @_ZN2cv11_InputArrayC2INS_6Point_IfEEEERKSt6vectorIT_SaIS5_EE(%"class.cv::_InputArray"* nonnull %ref.tmp60, %"class.std::vector.138"* nonnull dereferenceable(24) %pts1_n)
  %div = fdiv double 1.000000e+00, %29
  %32 = bitcast %"class.cv::_OutputArray"* %ref.tmp61 to i8*
  call void @llvm.lifetime.start.p0i8(i64 24, i8* nonnull %32) #18
  call void @_ZN2cv12_OutputArrayC2IhEERSt6vectorIT_SaIS3_EE(%"class.cv::_OutputArray"* nonnull %ref.tmp61, %"class.std::vector.93"* nonnull dereferenceable(24) %mask_rsc)
  call void @_ZN2cv18findFundamentalMatERKNS_11_InputArrayES2_iddRKNS_12_OutputArrayE(%"class.cv::Mat"* nonnull sret %agg.tmp.ensured, %"class.cv::_InputArray"* nonnull dereferenceable(24) %ref.tmp59, %"class.cv::_InputArray"* nonnull dereferenceable(24) %ref.tmp60, i32 8, double %div, double 0x3FEFF7CED916872B, %"class.cv::_OutputArray"* nonnull dereferenceable(24) %ref.tmp61) #18
  call void @_ZN2cv3MatD2Ev(%"class.cv::Mat"* nonnull %agg.tmp.ensured) #18
  %33 = getelementptr inbounds %"class.cv::_OutputArray", %"class.cv::_OutputArray"* %ref.tmp61, i64 0, i32 0
  call void @_ZN2cv11_InputArrayD2Ev(%"class.cv::_InputArray"* nonnull %33) #18
  call void @llvm.lifetime.end.p0i8(i64 24, i8* nonnull %32) #18
  call void @_ZN2cv11_InputArrayD2Ev(%"class.cv::_InputArray"* nonnull %ref.tmp60) #18
  call void @llvm.lifetime.end.p0i8(i64 24, i8* nonnull %31) #18
  call void @_ZN2cv11_InputArrayD2Ev(%"class.cv::_InputArray"* nonnull %ref.tmp59) #18
  call void @llvm.lifetime.end.p0i8(i64 24, i8* nonnull %30) #18
  %call64136 = call i64 @_ZNKSt6vectorIhSaIhEE4sizeEv(%"class.std::vector.93"* nonnull %mask_klt) #18
  %cmp65137 = icmp eq i64 %call64136, 0
  br i1 %cmp65137, label %for.cond80.preheader, label %for.body67

for.body35:                                       ; preds = %for.body35.lr.ph, %for.body35
  %i30.0142 = phi i64 [ 0, %for.body35.lr.ph ], [ %inc43, %for.body35 ]
  call void @llvm.lifetime.start.p0i8(i64 8, i8* nonnull %17) #18
  %call38 = call dereferenceable(8) %"class.cv::Point_"* @_ZNSt6vectorIN2cv6Point_IfEESaIS2_EE2atEm(%"class.std::vector.138"* nonnull %pts0, i64 %i30.0142)
  call void @_ZN2cv6Point_IfEC2ERKS1_(%"class.cv::Point_"* nonnull %agg.tmp37, %"class.cv::Point_"* nonnull dereferenceable(8) %call38)
  %34 = load i64, i64* %id0.addr, align 8, !tbaa !11
  call void @_ZN7ov_core9TrackBase15undistort_pointEN2cv6Point_IfEEm(%"class.cv::Point_"* nonnull sret %ref.tmp36, %"class.ov_core::TrackBase"* %18, %"class.cv::Point_"* nonnull %agg.tmp37, i64 %34)
  call void @_ZNSt6vectorIN2cv6Point_IfEESaIS2_EE9push_backEOS2_(%"class.std::vector.138"* nonnull %pts0_n, %"class.cv::Point_"* nonnull dereferenceable(8) %ref.tmp36)
  call void @llvm.lifetime.end.p0i8(i64 8, i8* nonnull %17) #18
  call void @llvm.lifetime.start.p0i8(i64 8, i8* nonnull %19) #18
  %call41 = call dereferenceable(8) %"class.cv::Point_"* @_ZNSt6vectorIN2cv6Point_IfEESaIS2_EE2atEm(%"class.std::vector.138"* nonnull %pts1, i64 %i30.0142)
  call void @_ZN2cv6Point_IfEC2ERKS1_(%"class.cv::Point_"* nonnull %agg.tmp40, %"class.cv::Point_"* nonnull dereferenceable(8) %call41)
  %35 = load i64, i64* %id1.addr, align 8, !tbaa !11
  call void @_ZN7ov_core9TrackBase15undistort_pointEN2cv6Point_IfEEm(%"class.cv::Point_"* nonnull sret %ref.tmp39, %"class.ov_core::TrackBase"* %18, %"class.cv::Point_"* nonnull %agg.tmp40, i64 %35)
  call void @_ZNSt6vectorIN2cv6Point_IfEESaIS2_EE9push_backEOS2_(%"class.std::vector.138"* nonnull %pts1_n, %"class.cv::Point_"* nonnull dereferenceable(8) %ref.tmp39)
  call void @llvm.lifetime.end.p0i8(i64 8, i8* nonnull %19) #18
  %inc43 = add nuw i64 %i30.0142, 1
  %call32 = call i64 @_ZNKSt6vectorIN2cv6Point_IfEESaIS2_EE4sizeEv(%"class.std::vector.138"* nonnull %pts0) #18
  %cmp33 = icmp ult i64 %inc43, %call32
  br i1 %cmp33, label %for.body35, label %for.cond.cleanup34

for.cond80.preheader:                             ; preds = %land.end, %for.cond.cleanup34
  %call81133 = call i64 @_ZNKSt6vectorIN2cv6Point_IfEESaIS2_EE4sizeEv(%"class.std::vector.138"* nonnull %pts0) #18
  %cmp82134 = icmp eq i64 %call81133, 0
  br i1 %cmp82134, label %for.cond.cleanup83, label %for.body84

for.body67:                                       ; preds = %for.cond.cleanup34, %land.end
  %i62.0138 = phi i64 [ %inc77, %land.end ], [ 0, %for.cond.cleanup34 ]
  call void @llvm.lifetime.start.p0i8(i64 1, i8* nonnull %mask) #18
  %call68 = call i64 @_ZNKSt6vectorIhSaIhEE4sizeEv(%"class.std::vector.93"* nonnull %mask_klt) #18
  %cmp69 = icmp ult i64 %i62.0138, %call68
  br i1 %cmp69, label %land.lhs.true, label %land.end

land.lhs.true:                                    ; preds = %for.body67
  %call70 = call dereferenceable(1) i8* @_ZNSt6vectorIhSaIhEEixEm(%"class.std::vector.93"* nonnull %mask_klt, i64 %i62.0138) #18
  %36 = load i8, i8* %call70, align 1, !tbaa !29
  %tobool = icmp eq i8 %36, 0
  br i1 %tobool, label %land.end, label %land.lhs.true71

land.lhs.true71:                                  ; preds = %land.lhs.true
  %call72 = call i64 @_ZNKSt6vectorIhSaIhEE4sizeEv(%"class.std::vector.93"* nonnull %mask_rsc) #18
  %cmp73 = icmp ult i64 %i62.0138, %call72
  br i1 %cmp73, label %land.rhs, label %land.end

land.rhs:                                         ; preds = %land.lhs.true71
  %call74 = call dereferenceable(1) i8* @_ZNSt6vectorIhSaIhEEixEm(%"class.std::vector.93"* nonnull %mask_rsc, i64 %i62.0138) #18
  %37 = load i8, i8* %call74, align 1, !tbaa !29
  %tobool75 = icmp ne i8 %37, 0
  br label %land.end

land.end:                                         ; preds = %land.lhs.true, %land.rhs, %land.lhs.true71, %for.body67
  %38 = phi i1 [ false, %land.lhs.true71 ], [ false, %land.lhs.true ], [ false, %for.body67 ], [ %tobool75, %land.rhs ]
  %conv = zext i1 %38 to i8
  store i8 %conv, i8* %mask, align 1, !tbaa !29
  call void @_ZNSt6vectorIhSaIhEE9push_backERKh(%"class.std::vector.93"* nonnull %mask_out, i8* nonnull dereferenceable(1) %mask)
  call void @llvm.lifetime.end.p0i8(i64 1, i8* nonnull %mask) #18
  %inc77 = add nuw i64 %i62.0138, 1
  %call64 = call i64 @_ZNKSt6vectorIhSaIhEE4sizeEv(%"class.std::vector.93"* nonnull %mask_klt) #18
  %cmp65 = icmp ult i64 %inc77, %call64
  br i1 %cmp65, label %for.body67, label %for.cond80.preheader

for.cond.cleanup83:                               ; preds = %for.body84, %for.cond80.preheader
  call void @llvm.lifetime.end.p0i8(i64 8, i8* nonnull %25) #18
  call void @llvm.lifetime.end.p0i8(i64 8, i8* nonnull %21) #18
  call void @_ZNSt6vectorIhSaIhEED2Ev(%"class.std::vector.93"* nonnull %mask_rsc) #18
  call void @llvm.lifetime.end.p0i8(i64 24, i8* nonnull %20) #18
  call void @_ZNSt6vectorIN2cv6Point_IfEESaIS2_EED2Ev(%"class.std::vector.138"* nonnull %pts1_n) #18
  call void @llvm.lifetime.end.p0i8(i64 24, i8* nonnull %16) #18
  call void @_ZNSt6vectorIN2cv6Point_IfEESaIS2_EED2Ev(%"class.std::vector.138"* nonnull %pts0_n) #18
  call void @llvm.lifetime.end.p0i8(i64 24, i8* nonnull %15) #18
  call void @llvm.lifetime.end.p0i8(i64 16, i8* nonnull %4) #18
  call void @_ZNSt6vectorIfSaIfEED2Ev(%"class.std::vector.143"* nonnull %error) #18
  call void @llvm.lifetime.end.p0i8(i64 24, i8* nonnull %3) #18
  call void @_ZNSt6vectorIhSaIhEED2Ev(%"class.std::vector.93"* nonnull %mask_klt) #18
  call void @llvm.lifetime.end.p0i8(i64 24, i8* nonnull %2) #18
  br label %cleanup

for.body84:                                       ; preds = %for.cond80.preheader, %for.body84
  %i79.0135 = phi i64 [ %inc94, %for.body84 ], [ 0, %for.cond80.preheader ]
  %call85 = call dereferenceable(8) %"class.cv::Point_"* @_ZNSt6vectorIN2cv6Point_IfEESaIS2_EE2atEm(%"class.std::vector.138"* nonnull %pts0, i64 %i79.0135)
  %call86 = call dereferenceable(28) %"class.cv::KeyPoint"* @_ZNSt6vectorIN2cv8KeyPointESaIS1_EE2atEm(%"class.std::vector.83"* nonnull %kpts0, i64 %i79.0135)
  %pt87 = getelementptr inbounds %"class.cv::KeyPoint", %"class.cv::KeyPoint"* %call86, i64 0, i32 0
  %call88 = call dereferenceable(8) %"class.cv::Point_"* @_ZN2cv6Point_IfEaSERKS1_(%"class.cv::Point_"* nonnull %pt87, %"class.cv::Point_"* nonnull dereferenceable(8) %call85)
  %call89 = call dereferenceable(8) %"class.cv::Point_"* @_ZNSt6vectorIN2cv6Point_IfEESaIS2_EE2atEm(%"class.std::vector.138"* nonnull %pts1, i64 %i79.0135)
  %call90 = call dereferenceable(28) %"class.cv::KeyPoint"* @_ZNSt6vectorIN2cv8KeyPointESaIS1_EE2atEm(%"class.std::vector.83"* nonnull %kpts1, i64 %i79.0135)
  %pt91 = getelementptr inbounds %"class.cv::KeyPoint", %"class.cv::KeyPoint"* %call90, i64 0, i32 0
  %call92 = call dereferenceable(8) %"class.cv::Point_"* @_ZN2cv6Point_IfEaSERKS1_(%"class.cv::Point_"* nonnull %pt91, %"class.cv::Point_"* nonnull dereferenceable(8) %call89)
  %inc94 = add nuw i64 %i79.0135, 1
  %call81 = call i64 @_ZNKSt6vectorIN2cv6Point_IfEESaIS2_EE4sizeEv(%"class.std::vector.138"* nonnull %pts0) #18
  %cmp82 = icmp ult i64 %inc94, %call81
  br i1 %cmp82, label %for.body84, label %for.cond.cleanup83

cleanup:                                          ; preds = %for.body18, %for.cond14.preheader, %for.cond.cleanup83
  call void @_ZNSt6vectorIN2cv6Point_IfEESaIS2_EED2Ev(%"class.std::vector.138"* nonnull %pts1) #18
  call void @llvm.lifetime.end.p0i8(i64 24, i8* nonnull %1) #18
  call void @_ZNSt6vectorIN2cv6Point_IfEESaIS2_EED2Ev(%"class.std::vector.138"* nonnull %pts0) #18
  call void @llvm.lifetime.end.p0i8(i64 24, i8* nonnull %0) #18
  br label %cleanup.cont

cleanup.cont:                                     ; preds = %cond.end, %lor.lhs.false, %cleanup
  ret void
}

; Function Attrs: nounwind uwtable
define linkonce_odr dso_local zeroext i1 @_ZNKSt6vectorIhSaIhEE5emptyEv(%"class.std::vector.93"* %this) local_unnamed_addr #0 comdat align 2 {
entry:
  %ref.tmp = alloca %"class.__gnu_cxx::__normal_iterator.322", align 8
  %ref.tmp2 = alloca %"class.__gnu_cxx::__normal_iterator.322", align 8
  %0 = bitcast %"class.__gnu_cxx::__normal_iterator.322"* %ref.tmp to i8*
  call void @llvm.lifetime.start.p0i8(i64 8, i8* nonnull %0) #18
  %call = tail call i8* @_ZNKSt6vectorIhSaIhEE5beginEv(%"class.std::vector.93"* %this) #18
  %coerce.dive = getelementptr inbounds %"class.__gnu_cxx::__normal_iterator.322", %"class.__gnu_cxx::__normal_iterator.322"* %ref.tmp, i64 0, i32 0
  store i8* %call, i8** %coerce.dive, align 8
  %1 = bitcast %"class.__gnu_cxx::__normal_iterator.322"* %ref.tmp2 to i8*
  call void @llvm.lifetime.start.p0i8(i64 8, i8* nonnull %1) #18
  %call3 = tail call i8* @_ZNKSt6vectorIhSaIhEE3endEv(%"class.std::vector.93"* %this) #18
  %coerce.dive4 = getelementptr inbounds %"class.__gnu_cxx::__normal_iterator.322", %"class.__gnu_cxx::__normal_iterator.322"* %ref.tmp2, i64 0, i32 0
  store i8* %call3, i8** %coerce.dive4, align 8
  %call5 = call zeroext i1 @_ZN9__gnu_cxxeqIPKhSt6vectorIhSaIhEEEEbRKNS_17__normal_iteratorIT_T0_EESB_(%"class.__gnu_cxx::__normal_iterator.322"* nonnull dereferenceable(8) %ref.tmp, %"class.__gnu_cxx::__normal_iterator.322"* nonnull dereferenceable(8) %ref.tmp2) #18
  call void @llvm.lifetime.end.p0i8(i64 8, i8* nonnull %1) #18
  call void @llvm.lifetime.end.p0i8(i64 8, i8* nonnull %0) #18
  ret i1 %call5
}

; Function Attrs: nounwind uwtable
define linkonce_odr dso_local void @_ZNSt6vectorIN2cv8KeyPointESaIS1_EE5clearEv(%"class.std::vector.83"* %this) local_unnamed_addr #0 comdat align 2 {
entry:
  %_M_start = getelementptr inbounds %"class.std::vector.83", %"class.std::vector.83"* %this, i64 0, i32 0, i32 0, i32 0
  %0 = load %"class.cv::KeyPoint"*, %"class.cv::KeyPoint"** %_M_start, align 8, !tbaa !86
  tail call void @_ZNSt6vectorIN2cv8KeyPointESaIS1_EE15_M_erase_at_endEPS1_(%"class.std::vector.83"* %this, %"class.cv::KeyPoint"* %0) #18
  ret void
}

; Function Attrs: nounwind uwtable
define linkonce_odr dso_local void @_ZNSt6vectorImSaImEE5clearEv(%"class.std::vector.88"* %this) local_unnamed_addr #0 comdat align 2 {
entry:
  %_M_start = getelementptr inbounds %"class.std::vector.88", %"class.std::vector.88"* %this, i64 0, i32 0, i32 0, i32 0
  %0 = load i64*, i64** %_M_start, align 8, !tbaa !91
  tail call void @_ZNSt6vectorImSaImEE15_M_erase_at_endEPm(%"class.std::vector.88"* %this, i64* %0) #18
  ret void
}

; Function Attrs: nofree nounwind
declare dso_local i32 @printf(i8* nocapture readonly, ...) local_unnamed_addr #6

; Function Attrs: nounwind uwtable
define linkonce_odr dso_local void @_ZNSt6vectorIN2cv8KeyPointESaIS1_EEC2Ev(%"class.std::vector.83"* %this) unnamed_addr #0 comdat align 2 {
entry:
  %0 = getelementptr inbounds %"class.std::vector.83", %"class.std::vector.83"* %this, i64 0, i32 0
  tail call void @_ZNSt12_Vector_baseIN2cv8KeyPointESaIS1_EEC2Ev(%"struct.std::_Vector_base.84"* %0)
  ret void
}

; Function Attrs: nounwind uwtable
define linkonce_odr dso_local void @_ZNSt6vectorImSaImEEC2Ev(%"class.std::vector.88"* %this) unnamed_addr #0 comdat align 2 {
entry:
  %0 = getelementptr inbounds %"class.std::vector.88", %"class.std::vector.88"* %this, i64 0, i32 0
  tail call void @_ZNSt12_Vector_baseImSaImEEC2Ev(%"struct.std::_Vector_base.89"* %0)
  ret void
}

; Function Attrs: nounwind uwtable
define linkonce_odr dso_local i64 @_ZNKSt6vectorIN2cv8KeyPointESaIS1_EE4sizeEv(%"class.std::vector.83"* %this) local_unnamed_addr #0 comdat align 2 {
entry:
  %_M_finish = getelementptr inbounds %"class.std::vector.83", %"class.std::vector.83"* %this, i64 0, i32 0, i32 0, i32 1
  %0 = bitcast %"class.cv::KeyPoint"** %_M_finish to i64*
  %1 = load i64, i64* %0, align 8, !tbaa !89
  %2 = bitcast %"class.std::vector.83"* %this to i64*
  %3 = load i64, i64* %2, align 8, !tbaa !86
  %sub.ptr.sub = sub i64 %1, %3
  %sub.ptr.div = sdiv exact i64 %sub.ptr.sub, 28
  ret i64 %sub.ptr.div
}

; Function Attrs: nounwind uwtable
define linkonce_odr dso_local dereferenceable(28) %"class.cv::KeyPoint"* @_ZNSt6vectorIN2cv8KeyPointESaIS1_EEixEm(%"class.std::vector.83"* %this, i64 %__n) local_unnamed_addr #0 comdat align 2 {
entry:
  %_M_start = getelementptr inbounds %"class.std::vector.83", %"class.std::vector.83"* %this, i64 0, i32 0, i32 0, i32 0
  %0 = load %"class.cv::KeyPoint"*, %"class.cv::KeyPoint"** %_M_start, align 8, !tbaa !86
  %add.ptr = getelementptr inbounds %"class.cv::KeyPoint", %"class.cv::KeyPoint"* %0, i64 %__n
  ret %"class.cv::KeyPoint"* %add.ptr
}

; Function Attrs: nounwind uwtable
define linkonce_odr dso_local dereferenceable(1) i8* @_ZNSt6vectorIhSaIhEEixEm(%"class.std::vector.93"* %this, i64 %__n) local_unnamed_addr #0 comdat align 2 {
entry:
  %_M_start = getelementptr inbounds %"class.std::vector.93", %"class.std::vector.93"* %this, i64 0, i32 0, i32 0, i32 0
  %0 = load i8*, i8** %_M_start, align 8, !tbaa !94
  %add.ptr = getelementptr inbounds i8, i8* %0, i64 %__n
  ret i8* %add.ptr
}

; Function Attrs: nounwind uwtable
define linkonce_odr dso_local void @_ZNSt6vectorIN2cv8KeyPointESaIS1_EE9push_backERKS1_(%"class.std::vector.83"* %this, %"class.cv::KeyPoint"* dereferenceable(28) %__x) local_unnamed_addr #0 comdat align 2 {
entry:
  %_M_finish = getelementptr inbounds %"class.std::vector.83", %"class.std::vector.83"* %this, i64 0, i32 0, i32 0, i32 1
  %0 = load %"class.cv::KeyPoint"*, %"class.cv::KeyPoint"** %_M_finish, align 8, !tbaa !89
  %_M_end_of_storage = getelementptr inbounds %"class.std::vector.83", %"class.std::vector.83"* %this, i64 0, i32 0, i32 0, i32 2
  %1 = load %"class.cv::KeyPoint"*, %"class.cv::KeyPoint"** %_M_end_of_storage, align 8, !tbaa !97
  %cmp = icmp eq %"class.cv::KeyPoint"* %0, %1
  br i1 %cmp, label %if.else, label %if.then

if.then:                                          ; preds = %entry
  %2 = bitcast %"class.std::vector.83"* %this to %"class.std::allocator.85"*
  tail call void @_ZNSt16allocator_traitsISaIN2cv8KeyPointEEE9constructIS1_JRKS1_EEEvRS2_PT_DpOT0_(%"class.std::allocator.85"* dereferenceable(1) %2, %"class.cv::KeyPoint"* %0, %"class.cv::KeyPoint"* nonnull dereferenceable(28) %__x)
  %3 = load %"class.cv::KeyPoint"*, %"class.cv::KeyPoint"** %_M_finish, align 8, !tbaa !89
  %incdec.ptr = getelementptr inbounds %"class.cv::KeyPoint", %"class.cv::KeyPoint"* %3, i64 1
  store %"class.cv::KeyPoint"* %incdec.ptr, %"class.cv::KeyPoint"** %_M_finish, align 8, !tbaa !89
  br label %if.end

if.else:                                          ; preds = %entry
  tail call void @_ZNSt6vectorIN2cv8KeyPointESaIS1_EE19_M_emplace_back_auxIJRKS1_EEEvDpOT_(%"class.std::vector.83"* nonnull %this, %"class.cv::KeyPoint"* nonnull dereferenceable(28) %__x)
  br label %if.end

if.end:                                           ; preds = %if.else, %if.then
  ret void
}

; Function Attrs: nounwind uwtable
define linkonce_odr dso_local void @_ZNSt6vectorImSaImEE9push_backERKm(%"class.std::vector.88"* %this, i64* dereferenceable(8) %__x) local_unnamed_addr #0 comdat align 2 {
entry:
  %_M_finish = getelementptr inbounds %"class.std::vector.88", %"class.std::vector.88"* %this, i64 0, i32 0, i32 0, i32 1
  %0 = load i64*, i64** %_M_finish, align 8, !tbaa !98
  %_M_end_of_storage = getelementptr inbounds %"class.std::vector.88", %"class.std::vector.88"* %this, i64 0, i32 0, i32 0, i32 2
  %1 = load i64*, i64** %_M_end_of_storage, align 8, !tbaa !99
  %cmp = icmp eq i64* %0, %1
  br i1 %cmp, label %if.else, label %if.then

if.then:                                          ; preds = %entry
  %2 = bitcast %"class.std::vector.88"* %this to %"class.std::allocator.90"*
  tail call void @_ZNSt16allocator_traitsISaImEE9constructImJRKmEEEvRS0_PT_DpOT0_(%"class.std::allocator.90"* dereferenceable(1) %2, i64* %0, i64* nonnull dereferenceable(8) %__x)
  %3 = load i64*, i64** %_M_finish, align 8, !tbaa !98
  %incdec.ptr = getelementptr inbounds i64, i64* %3, i64 1
  store i64* %incdec.ptr, i64** %_M_finish, align 8, !tbaa !98
  br label %if.end

if.else:                                          ; preds = %entry
  tail call void @_ZNSt6vectorImSaImEE19_M_emplace_back_auxIJRKmEEEvDpOT_(%"class.std::vector.88"* nonnull %this, i64* nonnull dereferenceable(8) %__x)
  br label %if.end

if.end:                                           ; preds = %if.else, %if.then
  ret void
}

; Function Attrs: nounwind uwtable
define linkonce_odr dso_local dereferenceable(8) i64* @_ZNSt6vectorImSaImEEixEm(%"class.std::vector.88"* %this, i64 %__n) local_unnamed_addr #0 comdat align 2 {
entry:
  %_M_start = getelementptr inbounds %"class.std::vector.88", %"class.std::vector.88"* %this, i64 0, i32 0, i32 0, i32 0
  %0 = load i64*, i64** %_M_start, align 8, !tbaa !91
  %add.ptr = getelementptr inbounds i64, i64* %0, i64 %__n
  ret i64* %add.ptr
}

; Function Attrs: nounwind uwtable
define linkonce_odr dso_local void @_ZN7ov_core9TrackBase15undistort_pointEN2cv6Point_IfEEm(%"class.cv::Point_"* noalias sret %agg.result, %"class.ov_core::TrackBase"* %this, %"class.cv::Point_"* %pt_in, i64 %cam_id) local_unnamed_addr #0 comdat align 2 {
entry:
  %cam_id.addr = alloca i64, align 8
  %camK = alloca %"class.cv::Matx", align 8
  %camD = alloca %"class.cv::Vec", align 8
  %agg.tmp = alloca %"class.cv::Point_", align 4
  %agg.tmp4 = alloca %"class.cv::Point_", align 4
  store i64 %cam_id, i64* %cam_id.addr, align 8, !tbaa !11
  %0 = bitcast %"class.cv::Matx"* %camK to i8*
  call void @llvm.lifetime.start.p0i8(i64 72, i8* nonnull %0) #18
  %camera_k_OPENCV = getelementptr inbounds %"class.ov_core::TrackBase", %"class.ov_core::TrackBase"* %this, i64 0, i32 3
  %call = call dereferenceable(72) %"class.cv::Matx"* @_ZNSt3mapImN2cv4MatxIdLi3ELi3EEESt4lessImESaISt4pairIKmS2_EEE2atERS6_(%"class.std::map.27"* nonnull %camera_k_OPENCV, i64* nonnull dereferenceable(8) %cam_id.addr)
  %1 = bitcast %"class.cv::Matx"* %call to i8*
  call void @llvm.memcpy.p0i8.p0i8.i64(i8* nonnull align 8 %0, i8* nonnull align 8 %1, i64 72, i1 false), !tbaa.struct !100
  %2 = bitcast %"class.cv::Vec"* %camD to i8*
  call void @llvm.lifetime.start.p0i8(i64 32, i8* nonnull %2) #18
  %camera_d_OPENCV = getelementptr inbounds %"class.ov_core::TrackBase", %"class.ov_core::TrackBase"* %this, i64 0, i32 4
  %call2 = call dereferenceable(32) %"class.cv::Vec"* @_ZNSt3mapImN2cv3VecIdLi4EEESt4lessImESaISt4pairIKmS2_EEE2atERS6_(%"class.std::map.32"* nonnull %camera_d_OPENCV, i64* nonnull dereferenceable(8) %cam_id.addr)
  call void @_ZN2cv3VecIdLi4EEC2ERKS1_(%"class.cv::Vec"* nonnull %camD, %"class.cv::Vec"* nonnull dereferenceable(32) %call2)
  %camera_fisheye = getelementptr inbounds %"class.ov_core::TrackBase", %"class.ov_core::TrackBase"* %this, i64 0, i32 2
  %call3 = call dereferenceable(1) i8* @_ZNSt3mapImbSt4lessImESaISt4pairIKmbEEE2atERS3_(%"class.std::map"* nonnull %camera_fisheye, i64* nonnull dereferenceable(8) %cam_id.addr)
  %3 = load i8, i8* %call3, align 1, !tbaa !101, !range !102
  %tobool = icmp eq i8 %3, 0
  br i1 %tobool, label %if.end, label %if.then

if.then:                                          ; preds = %entry
  call void @_ZN2cv6Point_IfEC2ERKS1_(%"class.cv::Point_"* nonnull %agg.tmp, %"class.cv::Point_"* dereferenceable(8) %pt_in)
  call void @_ZN7ov_core9TrackBase23undistort_point_fisheyeEN2cv6Point_IfEERNS1_4MatxIdLi3ELi3EEERNS1_3VecIdLi4EEE(%"class.cv::Point_"* sret %agg.result, %"class.ov_core::TrackBase"* %this, %"class.cv::Point_"* nonnull %agg.tmp, %"class.cv::Matx"* nonnull dereferenceable(72) %camK, %"class.cv::Vec"* nonnull dereferenceable(32) %camD)
  br label %cleanup

if.end:                                           ; preds = %entry
  call void @_ZN2cv6Point_IfEC2ERKS1_(%"class.cv::Point_"* nonnull %agg.tmp4, %"class.cv::Point_"* dereferenceable(8) %pt_in)
  call void @_ZN7ov_core9TrackBase21undistort_point_brownEN2cv6Point_IfEERNS1_4MatxIdLi3ELi3EEERNS1_3VecIdLi4EEE(%"class.cv::Point_"* sret %agg.result, %"class.ov_core::TrackBase"* %this, %"class.cv::Point_"* nonnull %agg.tmp4, %"class.cv::Matx"* nonnull dereferenceable(72) %camK, %"class.cv::Vec"* nonnull dereferenceable(32) %camD)
  br label %cleanup

cleanup:                                          ; preds = %if.end, %if.then
  call void @llvm.lifetime.end.p0i8(i64 32, i8* nonnull %2) #18
  call void @llvm.lifetime.end.p0i8(i64 72, i8* nonnull %0) #18
  ret void
}

; Function Attrs: nounwind uwtable
define linkonce_odr dso_local dereferenceable(28) %"class.cv::KeyPoint"* @_ZNSt6vectorIN2cv8KeyPointESaIS1_EE2atEm(%"class.std::vector.83"* %this, i64 %__n) local_unnamed_addr #0 comdat align 2 {
entry:
  tail call void @_ZNKSt6vectorIN2cv8KeyPointESaIS1_EE14_M_range_checkEm(%"class.std::vector.83"* %this, i64 %__n)
  %call = tail call dereferenceable(28) %"class.cv::KeyPoint"* @_ZNSt6vectorIN2cv8KeyPointESaIS1_EEixEm(%"class.std::vector.83"* %this, i64 %__n) #18
  ret %"class.cv::KeyPoint"* %call
}

; Function Attrs: inlinehint nounwind uwtable
define linkonce_odr dso_local void @_ZN2cv6Point_IfEC2ERKS1_(%"class.cv::Point_"* %this, %"class.cv::Point_"* dereferenceable(8) %pt) unnamed_addr #4 comdat align 2 {
entry:
  %0 = bitcast %"class.cv::Point_"* %pt to i32*
  %1 = load i32, i32* %0, align 4, !tbaa !52
  %2 = bitcast %"class.cv::Point_"* %this to i32*
  store i32 %1, i32* %2, align 4, !tbaa !52
  %y = getelementptr inbounds %"class.cv::Point_", %"class.cv::Point_"* %this, i64 0, i32 1
  %y3 = getelementptr inbounds %"class.cv::Point_", %"class.cv::Point_"* %pt, i64 0, i32 1
  %3 = bitcast float* %y3 to i32*
  %4 = load i32, i32* %3, align 4, !tbaa !53
  %5 = bitcast float* %y to i32*
  store i32 %4, i32* %5, align 4, !tbaa !53
  ret void
}

; Function Attrs: nounwind uwtable
define linkonce_odr dso_local void @_ZN7ov_core15FeatureDatabase14update_featureEmdmffff(%"class.ov_core::FeatureDatabase"* %this, i64 %id, double %timestamp, i64 %cam_id, float %u, float %v, float %u_n, float %v_n) local_unnamed_addr #0 comdat align 2 {
entry:
  %id.addr = alloca i64, align 8
  %timestamp.addr = alloca double, align 8
  %cam_id.addr = alloca i64, align 8
  %u.addr = alloca float, align 4
  %v.addr = alloca float, align 4
  %u_n.addr = alloca float, align 4
  %v_n.addr = alloca float, align 4
  %lck = alloca %"class.std::unique_lock", align 8
  %ref.tmp = alloca %"struct.std::__detail::_Node_iterator", align 8
  %ref.tmp3 = alloca %"struct.std::__detail::_Node_iterator", align 8
  %ref.tmp12 = alloca %"class.Eigen::Matrix.210", align 4
  %ref.tmp14 = alloca %"class.Eigen::Matrix.210", align 4
  %feat16 = alloca %"class.ov_core::Feature"*, align 8
  %ref.tmp20 = alloca %"class.Eigen::Matrix.210", align 4
  %ref.tmp23 = alloca %"class.Eigen::Matrix.210", align 4
  %ref.tmp27 = alloca %"struct.std::pair.228", align 8
  store i64 %id, i64* %id.addr, align 8, !tbaa !11
  store double %timestamp, double* %timestamp.addr, align 8, !tbaa !90
  store i64 %cam_id, i64* %cam_id.addr, align 8, !tbaa !11
  store float %u, float* %u.addr, align 4, !tbaa !103
  store float %v, float* %v.addr, align 4, !tbaa !103
  store float %u_n, float* %u_n.addr, align 4, !tbaa !103
  store float %v_n, float* %v_n.addr, align 4, !tbaa !103
  %0 = bitcast %"class.std::unique_lock"* %lck to i8*
  call void @llvm.lifetime.start.p0i8(i64 16, i8* nonnull %0) #18
  %mtx = getelementptr inbounds %"class.ov_core::FeatureDatabase", %"class.ov_core::FeatureDatabase"* %this, i64 0, i32 0
  call void @_ZNSt11unique_lockISt5mutexEC2ERS0_(%"class.std::unique_lock"* nonnull %lck, %"class.std::mutex"* dereferenceable(40) %mtx)
  %1 = bitcast %"struct.std::__detail::_Node_iterator"* %ref.tmp to i8*
  call void @llvm.lifetime.start.p0i8(i64 8, i8* nonnull %1) #18
  %features_idlookup = getelementptr inbounds %"class.ov_core::FeatureDatabase", %"class.ov_core::FeatureDatabase"* %this, i64 0, i32 1
  %call = call %"struct.std::__detail::_Hash_node"* @_ZNSt13unordered_mapImPN7ov_core7FeatureESt4hashImESt8equal_toImESaISt4pairIKmS2_EEE4findERS8_(%"class.std::unordered_map"* nonnull %features_idlookup, i64* nonnull dereferenceable(8) %id.addr)
  %coerce.dive2 = getelementptr inbounds %"struct.std::__detail::_Node_iterator", %"struct.std::__detail::_Node_iterator"* %ref.tmp, i64 0, i32 0, i32 0
  store %"struct.std::__detail::_Hash_node"* %call, %"struct.std::__detail::_Hash_node"** %coerce.dive2, align 8
  %2 = getelementptr inbounds %"struct.std::__detail::_Node_iterator", %"struct.std::__detail::_Node_iterator"* %ref.tmp, i64 0, i32 0
  %3 = bitcast %"struct.std::__detail::_Node_iterator"* %ref.tmp3 to i8*
  call void @llvm.lifetime.start.p0i8(i64 8, i8* nonnull %3) #18
  %call5 = call %"struct.std::__detail::_Hash_node"* @_ZNSt13unordered_mapImPN7ov_core7FeatureESt4hashImESt8equal_toImESaISt4pairIKmS2_EEE3endEv(%"class.std::unordered_map"* nonnull %features_idlookup) #18
  %coerce.dive7 = getelementptr inbounds %"struct.std::__detail::_Node_iterator", %"struct.std::__detail::_Node_iterator"* %ref.tmp3, i64 0, i32 0, i32 0
  store %"struct.std::__detail::_Hash_node"* %call5, %"struct.std::__detail::_Hash_node"** %coerce.dive7, align 8
  %4 = getelementptr inbounds %"struct.std::__detail::_Node_iterator", %"struct.std::__detail::_Node_iterator"* %ref.tmp3, i64 0, i32 0
  %call8 = call zeroext i1 @_ZNSt8__detailneISt4pairIKmPN7ov_core7FeatureEELb0EEEbRKNS_19_Node_iterator_baseIT_XT0_EEESB_(%"struct.std::__detail::_Node_iterator_base"* nonnull dereferenceable(8) %2, %"struct.std::__detail::_Node_iterator_base"* nonnull dereferenceable(8) %4) #18
  call void @llvm.lifetime.end.p0i8(i64 8, i8* nonnull %3) #18
  call void @llvm.lifetime.end.p0i8(i64 8, i8* nonnull %1) #18
  br i1 %call8, label %if.then, label %if.end

if.then:                                          ; preds = %entry
  %call10 = call dereferenceable(8) %"class.ov_core::Feature"** @_ZNSt13unordered_mapImPN7ov_core7FeatureESt4hashImESt8equal_toImESaISt4pairIKmS2_EEEixERS8_(%"class.std::unordered_map"* nonnull %features_idlookup, i64* nonnull dereferenceable(8) %id.addr)
  %5 = load %"class.ov_core::Feature"*, %"class.ov_core::Feature"** %call10, align 8, !tbaa !2
  %uvs = getelementptr inbounds %"class.ov_core::Feature", %"class.ov_core::Feature"* %5, i64 0, i32 2
  %call11 = call dereferenceable(24) %"class.std::vector.195"* @_ZNSt13unordered_mapImSt6vectorIN5Eigen6MatrixIfLin1ELi1ELi0ELin1ELi1EEESaIS3_EESt4hashImESt8equal_toImESaISt4pairIKmS5_EEEixERSB_(%"class.std::unordered_map.157"* nonnull %uvs, i64* nonnull dereferenceable(8) %cam_id.addr)
  %6 = bitcast %"class.Eigen::Matrix.210"* %ref.tmp12 to i8*
  call void @llvm.lifetime.start.p0i8(i64 8, i8* nonnull %6) #18
  call void @_ZN5Eigen6MatrixIfLi2ELi1ELi0ELi2ELi1EEC2IffEERKT_RKT0_(%"class.Eigen::Matrix.210"* nonnull %ref.tmp12, float* nonnull dereferenceable(4) %u.addr, float* nonnull dereferenceable(4) %v.addr)
  call void @_ZNSt6vectorIN5Eigen6MatrixIfLin1ELi1ELi0ELin1ELi1EEESaIS2_EE12emplace_backIJNS1_IfLi2ELi1ELi0ELi2ELi1EEEEEEvDpOT_(%"class.std::vector.195"* nonnull %call11, %"class.Eigen::Matrix.210"* nonnull dereferenceable(8) %ref.tmp12)
  call void @llvm.lifetime.end.p0i8(i64 8, i8* nonnull %6) #18
  %uvs_norm = getelementptr inbounds %"class.ov_core::Feature", %"class.ov_core::Feature"* %5, i64 0, i32 3
  %call13 = call dereferenceable(24) %"class.std::vector.195"* @_ZNSt13unordered_mapImSt6vectorIN5Eigen6MatrixIfLin1ELi1ELi0ELin1ELi1EEESaIS3_EESt4hashImESt8equal_toImESaISt4pairIKmS5_EEEixERSB_(%"class.std::unordered_map.157"* nonnull %uvs_norm, i64* nonnull dereferenceable(8) %cam_id.addr)
  %7 = bitcast %"class.Eigen::Matrix.210"* %ref.tmp14 to i8*
  call void @llvm.lifetime.start.p0i8(i64 8, i8* nonnull %7) #18
  call void @_ZN5Eigen6MatrixIfLi2ELi1ELi0ELi2ELi1EEC2IffEERKT_RKT0_(%"class.Eigen::Matrix.210"* nonnull %ref.tmp14, float* nonnull dereferenceable(4) %u_n.addr, float* nonnull dereferenceable(4) %v_n.addr)
  call void @_ZNSt6vectorIN5Eigen6MatrixIfLin1ELi1ELi0ELin1ELi1EEESaIS2_EE12emplace_backIJNS1_IfLi2ELi1ELi0ELi2ELi1EEEEEEvDpOT_(%"class.std::vector.195"* nonnull %call13, %"class.Eigen::Matrix.210"* nonnull dereferenceable(8) %ref.tmp14)
  call void @llvm.lifetime.end.p0i8(i64 8, i8* nonnull %7) #18
  %timestamps = getelementptr inbounds %"class.ov_core::Feature", %"class.ov_core::Feature"* %5, i64 0, i32 4
  %call15 = call dereferenceable(24) %"class.std::vector.221"* @_ZNSt13unordered_mapImSt6vectorIdSaIdEESt4hashImESt8equal_toImESaISt4pairIKmS2_EEEixERS8_(%"class.std::unordered_map.171"* nonnull %timestamps, i64* nonnull dereferenceable(8) %cam_id.addr)
  call void @_ZNSt6vectorIdSaIdEE12emplace_backIJRdEEEvDpOT_(%"class.std::vector.221"* nonnull %call15, double* nonnull dereferenceable(8) %timestamp.addr)
  br label %cleanup

if.end:                                           ; preds = %entry
  %8 = bitcast %"class.ov_core::Feature"** %feat16 to i8*
  call void @llvm.lifetime.start.p0i8(i64 8, i8* nonnull %8) #18
  %call17 = call i8* @_Znwm(i64 248) #20
  %9 = bitcast i8* %call17 to %"class.ov_core::Feature"*
  call void @llvm.memset.p0i8.i64(i8* nonnull align 16 %call17, i8 0, i64 248, i1 false)
  call void @_ZN7ov_core7FeatureC2Ev(%"class.ov_core::Feature"* nonnull %9)
  %10 = bitcast %"class.ov_core::Feature"** %feat16 to i8**
  store i8* %call17, i8** %10, align 8, !tbaa !2
  %11 = load i64, i64* %id.addr, align 8, !tbaa !11
  %featid = bitcast i8* %call17 to i64*
  store i64 %11, i64* %featid, align 8, !tbaa !104
  %uvs18 = getelementptr inbounds i8, i8* %call17, i64 16
  %12 = bitcast i8* %uvs18 to %"class.std::unordered_map.157"*
  %call19 = call dereferenceable(24) %"class.std::vector.195"* @_ZNSt13unordered_mapImSt6vectorIN5Eigen6MatrixIfLin1ELi1ELi0ELin1ELi1EEESaIS3_EESt4hashImESt8equal_toImESaISt4pairIKmS5_EEEixERSB_(%"class.std::unordered_map.157"* nonnull %12, i64* nonnull dereferenceable(8) %cam_id.addr)
  %13 = bitcast %"class.Eigen::Matrix.210"* %ref.tmp20 to i8*
  call void @llvm.lifetime.start.p0i8(i64 8, i8* nonnull %13) #18
  call void @_ZN5Eigen6MatrixIfLi2ELi1ELi0ELi2ELi1EEC2IffEERKT_RKT0_(%"class.Eigen::Matrix.210"* nonnull %ref.tmp20, float* nonnull dereferenceable(4) %u.addr, float* nonnull dereferenceable(4) %v.addr)
  call void @_ZNSt6vectorIN5Eigen6MatrixIfLin1ELi1ELi0ELin1ELi1EEESaIS2_EE12emplace_backIJNS1_IfLi2ELi1ELi0ELi2ELi1EEEEEEvDpOT_(%"class.std::vector.195"* nonnull %call19, %"class.Eigen::Matrix.210"* nonnull dereferenceable(8) %ref.tmp20)
  call void @llvm.lifetime.end.p0i8(i64 8, i8* nonnull %13) #18
  %14 = load %"class.ov_core::Feature"*, %"class.ov_core::Feature"** %feat16, align 8, !tbaa !2
  %uvs_norm21 = getelementptr inbounds %"class.ov_core::Feature", %"class.ov_core::Feature"* %14, i64 0, i32 3
  %call22 = call dereferenceable(24) %"class.std::vector.195"* @_ZNSt13unordered_mapImSt6vectorIN5Eigen6MatrixIfLin1ELi1ELi0ELin1ELi1EEESaIS3_EESt4hashImESt8equal_toImESaISt4pairIKmS5_EEEixERSB_(%"class.std::unordered_map.157"* nonnull %uvs_norm21, i64* nonnull dereferenceable(8) %cam_id.addr)
  %15 = bitcast %"class.Eigen::Matrix.210"* %ref.tmp23 to i8*
  call void @llvm.lifetime.start.p0i8(i64 8, i8* nonnull %15) #18
  call void @_ZN5Eigen6MatrixIfLi2ELi1ELi0ELi2ELi1EEC2IffEERKT_RKT0_(%"class.Eigen::Matrix.210"* nonnull %ref.tmp23, float* nonnull dereferenceable(4) %u_n.addr, float* nonnull dereferenceable(4) %v_n.addr)
  call void @_ZNSt6vectorIN5Eigen6MatrixIfLin1ELi1ELi0ELin1ELi1EEESaIS2_EE12emplace_backIJNS1_IfLi2ELi1ELi0ELi2ELi1EEEEEEvDpOT_(%"class.std::vector.195"* nonnull %call22, %"class.Eigen::Matrix.210"* nonnull dereferenceable(8) %ref.tmp23)
  call void @llvm.lifetime.end.p0i8(i64 8, i8* nonnull %15) #18
  %16 = load %"class.ov_core::Feature"*, %"class.ov_core::Feature"** %feat16, align 8, !tbaa !2
  %timestamps24 = getelementptr inbounds %"class.ov_core::Feature", %"class.ov_core::Feature"* %16, i64 0, i32 4
  %call25 = call dereferenceable(24) %"class.std::vector.221"* @_ZNSt13unordered_mapImSt6vectorIdSaIdEESt4hashImESt8equal_toImESaISt4pairIKmS2_EEEixERS8_(%"class.std::unordered_map.171"* nonnull %timestamps24, i64* nonnull dereferenceable(8) %cam_id.addr)
  call void @_ZNSt6vectorIdSaIdEE12emplace_backIJRdEEEvDpOT_(%"class.std::vector.221"* nonnull %call25, double* nonnull dereferenceable(8) %timestamp.addr)
  %17 = bitcast %"struct.std::pair.228"* %ref.tmp27 to i8*
  call void @llvm.lifetime.start.p0i8(i64 16, i8* nonnull %17) #18
  call void @_ZNSt4pairIKmPN7ov_core7FeatureEEC2IRmRS3_vEEOT_OT0_(%"struct.std::pair.228"* nonnull %ref.tmp27, i64* nonnull dereferenceable(8) %id.addr, %"class.ov_core::Feature"** nonnull dereferenceable(8) %feat16)
  %call28 = call { %"struct.std::__detail::_Hash_node"*, i8 } @_ZNSt13unordered_mapImPN7ov_core7FeatureESt4hashImESt8equal_toImESaISt4pairIKmS2_EEE6insertERKS9_(%"class.std::unordered_map"* nonnull %features_idlookup, %"struct.std::pair.228"* nonnull dereferenceable(16) %ref.tmp27)
  call void @llvm.lifetime.end.p0i8(i64 16, i8* nonnull %17) #18
  call void @llvm.lifetime.end.p0i8(i64 8, i8* nonnull %8) #18
  br label %cleanup

cleanup:                                          ; preds = %if.end, %if.then
  call void @_ZNSt11unique_lockISt5mutexED2Ev(%"class.std::unique_lock"* nonnull %lck) #18
  call void @llvm.lifetime.end.p0i8(i64 16, i8* nonnull %0) #18
  ret void
}

; Function Attrs: nounwind uwtable
define linkonce_odr dso_local dereferenceable(8) i64* @_ZNSt6vectorImSaImEE2atEm(%"class.std::vector.88"* %this, i64 %__n) local_unnamed_addr #0 comdat align 2 {
entry:
  tail call void @_ZNKSt6vectorImSaImEE14_M_range_checkEm(%"class.std::vector.88"* %this, i64 %__n)
  %call = tail call dereferenceable(8) i64* @_ZNSt6vectorImSaImEEixEm(%"class.std::vector.88"* %this, i64 %__n) #18
  ret i64* %call
}

; Function Attrs: nounwind uwtable
define linkonce_odr dso_local dereferenceable(24) %"class.std::vector.83"* @_ZNSt6vectorIN2cv8KeyPointESaIS1_EEaSERKS3_(%"class.std::vector.83"* %this, %"class.std::vector.83"* dereferenceable(24) %__x) local_unnamed_addr #0 comdat align 2 {
entry:
  %cmp = icmp eq %"class.std::vector.83"* %__x, %this
  br i1 %cmp, label %if.end75, label %if.then

if.then:                                          ; preds = %entry
  %call = tail call i64 @_ZNKSt6vectorIN2cv8KeyPointESaIS1_EE4sizeEv(%"class.std::vector.83"* nonnull %__x) #18
  %call2 = tail call i64 @_ZNKSt6vectorIN2cv8KeyPointESaIS1_EE8capacityEv(%"class.std::vector.83"* %this) #18
  %cmp3 = icmp ugt i64 %call, %call2
  br i1 %cmp3, label %if.then4, label %if.else

if.then4:                                         ; preds = %if.then
  %call5 = tail call %"class.cv::KeyPoint"* @_ZNKSt6vectorIN2cv8KeyPointESaIS1_EE5beginEv(%"class.std::vector.83"* nonnull %__x) #18
  %call7 = tail call %"class.cv::KeyPoint"* @_ZNKSt6vectorIN2cv8KeyPointESaIS1_EE3endEv(%"class.std::vector.83"* nonnull %__x) #18
  %call11 = tail call %"class.cv::KeyPoint"* @_ZNSt6vectorIN2cv8KeyPointESaIS1_EE20_M_allocate_and_copyIN9__gnu_cxx17__normal_iteratorIPKS1_S3_EEEEPS1_mT_SB_(%"class.std::vector.83"* %this, i64 %call, %"class.cv::KeyPoint"* %call5, %"class.cv::KeyPoint"* %call7)
  %0 = getelementptr inbounds %"class.std::vector.83", %"class.std::vector.83"* %this, i64 0, i32 0
  %_M_start = getelementptr inbounds %"class.std::vector.83", %"class.std::vector.83"* %this, i64 0, i32 0, i32 0, i32 0
  %1 = load %"class.cv::KeyPoint"*, %"class.cv::KeyPoint"** %_M_start, align 8, !tbaa !86
  %_M_finish = getelementptr inbounds %"class.std::vector.83", %"class.std::vector.83"* %this, i64 0, i32 0, i32 0, i32 1
  %2 = load %"class.cv::KeyPoint"*, %"class.cv::KeyPoint"** %_M_finish, align 8, !tbaa !89
  %call13 = tail call dereferenceable(1) %"class.std::allocator.85"* @_ZNSt12_Vector_baseIN2cv8KeyPointESaIS1_EE19_M_get_Tp_allocatorEv(%"struct.std::_Vector_base.84"* %0) #18
  tail call void @_ZSt8_DestroyIPN2cv8KeyPointES1_EvT_S3_RSaIT0_E(%"class.cv::KeyPoint"* %1, %"class.cv::KeyPoint"* %2, %"class.std::allocator.85"* nonnull dereferenceable(1) %call13)
  %3 = load %"class.cv::KeyPoint"*, %"class.cv::KeyPoint"** %_M_start, align 8, !tbaa !86
  %_M_end_of_storage = getelementptr inbounds %"class.std::vector.83", %"class.std::vector.83"* %this, i64 0, i32 0, i32 0, i32 2
  %4 = bitcast %"class.cv::KeyPoint"** %_M_end_of_storage to i64*
  %5 = load i64, i64* %4, align 8, !tbaa !97
  %sub.ptr.rhs.cast = ptrtoint %"class.cv::KeyPoint"* %3 to i64
  %sub.ptr.sub = sub i64 %5, %sub.ptr.rhs.cast
  %sub.ptr.div = sdiv exact i64 %sub.ptr.sub, 28
  tail call void @_ZNSt12_Vector_baseIN2cv8KeyPointESaIS1_EE13_M_deallocateEPS1_m(%"struct.std::_Vector_base.84"* %0, %"class.cv::KeyPoint"* %3, i64 %sub.ptr.div)
  store %"class.cv::KeyPoint"* %call11, %"class.cv::KeyPoint"** %_M_start, align 8, !tbaa !86
  %add.ptr = getelementptr inbounds %"class.cv::KeyPoint", %"class.cv::KeyPoint"* %call11, i64 %call
  store %"class.cv::KeyPoint"* %add.ptr, %"class.cv::KeyPoint"** %_M_end_of_storage, align 8, !tbaa !97
  br label %if.end69

if.else:                                          ; preds = %if.then
  %call25 = tail call i64 @_ZNKSt6vectorIN2cv8KeyPointESaIS1_EE4sizeEv(%"class.std::vector.83"* %this) #18
  %cmp26 = icmp ult i64 %call25, %call
  br i1 %cmp26, label %if.else49, label %if.then27

if.then27:                                        ; preds = %if.else
  %call30 = tail call %"class.cv::KeyPoint"* @_ZNKSt6vectorIN2cv8KeyPointESaIS1_EE5beginEv(%"class.std::vector.83"* nonnull %__x) #18
  %call33 = tail call %"class.cv::KeyPoint"* @_ZNKSt6vectorIN2cv8KeyPointESaIS1_EE3endEv(%"class.std::vector.83"* nonnull %__x) #18
  %call36 = tail call %"class.cv::KeyPoint"* @_ZNSt6vectorIN2cv8KeyPointESaIS1_EE5beginEv(%"class.std::vector.83"* %this) #18
  %call41 = tail call %"class.cv::KeyPoint"* @_ZSt4copyIN9__gnu_cxx17__normal_iteratorIPKN2cv8KeyPointESt6vectorIS3_SaIS3_EEEENS1_IPS3_S8_EEET0_T_SD_SC_(%"class.cv::KeyPoint"* %call30, %"class.cv::KeyPoint"* %call33, %"class.cv::KeyPoint"* %call36)
  %call44 = tail call %"class.cv::KeyPoint"* @_ZNSt6vectorIN2cv8KeyPointESaIS1_EE3endEv(%"class.std::vector.83"* %this) #18
  %6 = getelementptr inbounds %"class.std::vector.83", %"class.std::vector.83"* %this, i64 0, i32 0
  %call46 = tail call dereferenceable(1) %"class.std::allocator.85"* @_ZNSt12_Vector_baseIN2cv8KeyPointESaIS1_EE19_M_get_Tp_allocatorEv(%"struct.std::_Vector_base.84"* %6) #18
  tail call void @_ZSt8_DestroyIN9__gnu_cxx17__normal_iteratorIPN2cv8KeyPointESt6vectorIS3_SaIS3_EEEES3_EvT_S9_RSaIT0_E(%"class.cv::KeyPoint"* %call41, %"class.cv::KeyPoint"* %call44, %"class.std::allocator.85"* nonnull dereferenceable(1) %call46)
  br label %if.end69

if.else49:                                        ; preds = %if.else
  %_M_start51 = getelementptr inbounds %"class.std::vector.83", %"class.std::vector.83"* %__x, i64 0, i32 0, i32 0, i32 0
  %7 = load %"class.cv::KeyPoint"*, %"class.cv::KeyPoint"** %_M_start51, align 8, !tbaa !86
  %call54 = tail call i64 @_ZNKSt6vectorIN2cv8KeyPointESaIS1_EE4sizeEv(%"class.std::vector.83"* %this) #18
  %add.ptr55 = getelementptr inbounds %"class.cv::KeyPoint", %"class.cv::KeyPoint"* %7, i64 %call54
  %8 = getelementptr inbounds %"class.std::vector.83", %"class.std::vector.83"* %this, i64 0, i32 0
  %_M_start57 = getelementptr inbounds %"class.std::vector.83", %"class.std::vector.83"* %this, i64 0, i32 0, i32 0, i32 0
  %9 = load %"class.cv::KeyPoint"*, %"class.cv::KeyPoint"** %_M_start57, align 8, !tbaa !86
  %call58 = tail call %"class.cv::KeyPoint"* @_ZSt4copyIPN2cv8KeyPointES2_ET0_T_S4_S3_(%"class.cv::KeyPoint"* %7, %"class.cv::KeyPoint"* %add.ptr55, %"class.cv::KeyPoint"* %9)
  %10 = load %"class.cv::KeyPoint"*, %"class.cv::KeyPoint"** %_M_start51, align 8, !tbaa !86
  %call61 = tail call i64 @_ZNKSt6vectorIN2cv8KeyPointESaIS1_EE4sizeEv(%"class.std::vector.83"* %this) #18
  %add.ptr62 = getelementptr inbounds %"class.cv::KeyPoint", %"class.cv::KeyPoint"* %10, i64 %call61
  %_M_finish64 = getelementptr inbounds %"class.std::vector.83", %"class.std::vector.83"* %__x, i64 0, i32 0, i32 0, i32 1
  %11 = load %"class.cv::KeyPoint"*, %"class.cv::KeyPoint"** %_M_finish64, align 8, !tbaa !89
  %_M_finish66 = getelementptr inbounds %"class.std::vector.83", %"class.std::vector.83"* %this, i64 0, i32 0, i32 0, i32 1
  %12 = load %"class.cv::KeyPoint"*, %"class.cv::KeyPoint"** %_M_finish66, align 8, !tbaa !89
  %call67 = tail call dereferenceable(1) %"class.std::allocator.85"* @_ZNSt12_Vector_baseIN2cv8KeyPointESaIS1_EE19_M_get_Tp_allocatorEv(%"struct.std::_Vector_base.84"* %8) #18
  %call68 = tail call %"class.cv::KeyPoint"* @_ZSt22__uninitialized_copy_aIPN2cv8KeyPointES2_S1_ET0_T_S4_S3_RSaIT1_E(%"class.cv::KeyPoint"* %add.ptr62, %"class.cv::KeyPoint"* %11, %"class.cv::KeyPoint"* %12, %"class.std::allocator.85"* nonnull dereferenceable(1) %call67)
  br label %if.end69

if.end69:                                         ; preds = %if.then27, %if.else49, %if.then4
  %_M_start71 = getelementptr inbounds %"class.std::vector.83", %"class.std::vector.83"* %this, i64 0, i32 0, i32 0, i32 0
  %13 = load %"class.cv::KeyPoint"*, %"class.cv::KeyPoint"** %_M_start71, align 8, !tbaa !86
  %add.ptr72 = getelementptr inbounds %"class.cv::KeyPoint", %"class.cv::KeyPoint"* %13, i64 %call
  %_M_finish74 = getelementptr inbounds %"class.std::vector.83", %"class.std::vector.83"* %this, i64 0, i32 0, i32 0, i32 1
  store %"class.cv::KeyPoint"* %add.ptr72, %"class.cv::KeyPoint"** %_M_finish74, align 8, !tbaa !89
  br label %if.end75

if.end75:                                         ; preds = %entry, %if.end69
  ret %"class.std::vector.83"* %this
}

; Function Attrs: nounwind uwtable
define linkonce_odr dso_local dereferenceable(24) %"class.std::vector.88"* @_ZNSt6vectorImSaImEEaSERKS1_(%"class.std::vector.88"* %this, %"class.std::vector.88"* dereferenceable(24) %__x) local_unnamed_addr #0 comdat align 2 {
entry:
  %cmp = icmp eq %"class.std::vector.88"* %__x, %this
  br i1 %cmp, label %if.end75, label %if.then

if.then:                                          ; preds = %entry
  %call = tail call i64 @_ZNKSt6vectorImSaImEE4sizeEv(%"class.std::vector.88"* nonnull %__x) #18
  %call2 = tail call i64 @_ZNKSt6vectorImSaImEE8capacityEv(%"class.std::vector.88"* %this) #18
  %cmp3 = icmp ugt i64 %call, %call2
  br i1 %cmp3, label %if.then4, label %if.else

if.then4:                                         ; preds = %if.then
  %call5 = tail call i64* @_ZNKSt6vectorImSaImEE5beginEv(%"class.std::vector.88"* nonnull %__x) #18
  %call7 = tail call i64* @_ZNKSt6vectorImSaImEE3endEv(%"class.std::vector.88"* nonnull %__x) #18
  %call11 = tail call i64* @_ZNSt6vectorImSaImEE20_M_allocate_and_copyIN9__gnu_cxx17__normal_iteratorIPKmS1_EEEEPmmT_S9_(%"class.std::vector.88"* %this, i64 %call, i64* %call5, i64* %call7)
  %0 = getelementptr inbounds %"class.std::vector.88", %"class.std::vector.88"* %this, i64 0, i32 0
  %_M_start = getelementptr inbounds %"class.std::vector.88", %"class.std::vector.88"* %this, i64 0, i32 0, i32 0, i32 0
  %1 = load i64*, i64** %_M_start, align 8, !tbaa !91
  %_M_finish = getelementptr inbounds %"class.std::vector.88", %"class.std::vector.88"* %this, i64 0, i32 0, i32 0, i32 1
  %2 = load i64*, i64** %_M_finish, align 8, !tbaa !98
  %call13 = tail call dereferenceable(1) %"class.std::allocator.90"* @_ZNSt12_Vector_baseImSaImEE19_M_get_Tp_allocatorEv(%"struct.std::_Vector_base.89"* %0) #18
  tail call void @_ZSt8_DestroyIPmmEvT_S1_RSaIT0_E(i64* %1, i64* %2, %"class.std::allocator.90"* nonnull dereferenceable(1) %call13)
  %3 = load i64*, i64** %_M_start, align 8, !tbaa !91
  %_M_end_of_storage = getelementptr inbounds %"class.std::vector.88", %"class.std::vector.88"* %this, i64 0, i32 0, i32 0, i32 2
  %4 = bitcast i64** %_M_end_of_storage to i64*
  %5 = load i64, i64* %4, align 8, !tbaa !99
  %sub.ptr.rhs.cast = ptrtoint i64* %3 to i64
  %sub.ptr.sub = sub i64 %5, %sub.ptr.rhs.cast
  %sub.ptr.div = ashr exact i64 %sub.ptr.sub, 3
  tail call void @_ZNSt12_Vector_baseImSaImEE13_M_deallocateEPmm(%"struct.std::_Vector_base.89"* %0, i64* %3, i64 %sub.ptr.div)
  store i64* %call11, i64** %_M_start, align 8, !tbaa !91
  %add.ptr = getelementptr inbounds i64, i64* %call11, i64 %call
  store i64* %add.ptr, i64** %_M_end_of_storage, align 8, !tbaa !99
  br label %if.end69

if.else:                                          ; preds = %if.then
  %call25 = tail call i64 @_ZNKSt6vectorImSaImEE4sizeEv(%"class.std::vector.88"* %this) #18
  %cmp26 = icmp ult i64 %call25, %call
  br i1 %cmp26, label %if.else49, label %if.then27

if.then27:                                        ; preds = %if.else
  %call30 = tail call i64* @_ZNKSt6vectorImSaImEE5beginEv(%"class.std::vector.88"* nonnull %__x) #18
  %call33 = tail call i64* @_ZNKSt6vectorImSaImEE3endEv(%"class.std::vector.88"* nonnull %__x) #18
  %call36 = tail call i64* @_ZNSt6vectorImSaImEE5beginEv(%"class.std::vector.88"* %this) #18
  %call41 = tail call i64* @_ZSt4copyIN9__gnu_cxx17__normal_iteratorIPKmSt6vectorImSaImEEEENS1_IPmS6_EEET0_T_SB_SA_(i64* %call30, i64* %call33, i64* %call36)
  %call44 = tail call i64* @_ZNSt6vectorImSaImEE3endEv(%"class.std::vector.88"* %this) #18
  %6 = getelementptr inbounds %"class.std::vector.88", %"class.std::vector.88"* %this, i64 0, i32 0
  %call46 = tail call dereferenceable(1) %"class.std::allocator.90"* @_ZNSt12_Vector_baseImSaImEE19_M_get_Tp_allocatorEv(%"struct.std::_Vector_base.89"* %6) #18
  tail call void @_ZSt8_DestroyIN9__gnu_cxx17__normal_iteratorIPmSt6vectorImSaImEEEEmEvT_S7_RSaIT0_E(i64* %call41, i64* %call44, %"class.std::allocator.90"* nonnull dereferenceable(1) %call46)
  br label %if.end69

if.else49:                                        ; preds = %if.else
  %_M_start51 = getelementptr inbounds %"class.std::vector.88", %"class.std::vector.88"* %__x, i64 0, i32 0, i32 0, i32 0
  %7 = load i64*, i64** %_M_start51, align 8, !tbaa !91
  %call54 = tail call i64 @_ZNKSt6vectorImSaImEE4sizeEv(%"class.std::vector.88"* %this) #18
  %add.ptr55 = getelementptr inbounds i64, i64* %7, i64 %call54
  %8 = getelementptr inbounds %"class.std::vector.88", %"class.std::vector.88"* %this, i64 0, i32 0
  %_M_start57 = getelementptr inbounds %"class.std::vector.88", %"class.std::vector.88"* %this, i64 0, i32 0, i32 0, i32 0
  %9 = load i64*, i64** %_M_start57, align 8, !tbaa !91
  %call58 = tail call i64* @_ZSt4copyIPmS0_ET0_T_S2_S1_(i64* %7, i64* %add.ptr55, i64* %9)
  %10 = load i64*, i64** %_M_start51, align 8, !tbaa !91
  %call61 = tail call i64 @_ZNKSt6vectorImSaImEE4sizeEv(%"class.std::vector.88"* %this) #18
  %add.ptr62 = getelementptr inbounds i64, i64* %10, i64 %call61
  %_M_finish64 = getelementptr inbounds %"class.std::vector.88", %"class.std::vector.88"* %__x, i64 0, i32 0, i32 0, i32 1
  %11 = load i64*, i64** %_M_finish64, align 8, !tbaa !98
  %_M_finish66 = getelementptr inbounds %"class.std::vector.88", %"class.std::vector.88"* %this, i64 0, i32 0, i32 0, i32 1
  %12 = load i64*, i64** %_M_finish66, align 8, !tbaa !98
  %call67 = tail call dereferenceable(1) %"class.std::allocator.90"* @_ZNSt12_Vector_baseImSaImEE19_M_get_Tp_allocatorEv(%"struct.std::_Vector_base.89"* %8) #18
  %call68 = tail call i64* @_ZSt22__uninitialized_copy_aIPmS0_mET0_T_S2_S1_RSaIT1_E(i64* %add.ptr62, i64* %11, i64* %12, %"class.std::allocator.90"* nonnull dereferenceable(1) %call67)
  br label %if.end69

if.end69:                                         ; preds = %if.then27, %if.else49, %if.then4
  %_M_start71 = getelementptr inbounds %"class.std::vector.88", %"class.std::vector.88"* %this, i64 0, i32 0, i32 0, i32 0
  %13 = load i64*, i64** %_M_start71, align 8, !tbaa !91
  %add.ptr72 = getelementptr inbounds i64, i64* %13, i64 %call
  %_M_finish74 = getelementptr inbounds %"class.std::vector.88", %"class.std::vector.88"* %this, i64 0, i32 0, i32 0, i32 1
  store i64* %add.ptr72, i64** %_M_finish74, align 8, !tbaa !98
  br label %if.end75

if.end75:                                         ; preds = %entry, %if.end69
  ret %"class.std::vector.88"* %this
}

; Function Attrs: nounwind uwtable
define linkonce_odr dso_local void @_ZNSt6vectorImSaImEED2Ev(%"class.std::vector.88"* %this) unnamed_addr #0 comdat align 2 {
entry:
  %0 = getelementptr inbounds %"class.std::vector.88", %"class.std::vector.88"* %this, i64 0, i32 0
  %_M_start = getelementptr inbounds %"class.std::vector.88", %"class.std::vector.88"* %this, i64 0, i32 0, i32 0, i32 0
  %1 = load i64*, i64** %_M_start, align 8, !tbaa !91
  %_M_finish = getelementptr inbounds %"class.std::vector.88", %"class.std::vector.88"* %this, i64 0, i32 0, i32 0, i32 1
  %2 = load i64*, i64** %_M_finish, align 8, !tbaa !98
  %call = tail call dereferenceable(1) %"class.std::allocator.90"* @_ZNSt12_Vector_baseImSaImEE19_M_get_Tp_allocatorEv(%"struct.std::_Vector_base.89"* %0) #18
  tail call void @_ZSt8_DestroyIPmmEvT_S1_RSaIT0_E(i64* %1, i64* %2, %"class.std::allocator.90"* nonnull dereferenceable(1) %call)
  tail call void @_ZNSt12_Vector_baseImSaImEED2Ev(%"struct.std::_Vector_base.89"* %0) #18
  ret void
}

; Function Attrs: nounwind uwtable
define linkonce_odr dso_local void @_ZNSt6vectorIN2cv8KeyPointESaIS1_EED2Ev(%"class.std::vector.83"* %this) unnamed_addr #0 comdat align 2 {
entry:
  %0 = getelementptr inbounds %"class.std::vector.83", %"class.std::vector.83"* %this, i64 0, i32 0
  %_M_start = getelementptr inbounds %"class.std::vector.83", %"class.std::vector.83"* %this, i64 0, i32 0, i32 0, i32 0
  %1 = load %"class.cv::KeyPoint"*, %"class.cv::KeyPoint"** %_M_start, align 8, !tbaa !86
  %_M_finish = getelementptr inbounds %"class.std::vector.83", %"class.std::vector.83"* %this, i64 0, i32 0, i32 0, i32 1
  %2 = load %"class.cv::KeyPoint"*, %"class.cv::KeyPoint"** %_M_finish, align 8, !tbaa !89
  %call = tail call dereferenceable(1) %"class.std::allocator.85"* @_ZNSt12_Vector_baseIN2cv8KeyPointESaIS1_EE19_M_get_Tp_allocatorEv(%"struct.std::_Vector_base.84"* %0) #18
  tail call void @_ZSt8_DestroyIPN2cv8KeyPointES1_EvT_S3_RSaIT0_E(%"class.cv::KeyPoint"* %1, %"class.cv::KeyPoint"* %2, %"class.std::allocator.85"* nonnull dereferenceable(1) %call)
  tail call void @_ZNSt12_Vector_baseIN2cv8KeyPointESaIS1_EED2Ev(%"struct.std::_Vector_base.84"* %0) #18
  ret void
}

; Function Attrs: nounwind uwtable
define linkonce_odr dso_local void @_ZNSt6vectorIhSaIhEED2Ev(%"class.std::vector.93"* %this) unnamed_addr #0 comdat align 2 {
entry:
  %0 = getelementptr inbounds %"class.std::vector.93", %"class.std::vector.93"* %this, i64 0, i32 0
  %_M_start = getelementptr inbounds %"class.std::vector.93", %"class.std::vector.93"* %this, i64 0, i32 0, i32 0, i32 0
  %1 = load i8*, i8** %_M_start, align 8, !tbaa !94
  %_M_finish = getelementptr inbounds %"class.std::vector.93", %"class.std::vector.93"* %this, i64 0, i32 0, i32 0, i32 1
  %2 = load i8*, i8** %_M_finish, align 8, !tbaa !111
  %call = tail call dereferenceable(1) %"class.std::allocator.95"* @_ZNSt12_Vector_baseIhSaIhEE19_M_get_Tp_allocatorEv(%"struct.std::_Vector_base.94"* %0) #18
  tail call void @_ZSt8_DestroyIPhhEvT_S1_RSaIT0_E(i8* %1, i8* %2, %"class.std::allocator.95"* nonnull dereferenceable(1) %call)
  tail call void @_ZNSt12_Vector_baseIhSaIhEED2Ev(%"struct.std::_Vector_base.94"* %0) #18
  ret void
}

; Function Attrs: nounwind uwtable
define linkonce_odr dso_local void @_ZNSt6vectorIN2cv3MatESaIS1_EED2Ev(%"class.std::vector.78"* %this) unnamed_addr #0 comdat align 2 {
entry:
  %0 = getelementptr inbounds %"class.std::vector.78", %"class.std::vector.78"* %this, i64 0, i32 0
  %_M_start = getelementptr inbounds %"class.std::vector.78", %"class.std::vector.78"* %this, i64 0, i32 0, i32 0, i32 0
  %1 = load %"class.cv::Mat"*, %"class.cv::Mat"** %_M_start, align 8, !tbaa !81
  %_M_finish = getelementptr inbounds %"class.std::vector.78", %"class.std::vector.78"* %this, i64 0, i32 0, i32 0, i32 1
  %2 = load %"class.cv::Mat"*, %"class.cv::Mat"** %_M_finish, align 8, !tbaa !84
  %call = tail call dereferenceable(1) %"class.std::allocator.80"* @_ZNSt12_Vector_baseIN2cv3MatESaIS1_EE19_M_get_Tp_allocatorEv(%"struct.std::_Vector_base.79"* %0) #18
  tail call void @_ZSt8_DestroyIPN2cv3MatES1_EvT_S3_RSaIT0_E(%"class.cv::Mat"* %1, %"class.cv::Mat"* %2, %"class.std::allocator.80"* nonnull dereferenceable(1) %call)
  tail call void @_ZNSt12_Vector_baseIN2cv3MatESaIS1_EED2Ev(%"struct.std::_Vector_base.79"* %0) #18
  ret void
}

; Function Attrs: nounwind uwtable
define linkonce_odr dso_local void @_ZNSt11unique_lockISt5mutexED2Ev(%"class.std::unique_lock"* %this) unnamed_addr #0 comdat align 2 {
entry:
  %_M_owns = getelementptr inbounds %"class.std::unique_lock", %"class.std::unique_lock"* %this, i64 0, i32 1
  %0 = load i8, i8* %_M_owns, align 8, !tbaa !57, !range !102
  %tobool = icmp eq i8 %0, 0
  br i1 %tobool, label %if.end, label %if.then

if.then:                                          ; preds = %entry
  tail call void @_ZNSt11unique_lockISt5mutexE6unlockEv(%"class.std::unique_lock"* nonnull %this)
  br label %if.end

if.end:                                           ; preds = %entry, %if.then
  ret void
}

; Function Attrs: nounwind uwtable
define dso_local void @_ZN7ov_core8TrackKLT11feed_stereoEdRN2cv3MatES3_mm(%"class.ov_core::TrackKLT"* %this, double %timestamp, %"class.cv::Mat"* dereferenceable(96) %img_leftin, %"class.cv::Mat"* dereferenceable(96) %img_rightin, i64 %cam_id_left, i64 %cam_id_right) unnamed_addr #0 align 2 {
entry:
  %cam_id_left.addr = alloca i64, align 8
  %cam_id_right.addr = alloca i64, align 8
  %lck1 = alloca %"class.std::unique_lock", align 8
  %lck2 = alloca %"class.std::unique_lock", align 8
  %img_left = alloca %"class.cv::Mat", align 8
  %img_right = alloca %"class.cv::Mat", align 8
  %t_lhe = alloca %"class.boost::thread", align 8
  %t_rhe = alloca %"class.boost::thread", align 8
  %imgpyr_left = alloca %"class.std::vector.78", align 8
  %imgpyr_right = alloca %"class.std::vector.78", align 8
  %t_lp = alloca %"class.boost::thread", align 8
  %t_rp = alloca %"class.boost::thread", align 8
  %ref.tmp75 = alloca %"class.cv::Mat", align 8
  %ref.tmp78 = alloca %"class.cv::Mat", align 8
  %mask_ll = alloca %"class.std::vector.93", align 8
  %mask_rr = alloca %"class.std::vector.93", align 8
  %pts_left_new = alloca %"class.std::vector.83", align 8
  %pts_right_new = alloca %"class.std::vector.83", align 8
  %t_ll = alloca %"class.boost::thread", align 8
  %t_rr = alloca %"class.boost::thread", align 8
  %ref.tmp179 = alloca %"class.cv::Mat", align 8
  %ref.tmp183 = alloca %"class.cv::Mat", align 8
  %good_left = alloca %"class.std::vector.83", align 8
  %good_right = alloca %"class.std::vector.83", align 8
  %good_ids_left = alloca %"class.std::vector.88", align 8
  %good_ids_right = alloca %"class.std::vector.88", align 8
  %ref.tmp285 = alloca %"class.__gnu_cxx::__normal_iterator", align 8
  %ref.tmp299 = alloca %"class.__gnu_cxx::__normal_iterator", align 8
  %npt_l = alloca %"class.cv::Point_", align 4
  %agg.tmp327 = alloca %"class.cv::Point_", align 4
  %npt_r = alloca %"class.cv::Point_", align 4
  %agg.tmp352 = alloca %"class.cv::Point_", align 4
  %ref.tmp369 = alloca %"class.cv::Mat", align 8
  %ref.tmp373 = alloca %"class.cv::Mat", align 8
  %ref.tmp401 = alloca %"class.boost::posix_time::time_duration", align 8
  %ref.tmp405 = alloca %"class.boost::posix_time::time_duration", align 8
  %ref.tmp411 = alloca %"class.boost::posix_time::time_duration", align 8
  %ref.tmp417 = alloca %"class.boost::posix_time::time_duration", align 8
  %ref.tmp423 = alloca %"class.boost::posix_time::time_duration", align 8
  %ref.tmp429 = alloca %"class.boost::posix_time::time_duration", align 8
  store i64 %cam_id_left, i64* %cam_id_left.addr, align 8, !tbaa !11
  store i64 %cam_id_right, i64* %cam_id_right.addr, align 8, !tbaa !11
  %call = tail call i64 @_ZN5boost9date_time14microsec_clockINS_10posix_time5ptimeEE10local_timeEv()
  %ref.tmp.sroa.0.0..sroa_idx = getelementptr inbounds %"class.ov_core::TrackKLT", %"class.ov_core::TrackKLT"* %this, i64 0, i32 1, i32 0, i32 0, i32 0, i32 0
  store i64 %call, i64* %ref.tmp.sroa.0.0..sroa_idx, align 8
  %0 = bitcast %"class.std::unique_lock"* %lck1 to i8*
  call void @llvm.lifetime.start.p0i8(i64 16, i8* nonnull %0) #18
  %1 = getelementptr inbounds %"class.ov_core::TrackKLT", %"class.ov_core::TrackKLT"* %this, i64 0, i32 0
  %mtx_feeds = getelementptr inbounds %"class.ov_core::TrackKLT", %"class.ov_core::TrackKLT"* %this, i64 0, i32 0, i32 6
  %2 = load i64, i64* %cam_id_left.addr, align 8, !tbaa !11
  %call5 = tail call dereferenceable(40) %"class.std::mutex"* @_ZNSt6vectorISt5mutexSaIS0_EE2atEm(%"class.std::vector"* nonnull %mtx_feeds, i64 %2)
  call void @_ZNSt11unique_lockISt5mutexEC2ERS0_(%"class.std::unique_lock"* nonnull %lck1, %"class.std::mutex"* nonnull dereferenceable(40) %call5)
  %3 = bitcast %"class.std::unique_lock"* %lck2 to i8*
  call void @llvm.lifetime.start.p0i8(i64 16, i8* nonnull %3) #18
  %4 = load i64, i64* %cam_id_right.addr, align 8, !tbaa !11
  %call7 = call dereferenceable(40) %"class.std::mutex"* @_ZNSt6vectorISt5mutexSaIS0_EE2atEm(%"class.std::vector"* nonnull %mtx_feeds, i64 %4)
  call void @_ZNSt11unique_lockISt5mutexEC2ERS0_(%"class.std::unique_lock"* nonnull %lck2, %"class.std::mutex"* nonnull dereferenceable(40) %call7)
  %5 = bitcast %"class.cv::Mat"* %img_left to i8*
  call void @llvm.lifetime.start.p0i8(i64 96, i8* nonnull %5) #18
  call void @_ZN2cv3MatC2Ev(%"class.cv::Mat"* nonnull %img_left)
  %6 = bitcast %"class.cv::Mat"* %img_right to i8*
  call void @llvm.lifetime.start.p0i8(i64 96, i8* nonnull %6) #18
  call void @_ZN2cv3MatC2Ev(%"class.cv::Mat"* nonnull %img_right)
  %7 = bitcast %"class.boost::thread"* %t_lhe to i8*
  call void @llvm.lifetime.start.p0i8(i64 16, i8* nonnull %7) #18
  call void @_ZN5boost6threadC2IPFvRKN2cv11_InputArrayERKNS2_12_OutputArrayEENS_17reference_wrapperIKNS2_3MatEEENSB_ISC_EEEET_T0_T1_(%"class.boost::thread"* nonnull %t_lhe, void (%"class.cv::_InputArray"*, %"class.cv::_OutputArray"*)* nonnull @_ZN2cv12equalizeHistERKNS_11_InputArrayERKNS_12_OutputArrayE, %"class.cv::Mat"* nonnull %img_leftin, %"class.cv::Mat"* nonnull %img_left)
  %8 = bitcast %"class.boost::thread"* %t_rhe to i8*
  call void @llvm.lifetime.start.p0i8(i64 16, i8* nonnull %8) #18
  call void @_ZN5boost6threadC2IPFvRKN2cv11_InputArrayERKNS2_12_OutputArrayEENS_17reference_wrapperIKNS2_3MatEEENSB_ISC_EEEET_T0_T1_(%"class.boost::thread"* nonnull %t_rhe, void (%"class.cv::_InputArray"*, %"class.cv::_OutputArray"*)* nonnull @_ZN2cv12equalizeHistERKNS_11_InputArrayERKNS_12_OutputArrayE, %"class.cv::Mat"* nonnull %img_rightin, %"class.cv::Mat"* nonnull %img_right)
  call void @_ZN5boost6thread4joinEv(%"class.boost::thread"* nonnull %t_lhe)
  call void @_ZN5boost6thread4joinEv(%"class.boost::thread"* nonnull %t_rhe)
  %9 = bitcast %"class.std::vector.78"* %imgpyr_left to i8*
  call void @llvm.lifetime.start.p0i8(i64 24, i8* nonnull %9) #18
  call void @_ZNSt6vectorIN2cv3MatESaIS1_EEC2Ev(%"class.std::vector.78"* nonnull %imgpyr_left) #18
  %10 = bitcast %"class.std::vector.78"* %imgpyr_right to i8*
  call void @llvm.lifetime.start.p0i8(i64 24, i8* nonnull %10) #18
  call void @_ZNSt6vectorIN2cv3MatESaIS1_EEC2Ev(%"class.std::vector.78"* nonnull %imgpyr_right) #18
  %11 = bitcast %"class.boost::thread"* %t_lp to i8*
  call void @llvm.lifetime.start.p0i8(i64 16, i8* nonnull %11) #18
  %win_size = getelementptr inbounds %"class.ov_core::TrackKLT", %"class.ov_core::TrackKLT"* %this, i64 0, i32 19
  %pyr_levels = getelementptr inbounds %"class.ov_core::TrackKLT", %"class.ov_core::TrackKLT"* %this, i64 0, i32 18
  call void @_ZN5boost6threadC2IPFiRKN2cv11_InputArrayERKNS2_12_OutputArrayENS2_5Size_IiEEibiibENS_17reference_wrapperIKNS2_3MatEEENSD_ISt6vectorISE_SaISE_EEEENSD_ISA_EENSD_IiEEbNS2_11BorderTypesESN_bEET_T0_T1_T2_T3_T4_T5_T6_T7_(%"class.boost::thread"* nonnull %t_lp, i32 (%"class.cv::_InputArray"*, %"class.cv::_OutputArray"*, %"class.cv::Size_"*, i32, i1, i32, i32, i1)* nonnull @_ZN2cv23buildOpticalFlowPyramidERKNS_11_InputArrayERKNS_12_OutputArrayENS_5Size_IiEEibiib, %"class.cv::Mat"* nonnull %img_left, %"class.std::vector.78"* nonnull %imgpyr_left, %"class.cv::Size_"* nonnull %win_size, i32* nonnull %pyr_levels, i1 zeroext false, i32 4, i32 0, i1 zeroext true)
  %12 = bitcast %"class.boost::thread"* %t_rp to i8*
  call void @llvm.lifetime.start.p0i8(i64 16, i8* nonnull %12) #18
  call void @_ZN5boost6threadC2IPFiRKN2cv11_InputArrayERKNS2_12_OutputArrayENS2_5Size_IiEEibiibENS_17reference_wrapperIKNS2_3MatEEENSD_ISt6vectorISE_SaISE_EEEENSD_ISA_EENSD_IiEEbNS2_11BorderTypesESN_bEET_T0_T1_T2_T3_T4_T5_T6_T7_(%"class.boost::thread"* nonnull %t_rp, i32 (%"class.cv::_InputArray"*, %"class.cv::_OutputArray"*, %"class.cv::Size_"*, i32, i1, i32, i32, i1)* nonnull @_ZN2cv23buildOpticalFlowPyramidERKNS_11_InputArrayERKNS_12_OutputArrayENS_5Size_IiEEibiib, %"class.cv::Mat"* nonnull %img_right, %"class.std::vector.78"* nonnull %imgpyr_right, %"class.cv::Size_"* nonnull %win_size, i32* nonnull %pyr_levels, i1 zeroext false, i32 4, i32 0, i1 zeroext true)
  call void @_ZN5boost6thread4joinEv(%"class.boost::thread"* nonnull %t_lp)
  call void @_ZN5boost6thread4joinEv(%"class.boost::thread"* nonnull %t_rp)
  %call58 = call i64 @_ZN5boost9date_time14microsec_clockINS_10posix_time5ptimeEE10local_timeEv()
  %ref.tmp57.sroa.0.0..sroa_idx = getelementptr inbounds %"class.ov_core::TrackKLT", %"class.ov_core::TrackKLT"* %this, i64 0, i32 2, i32 0, i32 0, i32 0, i32 0
  store i64 %call58, i64* %ref.tmp57.sroa.0.0..sroa_idx, align 8
  %pts_last = getelementptr inbounds %"class.ov_core::TrackKLT", %"class.ov_core::TrackKLT"* %this, i64 0, i32 0, i32 8
  %call63 = call dereferenceable(24) %"class.std::vector.83"* @_ZNSt13unordered_mapImSt6vectorIN2cv8KeyPointESaIS2_EESt4hashImESt8equal_toImESaISt4pairIKmS4_EEEixERSA_(%"class.std::unordered_map.45"* nonnull %pts_last, i64* nonnull dereferenceable(8) %cam_id_left.addr)
  %call64 = call zeroext i1 @_ZNKSt6vectorIN2cv8KeyPointESaIS1_EE5emptyEv(%"class.std::vector.83"* nonnull %call63) #18
  br i1 %call64, label %if.then, label %lor.lhs.false

lor.lhs.false:                                    ; preds = %entry
  %call66 = call dereferenceable(24) %"class.std::vector.83"* @_ZNSt13unordered_mapImSt6vectorIN2cv8KeyPointESaIS2_EESt4hashImESt8equal_toImESaISt4pairIKmS4_EEEixERSA_(%"class.std::unordered_map.45"* nonnull %pts_last, i64* nonnull dereferenceable(8) %cam_id_right.addr)
  %call67 = call zeroext i1 @_ZNKSt6vectorIN2cv8KeyPointESaIS1_EE5emptyEv(%"class.std::vector.83"* nonnull %call66) #18
  br i1 %call67, label %if.then, label %if.end

if.then:                                          ; preds = %lor.lhs.false, %entry
  %call69 = call dereferenceable(24) %"class.std::vector.83"* @_ZNSt13unordered_mapImSt6vectorIN2cv8KeyPointESaIS2_EESt4hashImESt8equal_toImESaISt4pairIKmS4_EEEixERSA_(%"class.std::unordered_map.45"* nonnull %pts_last, i64* nonnull dereferenceable(8) %cam_id_left.addr)
  %call71 = call dereferenceable(24) %"class.std::vector.83"* @_ZNSt13unordered_mapImSt6vectorIN2cv8KeyPointESaIS2_EESt4hashImESt8equal_toImESaISt4pairIKmS4_EEEixERSA_(%"class.std::unordered_map.45"* nonnull %pts_last, i64* nonnull dereferenceable(8) %cam_id_right.addr)
  %ids_last = getelementptr inbounds %"class.ov_core::TrackKLT", %"class.ov_core::TrackKLT"* %this, i64 0, i32 0, i32 9
  %call72 = call dereferenceable(24) %"class.std::vector.88"* @_ZNSt13unordered_mapImSt6vectorImSaImEESt4hashImESt8equal_toImESaISt4pairIKmS2_EEEixERS8_(%"class.std::unordered_map.59"* nonnull %ids_last, i64* nonnull dereferenceable(8) %cam_id_left.addr)
  %call74 = call dereferenceable(24) %"class.std::vector.88"* @_ZNSt13unordered_mapImSt6vectorImSaImEESt4hashImESt8equal_toImESaISt4pairIKmS2_EEEixERS8_(%"class.std::unordered_map.59"* nonnull %ids_last, i64* nonnull dereferenceable(8) %cam_id_right.addr)
  call void @_ZN7ov_core8TrackKLT24perform_detection_stereoERKSt6vectorIN2cv3MatESaIS3_EES7_RS1_INS2_8KeyPointESaIS8_EESB_RS1_ImSaImEESE_(%"class.ov_core::TrackKLT"* nonnull %this, %"class.std::vector.78"* nonnull dereferenceable(24) %imgpyr_left, %"class.std::vector.78"* nonnull dereferenceable(24) %imgpyr_right, %"class.std::vector.83"* nonnull dereferenceable(24) %call69, %"class.std::vector.83"* nonnull dereferenceable(24) %call71, %"class.std::vector.88"* nonnull dereferenceable(24) %call72, %"class.std::vector.88"* nonnull dereferenceable(24) %call74)
  %13 = bitcast %"class.cv::Mat"* %ref.tmp75 to i8*
  call void @llvm.lifetime.start.p0i8(i64 96, i8* nonnull %13) #18
  call void @_ZNK2cv3Mat5cloneEv(%"class.cv::Mat"* nonnull sret %ref.tmp75, %"class.cv::Mat"* nonnull %img_left)
  %img_last = getelementptr inbounds %"class.ov_core::TrackKLT", %"class.ov_core::TrackKLT"* %this, i64 0, i32 0, i32 7
  %call76 = call dereferenceable(96) %"class.cv::Mat"* @_ZNSt3mapImN2cv3MatESt4lessImESaISt4pairIKmS1_EEEixERS5_(%"class.std::map.40"* nonnull %img_last, i64* nonnull dereferenceable(8) %cam_id_left.addr)
  %call77 = call dereferenceable(96) %"class.cv::Mat"* @_ZN2cv3MataSEOS0_(%"class.cv::Mat"* nonnull %call76, %"class.cv::Mat"* nonnull dereferenceable(96) %ref.tmp75)
  call void @_ZN2cv3MatD2Ev(%"class.cv::Mat"* nonnull %ref.tmp75) #18
  call void @llvm.lifetime.end.p0i8(i64 96, i8* nonnull %13) #18
  %14 = bitcast %"class.cv::Mat"* %ref.tmp78 to i8*
  call void @llvm.lifetime.start.p0i8(i64 96, i8* nonnull %14) #18
  call void @_ZNK2cv3Mat5cloneEv(%"class.cv::Mat"* nonnull sret %ref.tmp78, %"class.cv::Mat"* nonnull %img_right)
  %call80 = call dereferenceable(96) %"class.cv::Mat"* @_ZNSt3mapImN2cv3MatESt4lessImESaISt4pairIKmS1_EEEixERS5_(%"class.std::map.40"* nonnull %img_last, i64* nonnull dereferenceable(8) %cam_id_right.addr)
  %call81 = call dereferenceable(96) %"class.cv::Mat"* @_ZN2cv3MataSEOS0_(%"class.cv::Mat"* nonnull %call80, %"class.cv::Mat"* nonnull dereferenceable(96) %ref.tmp78)
  call void @_ZN2cv3MatD2Ev(%"class.cv::Mat"* nonnull %ref.tmp78) #18
  call void @llvm.lifetime.end.p0i8(i64 96, i8* nonnull %14) #18
  %img_pyramid_last = getelementptr inbounds %"class.ov_core::TrackKLT", %"class.ov_core::TrackKLT"* %this, i64 0, i32 20
  %call82 = call dereferenceable(24) %"class.std::vector.78"* @_ZNSt3mapImSt6vectorIN2cv3MatESaIS2_EESt4lessImESaISt4pairIKmS4_EEEixERS8_(%"class.std::map.73"* nonnull %img_pyramid_last, i64* nonnull dereferenceable(8) %cam_id_left.addr)
  %call83 = call dereferenceable(24) %"class.std::vector.78"* @_ZNSt6vectorIN2cv3MatESaIS1_EEaSERKS3_(%"class.std::vector.78"* nonnull %call82, %"class.std::vector.78"* nonnull dereferenceable(24) %imgpyr_left)
  %call85 = call dereferenceable(24) %"class.std::vector.78"* @_ZNSt3mapImSt6vectorIN2cv3MatESaIS2_EESt4lessImESaISt4pairIKmS4_EEEixERS8_(%"class.std::map.73"* nonnull %img_pyramid_last, i64* nonnull dereferenceable(8) %cam_id_right.addr)
  %call86 = call dereferenceable(24) %"class.std::vector.78"* @_ZNSt6vectorIN2cv3MatESaIS1_EEaSERKS3_(%"class.std::vector.78"* nonnull %call85, %"class.std::vector.78"* nonnull dereferenceable(24) %imgpyr_right)
  br label %cleanup485

if.end:                                           ; preds = %lor.lhs.false
  %img_pyramid_last87 = getelementptr inbounds %"class.ov_core::TrackKLT", %"class.ov_core::TrackKLT"* %this, i64 0, i32 20
  %call88 = call dereferenceable(24) %"class.std::vector.78"* @_ZNSt3mapImSt6vectorIN2cv3MatESaIS2_EESt4lessImESaISt4pairIKmS4_EEEixERS8_(%"class.std::map.73"* nonnull %img_pyramid_last87, i64* nonnull dereferenceable(8) %cam_id_left.addr)
  %call90 = call dereferenceable(24) %"class.std::vector.78"* @_ZNSt3mapImSt6vectorIN2cv3MatESaIS2_EESt4lessImESaISt4pairIKmS4_EEEixERS8_(%"class.std::map.73"* nonnull %img_pyramid_last87, i64* nonnull dereferenceable(8) %cam_id_right.addr)
  %call92 = call dereferenceable(24) %"class.std::vector.83"* @_ZNSt13unordered_mapImSt6vectorIN2cv8KeyPointESaIS2_EESt4hashImESt8equal_toImESaISt4pairIKmS4_EEEixERSA_(%"class.std::unordered_map.45"* nonnull %pts_last, i64* nonnull dereferenceable(8) %cam_id_left.addr)
  %call94 = call dereferenceable(24) %"class.std::vector.83"* @_ZNSt13unordered_mapImSt6vectorIN2cv8KeyPointESaIS2_EESt4hashImESt8equal_toImESaISt4pairIKmS4_EEEixERSA_(%"class.std::unordered_map.45"* nonnull %pts_last, i64* nonnull dereferenceable(8) %cam_id_right.addr)
  %ids_last95 = getelementptr inbounds %"class.ov_core::TrackKLT", %"class.ov_core::TrackKLT"* %this, i64 0, i32 0, i32 9
  %call96 = call dereferenceable(24) %"class.std::vector.88"* @_ZNSt13unordered_mapImSt6vectorImSaImEESt4hashImESt8equal_toImESaISt4pairIKmS2_EEEixERS8_(%"class.std::unordered_map.59"* nonnull %ids_last95, i64* nonnull dereferenceable(8) %cam_id_left.addr)
  %call98 = call dereferenceable(24) %"class.std::vector.88"* @_ZNSt13unordered_mapImSt6vectorImSaImEESt4hashImESt8equal_toImESaISt4pairIKmS2_EEEixERS8_(%"class.std::unordered_map.59"* nonnull %ids_last95, i64* nonnull dereferenceable(8) %cam_id_right.addr)
  call void @_ZN7ov_core8TrackKLT24perform_detection_stereoERKSt6vectorIN2cv3MatESaIS3_EES7_RS1_INS2_8KeyPointESaIS8_EESB_RS1_ImSaImEESE_(%"class.ov_core::TrackKLT"* nonnull %this, %"class.std::vector.78"* nonnull dereferenceable(24) %call88, %"class.std::vector.78"* nonnull dereferenceable(24) %call90, %"class.std::vector.83"* nonnull dereferenceable(24) %call92, %"class.std::vector.83"* nonnull dereferenceable(24) %call94, %"class.std::vector.88"* nonnull dereferenceable(24) %call96, %"class.std::vector.88"* nonnull dereferenceable(24) %call98)
  %call100 = call i64 @_ZN5boost9date_time14microsec_clockINS_10posix_time5ptimeEE10local_timeEv()
  %ref.tmp99.sroa.0.0..sroa_idx = getelementptr inbounds %"class.ov_core::TrackKLT", %"class.ov_core::TrackKLT"* %this, i64 0, i32 3, i32 0, i32 0, i32 0, i32 0
  store i64 %call100, i64* %ref.tmp99.sroa.0.0..sroa_idx, align 8
  %15 = bitcast %"class.std::vector.93"* %mask_ll to i8*
  call void @llvm.lifetime.start.p0i8(i64 24, i8* nonnull %15) #18
  call void @_ZNSt6vectorIhSaIhEEC2Ev(%"class.std::vector.93"* nonnull %mask_ll) #18
  %16 = bitcast %"class.std::vector.93"* %mask_rr to i8*
  call void @llvm.lifetime.start.p0i8(i64 24, i8* nonnull %16) #18
  call void @_ZNSt6vectorIhSaIhEEC2Ev(%"class.std::vector.93"* nonnull %mask_rr) #18
  %17 = bitcast %"class.std::vector.83"* %pts_left_new to i8*
  call void @llvm.lifetime.start.p0i8(i64 24, i8* nonnull %17) #18
  %call106 = call dereferenceable(24) %"class.std::vector.83"* @_ZNSt13unordered_mapImSt6vectorIN2cv8KeyPointESaIS2_EESt4hashImESt8equal_toImESaISt4pairIKmS4_EEEixERSA_(%"class.std::unordered_map.45"* nonnull %pts_last, i64* nonnull dereferenceable(8) %cam_id_left.addr)
  call void @_ZNSt6vectorIN2cv8KeyPointESaIS1_EEC2ERKS3_(%"class.std::vector.83"* nonnull %pts_left_new, %"class.std::vector.83"* nonnull dereferenceable(24) %call106)
  %18 = bitcast %"class.std::vector.83"* %pts_right_new to i8*
  call void @llvm.lifetime.start.p0i8(i64 24, i8* nonnull %18) #18
  %call108 = call dereferenceable(24) %"class.std::vector.83"* @_ZNSt13unordered_mapImSt6vectorIN2cv8KeyPointESaIS2_EESt4hashImESt8equal_toImESaISt4pairIKmS4_EEEixERSA_(%"class.std::unordered_map.45"* nonnull %pts_last, i64* nonnull dereferenceable(8) %cam_id_right.addr)
  call void @_ZNSt6vectorIN2cv8KeyPointESaIS1_EEC2ERKS3_(%"class.std::vector.83"* nonnull %pts_right_new, %"class.std::vector.83"* nonnull dereferenceable(24) %call108)
  %19 = bitcast %"class.boost::thread"* %t_ll to i8*
  call void @llvm.lifetime.start.p0i8(i64 16, i8* nonnull %19) #18
  %call111 = call dereferenceable(24) %"class.std::vector.78"* @_ZNSt3mapImSt6vectorIN2cv3MatESaIS2_EESt4lessImESaISt4pairIKmS4_EEEixERS8_(%"class.std::map.73"* nonnull %img_pyramid_last87, i64* nonnull dereferenceable(8) %cam_id_left.addr)
  %call119 = call dereferenceable(24) %"class.std::vector.83"* @_ZNSt13unordered_mapImSt6vectorIN2cv8KeyPointESaIS2_EESt4hashImESt8equal_toImESaISt4pairIKmS4_EEEixERSA_(%"class.std::unordered_map.45"* nonnull %pts_last, i64* nonnull dereferenceable(8) %cam_id_left.addr)
  %20 = load i64, i64* %cam_id_left.addr, align 8, !tbaa !11
  %coerce.val.pi = ptrtoint %"class.std::vector.83"* %call119 to i64
  %coerce.val.pi132 = ptrtoint %"class.std::vector.83"* %pts_left_new to i64
  %coerce.val.pi134 = ptrtoint %"class.std::vector.93"* %mask_ll to i64
  call void @_ZN5boost6threadC2IMN7ov_core8TrackKLTEFvRKSt6vectorIN2cv3MatESaIS6_EESA_RS4_INS5_8KeyPointESaISB_EESE_mmRS4_IhSaIhEEEPS3_NS_17reference_wrapperIS9_EESM_NSL_ISD_EESN_mmNSL_ISG_EEEET_T0_T1_T2_T3_T4_T5_T6_T7_(%"class.boost::thread"* nonnull %t_ll, i64 ptrtoint (void (%"class.ov_core::TrackKLT"*, %"class.std::vector.78"*, %"class.std::vector.78"*, %"class.std::vector.83"*, %"class.std::vector.83"*, i64, i64, %"class.std::vector.93"*)* @_ZN7ov_core8TrackKLT16perform_matchingERKSt6vectorIN2cv3MatESaIS3_EES7_RS1_INS2_8KeyPointESaIS8_EESB_mmRS1_IhSaIhEE to i64), i64 0, %"class.ov_core::TrackKLT"* nonnull %this, %"class.std::vector.78"* nonnull %call111, %"class.std::vector.78"* nonnull %imgpyr_left, i64 %coerce.val.pi, i64 %coerce.val.pi132, i64 %20, i64 %20, i64 %coerce.val.pi134)
  %21 = bitcast %"class.boost::thread"* %t_rr to i8*
  call void @llvm.lifetime.start.p0i8(i64 16, i8* nonnull %21) #18
  %call137 = call dereferenceable(24) %"class.std::vector.78"* @_ZNSt3mapImSt6vectorIN2cv3MatESaIS2_EESt4lessImESaISt4pairIKmS4_EEEixERS8_(%"class.std::map.73"* nonnull %img_pyramid_last87, i64* nonnull dereferenceable(8) %cam_id_right.addr)
  %call145 = call dereferenceable(24) %"class.std::vector.83"* @_ZNSt13unordered_mapImSt6vectorIN2cv8KeyPointESaIS2_EESt4hashImESt8equal_toImESaISt4pairIKmS4_EEEixERSA_(%"class.std::unordered_map.45"* nonnull %pts_last, i64* nonnull dereferenceable(8) %cam_id_right.addr)
  %22 = load i64, i64* %cam_id_right.addr, align 8, !tbaa !11
  %coerce.val.pi158 = ptrtoint %"class.std::vector.83"* %call145 to i64
  %coerce.val.pi160 = ptrtoint %"class.std::vector.83"* %pts_right_new to i64
  %coerce.val.pi162 = ptrtoint %"class.std::vector.93"* %mask_rr to i64
  call void @_ZN5boost6threadC2IMN7ov_core8TrackKLTEFvRKSt6vectorIN2cv3MatESaIS6_EESA_RS4_INS5_8KeyPointESaISB_EESE_mmRS4_IhSaIhEEEPS3_NS_17reference_wrapperIS9_EESM_NSL_ISD_EESN_mmNSL_ISG_EEEET_T0_T1_T2_T3_T4_T5_T6_T7_(%"class.boost::thread"* nonnull %t_rr, i64 ptrtoint (void (%"class.ov_core::TrackKLT"*, %"class.std::vector.78"*, %"class.std::vector.78"*, %"class.std::vector.83"*, %"class.std::vector.83"*, i64, i64, %"class.std::vector.93"*)* @_ZN7ov_core8TrackKLT16perform_matchingERKSt6vectorIN2cv3MatESaIS3_EES7_RS1_INS2_8KeyPointESaIS8_EESB_mmRS1_IhSaIhEE to i64), i64 0, %"class.ov_core::TrackKLT"* nonnull %this, %"class.std::vector.78"* nonnull %call137, %"class.std::vector.78"* nonnull %imgpyr_right, i64 %coerce.val.pi158, i64 %coerce.val.pi160, i64 %22, i64 %22, i64 %coerce.val.pi162)
  call void @_ZN5boost6thread4joinEv(%"class.boost::thread"* nonnull %t_ll)
  call void @_ZN5boost6thread4joinEv(%"class.boost::thread"* nonnull %t_rr)
  %call164 = call i64 @_ZN5boost9date_time14microsec_clockINS_10posix_time5ptimeEE10local_timeEv()
  %ref.tmp163.sroa.0.0..sroa_idx = getelementptr inbounds %"class.ov_core::TrackKLT", %"class.ov_core::TrackKLT"* %this, i64 0, i32 4, i32 0, i32 0, i32 0, i32 0
  store i64 %call164, i64* %ref.tmp163.sroa.0.0..sroa_idx, align 8
  %call170 = call i64 @_ZN5boost9date_time14microsec_clockINS_10posix_time5ptimeEE10local_timeEv()
  %ref.tmp169.sroa.0.0..sroa_idx = getelementptr inbounds %"class.ov_core::TrackKLT", %"class.ov_core::TrackKLT"* %this, i64 0, i32 5, i32 0, i32 0, i32 0, i32 0
  store i64 %call170, i64* %ref.tmp169.sroa.0.0..sroa_idx, align 8
  %call175 = call zeroext i1 @_ZNKSt6vectorIhSaIhEE5emptyEv(%"class.std::vector.93"* nonnull %mask_ll) #18
  br i1 %call175, label %if.then178, label %lor.lhs.false176

lor.lhs.false176:                                 ; preds = %if.end
  %call177 = call zeroext i1 @_ZNKSt6vectorIhSaIhEE5emptyEv(%"class.std::vector.93"* nonnull %mask_rr) #18
  br i1 %call177, label %if.then178, label %if.end202

if.then178:                                       ; preds = %lor.lhs.false176, %if.end
  %23 = bitcast %"class.cv::Mat"* %ref.tmp179 to i8*
  call void @llvm.lifetime.start.p0i8(i64 96, i8* nonnull %23) #18
  call void @_ZNK2cv3Mat5cloneEv(%"class.cv::Mat"* nonnull sret %ref.tmp179, %"class.cv::Mat"* nonnull %img_left)
  %img_last180 = getelementptr inbounds %"class.ov_core::TrackKLT", %"class.ov_core::TrackKLT"* %this, i64 0, i32 0, i32 7
  %call181 = call dereferenceable(96) %"class.cv::Mat"* @_ZNSt3mapImN2cv3MatESt4lessImESaISt4pairIKmS1_EEEixERS5_(%"class.std::map.40"* nonnull %img_last180, i64* nonnull dereferenceable(8) %cam_id_left.addr)
  %call182 = call dereferenceable(96) %"class.cv::Mat"* @_ZN2cv3MataSEOS0_(%"class.cv::Mat"* nonnull %call181, %"class.cv::Mat"* nonnull dereferenceable(96) %ref.tmp179)
  call void @_ZN2cv3MatD2Ev(%"class.cv::Mat"* nonnull %ref.tmp179) #18
  call void @llvm.lifetime.end.p0i8(i64 96, i8* nonnull %23) #18
  %24 = bitcast %"class.cv::Mat"* %ref.tmp183 to i8*
  call void @llvm.lifetime.start.p0i8(i64 96, i8* nonnull %24) #18
  call void @_ZNK2cv3Mat5cloneEv(%"class.cv::Mat"* nonnull sret %ref.tmp183, %"class.cv::Mat"* nonnull %img_right)
  %call185 = call dereferenceable(96) %"class.cv::Mat"* @_ZNSt3mapImN2cv3MatESt4lessImESaISt4pairIKmS1_EEEixERS5_(%"class.std::map.40"* nonnull %img_last180, i64* nonnull dereferenceable(8) %cam_id_right.addr)
  %call186 = call dereferenceable(96) %"class.cv::Mat"* @_ZN2cv3MataSEOS0_(%"class.cv::Mat"* nonnull %call185, %"class.cv::Mat"* nonnull dereferenceable(96) %ref.tmp183)
  call void @_ZN2cv3MatD2Ev(%"class.cv::Mat"* nonnull %ref.tmp183) #18
  call void @llvm.lifetime.end.p0i8(i64 96, i8* nonnull %24) #18
  %call188 = call dereferenceable(24) %"class.std::vector.78"* @_ZNSt3mapImSt6vectorIN2cv3MatESaIS2_EESt4lessImESaISt4pairIKmS4_EEEixERS8_(%"class.std::map.73"* nonnull %img_pyramid_last87, i64* nonnull dereferenceable(8) %cam_id_left.addr)
  %call189 = call dereferenceable(24) %"class.std::vector.78"* @_ZNSt6vectorIN2cv3MatESaIS1_EEaSERKS3_(%"class.std::vector.78"* nonnull %call188, %"class.std::vector.78"* nonnull dereferenceable(24) %imgpyr_left)
  %call191 = call dereferenceable(24) %"class.std::vector.78"* @_ZNSt3mapImSt6vectorIN2cv3MatESaIS2_EESt4lessImESaISt4pairIKmS4_EEEixERS8_(%"class.std::map.73"* nonnull %img_pyramid_last87, i64* nonnull dereferenceable(8) %cam_id_right.addr)
  %call192 = call dereferenceable(24) %"class.std::vector.78"* @_ZNSt6vectorIN2cv3MatESaIS1_EEaSERKS3_(%"class.std::vector.78"* nonnull %call191, %"class.std::vector.78"* nonnull dereferenceable(24) %imgpyr_right)
  %call194 = call dereferenceable(24) %"class.std::vector.83"* @_ZNSt13unordered_mapImSt6vectorIN2cv8KeyPointESaIS2_EESt4hashImESt8equal_toImESaISt4pairIKmS4_EEEixERSA_(%"class.std::unordered_map.45"* nonnull %pts_last, i64* nonnull dereferenceable(8) %cam_id_left.addr)
  call void @_ZNSt6vectorIN2cv8KeyPointESaIS1_EE5clearEv(%"class.std::vector.83"* nonnull %call194) #18
  %call196 = call dereferenceable(24) %"class.std::vector.83"* @_ZNSt13unordered_mapImSt6vectorIN2cv8KeyPointESaIS2_EESt4hashImESt8equal_toImESaISt4pairIKmS4_EEEixERSA_(%"class.std::unordered_map.45"* nonnull %pts_last, i64* nonnull dereferenceable(8) %cam_id_right.addr)
  call void @_ZNSt6vectorIN2cv8KeyPointESaIS1_EE5clearEv(%"class.std::vector.83"* nonnull %call196) #18
  %call198 = call dereferenceable(24) %"class.std::vector.88"* @_ZNSt13unordered_mapImSt6vectorImSaImEESt4hashImESt8equal_toImESaISt4pairIKmS2_EEEixERS8_(%"class.std::unordered_map.59"* nonnull %ids_last95, i64* nonnull dereferenceable(8) %cam_id_left.addr)
  call void @_ZNSt6vectorImSaImEE5clearEv(%"class.std::vector.88"* nonnull %call198) #18
  %call200 = call dereferenceable(24) %"class.std::vector.88"* @_ZNSt13unordered_mapImSt6vectorImSaImEESt4hashImESt8equal_toImESaISt4pairIKmS2_EEEixERS8_(%"class.std::unordered_map.59"* nonnull %ids_last95, i64* nonnull dereferenceable(8) %cam_id_right.addr)
  call void @_ZNSt6vectorImSaImEE5clearEv(%"class.std::vector.88"* nonnull %call200) #18
  %call201 = call i32 (i8*, ...) @printf(i8* getelementptr inbounds ([83 x i8], [83 x i8]* @.str.14, i64 0, i64 0))
  br label %cleanup473

if.end202:                                        ; preds = %lor.lhs.false176
  %25 = bitcast %"class.std::vector.83"* %good_left to i8*
  call void @llvm.lifetime.start.p0i8(i64 24, i8* nonnull %25) #18
  call void @_ZNSt6vectorIN2cv8KeyPointESaIS1_EEC2Ev(%"class.std::vector.83"* nonnull %good_left) #18
  %26 = bitcast %"class.std::vector.83"* %good_right to i8*
  call void @llvm.lifetime.start.p0i8(i64 24, i8* nonnull %26) #18
  call void @_ZNSt6vectorIN2cv8KeyPointESaIS1_EEC2Ev(%"class.std::vector.83"* nonnull %good_right) #18
  %27 = bitcast %"class.std::vector.88"* %good_ids_left to i8*
  call void @llvm.lifetime.start.p0i8(i64 24, i8* nonnull %27) #18
  call void @_ZNSt6vectorImSaImEEC2Ev(%"class.std::vector.88"* nonnull %good_ids_left) #18
  %28 = bitcast %"class.std::vector.88"* %good_ids_right to i8*
  call void @llvm.lifetime.start.p0i8(i64 24, i8* nonnull %28) #18
  call void @_ZNSt6vectorImSaImEEC2Ev(%"class.std::vector.88"* nonnull %good_ids_right) #18
  %call203620 = call i64 @_ZNKSt6vectorIN2cv8KeyPointESaIS1_EE4sizeEv(%"class.std::vector.83"* nonnull %pts_left_new) #18
  %cmp621 = icmp eq i64 %call203620, 0
  br i1 %cmp621, label %for.cond269.preheader, label %for.body

for.cond269.preheader:                            ; preds = %for.inc264, %if.end202
  %call270610 = call i64 @_ZNKSt6vectorIN2cv8KeyPointESaIS1_EE4sizeEv(%"class.std::vector.83"* nonnull %pts_right_new) #18
  %cmp271611 = icmp eq i64 %call270610, 0
  br i1 %cmp271611, label %for.cond.cleanup272, label %for.body273.lr.ph

for.body273.lr.ph:                                ; preds = %for.cond269.preheader
  %29 = bitcast %"class.__gnu_cxx::__normal_iterator"* %ref.tmp285 to i8*
  %coerce.dive298 = getelementptr inbounds %"class.__gnu_cxx::__normal_iterator", %"class.__gnu_cxx::__normal_iterator"* %ref.tmp285, i64 0, i32 0
  %30 = bitcast %"class.__gnu_cxx::__normal_iterator"* %ref.tmp299 to i8*
  %coerce.dive301 = getelementptr inbounds %"class.__gnu_cxx::__normal_iterator", %"class.__gnu_cxx::__normal_iterator"* %ref.tmp299, i64 0, i32 0
  br label %for.body273

for.body:                                         ; preds = %if.end202, %for.inc264
  %i.0622 = phi i64 [ %inc265, %for.inc264 ], [ 0, %if.end202 ]
  %call204 = call dereferenceable(28) %"class.cv::KeyPoint"* @_ZNSt6vectorIN2cv8KeyPointESaIS1_EEixEm(%"class.std::vector.83"* nonnull %pts_left_new, i64 %i.0622) #18
  %x = getelementptr inbounds %"class.cv::KeyPoint", %"class.cv::KeyPoint"* %call204, i64 0, i32 0, i32 0
  %31 = load float, float* %x, align 4, !tbaa !24
  %cmp205 = fcmp olt float %31, 0.000000e+00
  br i1 %cmp205, label %for.inc264, label %lor.lhs.false206

lor.lhs.false206:                                 ; preds = %for.body
  %call207 = call dereferenceable(28) %"class.cv::KeyPoint"* @_ZNSt6vectorIN2cv8KeyPointESaIS1_EEixEm(%"class.std::vector.83"* nonnull %pts_left_new, i64 %i.0622) #18
  %y = getelementptr inbounds %"class.cv::KeyPoint", %"class.cv::KeyPoint"* %call207, i64 0, i32 0, i32 1
  %32 = load float, float* %y, align 4, !tbaa !28
  %cmp209 = fcmp olt float %32, 0.000000e+00
  br i1 %cmp209, label %for.inc264, label %for.cond212.preheader

for.cond212.preheader:                            ; preds = %lor.lhs.false206
  %call214613 = call dereferenceable(24) %"class.std::vector.88"* @_ZNSt13unordered_mapImSt6vectorImSaImEESt4hashImESt8equal_toImESaISt4pairIKmS2_EEEixERS8_(%"class.std::unordered_map.59"* nonnull %ids_last95, i64* nonnull dereferenceable(8) %cam_id_right.addr)
  %call215614 = call i64 @_ZNKSt6vectorImSaImEE4sizeEv(%"class.std::vector.88"* nonnull %call214613) #18
  %cmp216615 = icmp eq i64 %call215614, 0
  br i1 %cmp216615, label %cleanup, label %for.body218

for.body218:                                      ; preds = %for.cond212.preheader, %for.inc
  %n.0616 = phi i64 [ %inc, %for.inc ], [ 0, %for.cond212.preheader ]
  %call220 = call dereferenceable(24) %"class.std::vector.88"* @_ZNSt13unordered_mapImSt6vectorImSaImEESt4hashImESt8equal_toImESaISt4pairIKmS2_EEEixERS8_(%"class.std::unordered_map.59"* nonnull %ids_last95, i64* nonnull dereferenceable(8) %cam_id_left.addr)
  %call221 = call dereferenceable(8) i64* @_ZNSt6vectorImSaImEE2atEm(%"class.std::vector.88"* nonnull %call220, i64 %i.0622)
  %33 = load i64, i64* %call221, align 8, !tbaa !11
  %call223 = call dereferenceable(24) %"class.std::vector.88"* @_ZNSt13unordered_mapImSt6vectorImSaImEESt4hashImESt8equal_toImESaISt4pairIKmS2_EEEixERS8_(%"class.std::unordered_map.59"* nonnull %ids_last95, i64* nonnull dereferenceable(8) %cam_id_right.addr)
  %call224 = call dereferenceable(8) i64* @_ZNSt6vectorImSaImEE2atEm(%"class.std::vector.88"* nonnull %call223, i64 %n.0616)
  %34 = load i64, i64* %call224, align 8, !tbaa !11
  %cmp225 = icmp eq i64 %33, %34
  br i1 %cmp225, label %cleanup, label %for.inc

for.inc:                                          ; preds = %for.body218
  %inc = add nuw i64 %n.0616, 1
  %call214 = call dereferenceable(24) %"class.std::vector.88"* @_ZNSt13unordered_mapImSt6vectorImSaImEESt4hashImESt8equal_toImESaISt4pairIKmS2_EEEixERS8_(%"class.std::unordered_map.59"* nonnull %ids_last95, i64* nonnull dereferenceable(8) %cam_id_right.addr)
  %call215 = call i64 @_ZNKSt6vectorImSaImEE4sizeEv(%"class.std::vector.88"* nonnull %call214) #18
  %cmp216 = icmp ult i64 %inc, %call215
  br i1 %cmp216, label %for.body218, label %cleanup

cleanup:                                          ; preds = %for.inc, %for.body218, %for.cond212.preheader
  %index_right.0 = phi i64 [ 0, %for.cond212.preheader ], [ %n.0616, %for.body218 ], [ 0, %for.inc ]
  %found_right.0 = phi i1 [ true, %for.cond212.preheader ], [ false, %for.body218 ], [ true, %for.inc ]
  %call228 = call dereferenceable(1) i8* @_ZNSt6vectorIhSaIhEEixEm(%"class.std::vector.93"* nonnull %mask_ll, i64 %i.0622) #18
  %35 = load i8, i8* %call228, align 1, !tbaa !29
  %tobool = icmp eq i8 %35, 0
  %brmerge = or i1 %found_right.0, %tobool
  br i1 %brmerge, label %if.else, label %land.lhs.true230

land.lhs.true230:                                 ; preds = %cleanup
  %call231 = call dereferenceable(1) i8* @_ZNSt6vectorIhSaIhEEixEm(%"class.std::vector.93"* nonnull %mask_rr, i64 %index_right.0) #18
  %36 = load i8, i8* %call231, align 1, !tbaa !29
  %tobool232 = icmp eq i8 %36, 0
  br i1 %tobool232, label %if.else, label %if.then233

if.then233:                                       ; preds = %land.lhs.true230
  %call234 = call dereferenceable(28) %"class.cv::KeyPoint"* @_ZNSt6vectorIN2cv8KeyPointESaIS1_EE2atEm(%"class.std::vector.83"* nonnull %pts_right_new, i64 %index_right.0)
  %x236 = getelementptr inbounds %"class.cv::KeyPoint", %"class.cv::KeyPoint"* %call234, i64 0, i32 0, i32 0
  %37 = load float, float* %x236, align 4, !tbaa !24
  %cmp237 = fcmp olt float %37, 0.000000e+00
  br i1 %cmp237, label %for.inc264, label %lor.lhs.false238

lor.lhs.false238:                                 ; preds = %if.then233
  %call239 = call dereferenceable(28) %"class.cv::KeyPoint"* @_ZNSt6vectorIN2cv8KeyPointESaIS1_EE2atEm(%"class.std::vector.83"* nonnull %pts_right_new, i64 %index_right.0)
  %y241 = getelementptr inbounds %"class.cv::KeyPoint", %"class.cv::KeyPoint"* %call239, i64 0, i32 0, i32 1
  %38 = load float, float* %y241, align 4, !tbaa !28
  %cmp242 = fcmp olt float %38, 0.000000e+00
  br i1 %cmp242, label %for.inc264, label %if.end244

if.end244:                                        ; preds = %lor.lhs.false238
  %call245 = call dereferenceable(28) %"class.cv::KeyPoint"* @_ZNSt6vectorIN2cv8KeyPointESaIS1_EE2atEm(%"class.std::vector.83"* nonnull %pts_left_new, i64 %i.0622)
  call void @_ZNSt6vectorIN2cv8KeyPointESaIS1_EE9push_backERKS1_(%"class.std::vector.83"* nonnull %good_left, %"class.cv::KeyPoint"* nonnull dereferenceable(28) %call245)
  %call246 = call dereferenceable(28) %"class.cv::KeyPoint"* @_ZNSt6vectorIN2cv8KeyPointESaIS1_EE2atEm(%"class.std::vector.83"* nonnull %pts_right_new, i64 %index_right.0)
  call void @_ZNSt6vectorIN2cv8KeyPointESaIS1_EE9push_backERKS1_(%"class.std::vector.83"* nonnull %good_right, %"class.cv::KeyPoint"* nonnull dereferenceable(28) %call246)
  %call248 = call dereferenceable(24) %"class.std::vector.88"* @_ZNSt13unordered_mapImSt6vectorImSaImEESt4hashImESt8equal_toImESaISt4pairIKmS2_EEEixERS8_(%"class.std::unordered_map.59"* nonnull %ids_last95, i64* nonnull dereferenceable(8) %cam_id_left.addr)
  %call249 = call dereferenceable(8) i64* @_ZNSt6vectorImSaImEE2atEm(%"class.std::vector.88"* nonnull %call248, i64 %i.0622)
  call void @_ZNSt6vectorImSaImEE9push_backERKm(%"class.std::vector.88"* nonnull %good_ids_left, i64* nonnull dereferenceable(8) %call249)
  %call251 = call dereferenceable(24) %"class.std::vector.88"* @_ZNSt13unordered_mapImSt6vectorImSaImEESt4hashImESt8equal_toImESaISt4pairIKmS2_EEEixERS8_(%"class.std::unordered_map.59"* nonnull %ids_last95, i64* nonnull dereferenceable(8) %cam_id_right.addr)
  %call252 = call dereferenceable(8) i64* @_ZNSt6vectorImSaImEE2atEm(%"class.std::vector.88"* nonnull %call251, i64 %index_right.0)
  call void @_ZNSt6vectorImSaImEE9push_backERKm(%"class.std::vector.88"* nonnull %good_ids_right, i64* nonnull dereferenceable(8) %call252)
  br label %for.inc264

if.else:                                          ; preds = %cleanup, %land.lhs.true230
  %call253 = call dereferenceable(1) i8* @_ZNSt6vectorIhSaIhEEixEm(%"class.std::vector.93"* nonnull %mask_ll, i64 %i.0622) #18
  %39 = load i8, i8* %call253, align 1, !tbaa !29
  %tobool254 = icmp eq i8 %39, 0
  br i1 %tobool254, label %for.inc264, label %if.then255

if.then255:                                       ; preds = %if.else
